SF:/mnt/datadrive_m2/self-sensored/src/config/batch_config.rs
FN:451,_RNvMs_NtNtCs1yu0zy1SNdm_13self_sensored6config12batch_configNtB4_11BatchConfig21performance_benchmark
FN:132,_RNvMs_NtNtCs1yu0zy1SNdm_13self_sensored6config12batch_configNtB4_11BatchConfig8from_env
FN:276,_RNvMs_NtNtCs1yu0zy1SNdm_13self_sensored6config12batch_configNtB4_11BatchConfig8validate
FN:83,_RNvXNtNtCs1yu0zy1SNdm_13self_sensored6config12batch_configNtB2_11BatchConfigNtNtCs1p5UDGgVI4d_4core7default7Default7default
FN:136,_RNCNvMs_NtNtCs1yu0zy1SNdm_13self_sensored6config12batch_configNtB6_11BatchConfig8from_env0Ba_
FN:144,_RNCNvMs_NtNtCs1yu0zy1SNdm_13self_sensored6config12batch_configNtB6_11BatchConfig8from_envs0_0Ba_
FN:148,_RNCNvMs_NtNtCs1yu0zy1SNdm_13self_sensored6config12batch_configNtB6_11BatchConfig8from_envs1_0Ba_
FN:152,_RNCNvMs_NtNtCs1yu0zy1SNdm_13self_sensored6config12batch_configNtB6_11BatchConfig8from_envs2_0Ba_
FN:156,_RNCNvMs_NtNtCs1yu0zy1SNdm_13self_sensored6config12batch_configNtB6_11BatchConfig8from_envs3_0Ba_
FN:161,_RNCNvMs_NtNtCs1yu0zy1SNdm_13self_sensored6config12batch_configNtB6_11BatchConfig8from_envs4_0Ba_
FN:165,_RNCNvMs_NtNtCs1yu0zy1SNdm_13self_sensored6config12batch_configNtB6_11BatchConfig8from_envs5_0Ba_
FN:169,_RNCNvMs_NtNtCs1yu0zy1SNdm_13self_sensored6config12batch_configNtB6_11BatchConfig8from_envs6_0Ba_
FN:173,_RNCNvMs_NtNtCs1yu0zy1SNdm_13self_sensored6config12batch_configNtB6_11BatchConfig8from_envs7_0Ba_
FN:177,_RNCNvMs_NtNtCs1yu0zy1SNdm_13self_sensored6config12batch_configNtB6_11BatchConfig8from_envs8_0Ba_
FN:181,_RNCNvMs_NtNtCs1yu0zy1SNdm_13self_sensored6config12batch_configNtB6_11BatchConfig8from_envs9_0Ba_
FN:140,_RNCNvMs_NtNtCs1yu0zy1SNdm_13self_sensored6config12batch_configNtB6_11BatchConfig8from_envs_0Ba_
FN:185,_RNCNvMs_NtNtCs1yu0zy1SNdm_13self_sensored6config12batch_configNtB6_11BatchConfig8from_envsa_0Ba_
FN:189,_RNCNvMs_NtNtCs1yu0zy1SNdm_13self_sensored6config12batch_configNtB6_11BatchConfig8from_envsb_0Ba_
FN:193,_RNCNvMs_NtNtCs1yu0zy1SNdm_13self_sensored6config12batch_configNtB6_11BatchConfig8from_envsc_0Ba_
FN:197,_RNCNvMs_NtNtCs1yu0zy1SNdm_13self_sensored6config12batch_configNtB6_11BatchConfig8from_envsd_0Ba_
FN:201,_RNCNvMs_NtNtCs1yu0zy1SNdm_13self_sensored6config12batch_configNtB6_11BatchConfig8from_envse_0Ba_
FN:207,_RNCNvMs_NtNtCs1yu0zy1SNdm_13self_sensored6config12batch_configNtB6_11BatchConfig8from_envsf_0Ba_
FN:211,_RNCNvMs_NtNtCs1yu0zy1SNdm_13self_sensored6config12batch_configNtB6_11BatchConfig8from_envsg_0Ba_
FN:217,_RNCNvMs_NtNtCs1yu0zy1SNdm_13self_sensored6config12batch_configNtB6_11BatchConfig8from_envsh_0Ba_
FN:221,_RNCNvMs_NtNtCs1yu0zy1SNdm_13self_sensored6config12batch_configNtB6_11BatchConfig8from_envsi_0Ba_
FN:227,_RNCNvMs_NtNtCs1yu0zy1SNdm_13self_sensored6config12batch_configNtB6_11BatchConfig8from_envsj_0Ba_
FN:231,_RNCNvMs_NtNtCs1yu0zy1SNdm_13self_sensored6config12batch_configNtB6_11BatchConfig8from_envsk_0Ba_
FN:235,_RNCNvMs_NtNtCs1yu0zy1SNdm_13self_sensored6config12batch_configNtB6_11BatchConfig8from_envsl_0Ba_
FN:239,_RNCNvMs_NtNtCs1yu0zy1SNdm_13self_sensored6config12batch_configNtB6_11BatchConfig8from_envsm_0Ba_
FN:243,_RNCNvMs_NtNtCs1yu0zy1SNdm_13self_sensored6config12batch_configNtB6_11BatchConfig8from_envsn_0Ba_
FN:248,_RNCNvMs_NtNtCs1yu0zy1SNdm_13self_sensored6config12batch_configNtB6_11BatchConfig8from_envso_0Ba_
FN:252,_RNCNvMs_NtNtCs1yu0zy1SNdm_13self_sensored6config12batch_configNtB6_11BatchConfig8from_envsp_0Ba_
FN:256,_RNCNvMs_NtNtCs1yu0zy1SNdm_13self_sensored6config12batch_configNtB6_11BatchConfig8from_envsq_0Ba_
FN:262,_RNCNvMs_NtNtCs1yu0zy1SNdm_13self_sensored6config12batch_configNtB6_11BatchConfig8from_envsr_0Ba_
FN:266,_RNCNvMs_NtNtCs1yu0zy1SNdm_13self_sensored6config12batch_configNtB6_11BatchConfig8from_envss_0Ba_
FN:670,_RNvNtNtNtCs1yu0zy1SNdm_13self_sensored6config12batch_config5testss_26test_performance_benchmark
FN:617,_RNvNtNtNtCs1yu0zy1SNdm_13self_sensored6config12batch_config5testss_28test_chunk_size_calculations
FN:682,_RNvNtNtNtCs1yu0zy1SNdm_13self_sensored6config12batch_config5testss_35test_environment_variable_overrides
FN:609,_RNvNtNtNtCs1yu0zy1SNdm_13self_sensored6config12batch_config5testss_35test_optimized_chunk_sizes_are_safe
FNDA:1,_RNvMs_NtNtCs1yu0zy1SNdm_13self_sensored6config12batch_configNtB4_11BatchConfig21performance_benchmark
FNDA:1,_RNvMs_NtNtCs1yu0zy1SNdm_13self_sensored6config12batch_configNtB4_11BatchConfig8from_env
FNDA:2,_RNvMs_NtNtCs1yu0zy1SNdm_13self_sensored6config12batch_configNtB4_11BatchConfig8validate
FNDA:3,_RNvXNtNtCs1yu0zy1SNdm_13self_sensored6config12batch_configNtB2_11BatchConfigNtNtCs1p5UDGgVI4d_4core7default7Default7default
FNDA:0,_RNCNvMs_NtNtCs1yu0zy1SNdm_13self_sensored6config12batch_configNtB6_11BatchConfig8from_env0Ba_
FNDA:0,_RNCNvMs_NtNtCs1yu0zy1SNdm_13self_sensored6config12batch_configNtB6_11BatchConfig8from_envs0_0Ba_
FNDA:0,_RNCNvMs_NtNtCs1yu0zy1SNdm_13self_sensored6config12batch_configNtB6_11BatchConfig8from_envs1_0Ba_
FNDA:0,_RNCNvMs_NtNtCs1yu0zy1SNdm_13self_sensored6config12batch_configNtB6_11BatchConfig8from_envs2_0Ba_
FNDA:0,_RNCNvMs_NtNtCs1yu0zy1SNdm_13self_sensored6config12batch_configNtB6_11BatchConfig8from_envs3_0Ba_
FNDA:1,_RNCNvMs_NtNtCs1yu0zy1SNdm_13self_sensored6config12batch_configNtB6_11BatchConfig8from_envs4_0Ba_
FNDA:0,_RNCNvMs_NtNtCs1yu0zy1SNdm_13self_sensored6config12batch_configNtB6_11BatchConfig8from_envs5_0Ba_
FNDA:0,_RNCNvMs_NtNtCs1yu0zy1SNdm_13self_sensored6config12batch_configNtB6_11BatchConfig8from_envs6_0Ba_
FNDA:0,_RNCNvMs_NtNtCs1yu0zy1SNdm_13self_sensored6config12batch_configNtB6_11BatchConfig8from_envs7_0Ba_
FNDA:0,_RNCNvMs_NtNtCs1yu0zy1SNdm_13self_sensored6config12batch_configNtB6_11BatchConfig8from_envs8_0Ba_
FNDA:0,_RNCNvMs_NtNtCs1yu0zy1SNdm_13self_sensored6config12batch_configNtB6_11BatchConfig8from_envs9_0Ba_
FNDA:0,_RNCNvMs_NtNtCs1yu0zy1SNdm_13self_sensored6config12batch_configNtB6_11BatchConfig8from_envs_0Ba_
FNDA:0,_RNCNvMs_NtNtCs1yu0zy1SNdm_13self_sensored6config12batch_configNtB6_11BatchConfig8from_envsa_0Ba_
FNDA:0,_RNCNvMs_NtNtCs1yu0zy1SNdm_13self_sensored6config12batch_configNtB6_11BatchConfig8from_envsb_0Ba_
FNDA:0,_RNCNvMs_NtNtCs1yu0zy1SNdm_13self_sensored6config12batch_configNtB6_11BatchConfig8from_envsc_0Ba_
FNDA:0,_RNCNvMs_NtNtCs1yu0zy1SNdm_13self_sensored6config12batch_configNtB6_11BatchConfig8from_envsd_0Ba_
FNDA:0,_RNCNvMs_NtNtCs1yu0zy1SNdm_13self_sensored6config12batch_configNtB6_11BatchConfig8from_envse_0Ba_
FNDA:0,_RNCNvMs_NtNtCs1yu0zy1SNdm_13self_sensored6config12batch_configNtB6_11BatchConfig8from_envsf_0Ba_
FNDA:0,_RNCNvMs_NtNtCs1yu0zy1SNdm_13self_sensored6config12batch_configNtB6_11BatchConfig8from_envsg_0Ba_
FNDA:0,_RNCNvMs_NtNtCs1yu0zy1SNdm_13self_sensored6config12batch_configNtB6_11BatchConfig8from_envsh_0Ba_
FNDA:0,_RNCNvMs_NtNtCs1yu0zy1SNdm_13self_sensored6config12batch_configNtB6_11BatchConfig8from_envsi_0Ba_
FNDA:0,_RNCNvMs_NtNtCs1yu0zy1SNdm_13self_sensored6config12batch_configNtB6_11BatchConfig8from_envsj_0Ba_
FNDA:0,_RNCNvMs_NtNtCs1yu0zy1SNdm_13self_sensored6config12batch_configNtB6_11BatchConfig8from_envsk_0Ba_
FNDA:0,_RNCNvMs_NtNtCs1yu0zy1SNdm_13self_sensored6config12batch_configNtB6_11BatchConfig8from_envsl_0Ba_
FNDA:0,_RNCNvMs_NtNtCs1yu0zy1SNdm_13self_sensored6config12batch_configNtB6_11BatchConfig8from_envsm_0Ba_
FNDA:0,_RNCNvMs_NtNtCs1yu0zy1SNdm_13self_sensored6config12batch_configNtB6_11BatchConfig8from_envsn_0Ba_
FNDA:0,_RNCNvMs_NtNtCs1yu0zy1SNdm_13self_sensored6config12batch_configNtB6_11BatchConfig8from_envso_0Ba_
FNDA:0,_RNCNvMs_NtNtCs1yu0zy1SNdm_13self_sensored6config12batch_configNtB6_11BatchConfig8from_envsp_0Ba_
FNDA:0,_RNCNvMs_NtNtCs1yu0zy1SNdm_13self_sensored6config12batch_configNtB6_11BatchConfig8from_envsq_0Ba_
FNDA:0,_RNCNvMs_NtNtCs1yu0zy1SNdm_13self_sensored6config12batch_configNtB6_11BatchConfig8from_envsr_0Ba_
FNDA:0,_RNCNvMs_NtNtCs1yu0zy1SNdm_13self_sensored6config12batch_configNtB6_11BatchConfig8from_envss_0Ba_
FNDA:1,_RNvNtNtNtCs1yu0zy1SNdm_13self_sensored6config12batch_config5testss_26test_performance_benchmark
FNDA:1,_RNvNtNtNtCs1yu0zy1SNdm_13self_sensored6config12batch_config5testss_28test_chunk_size_calculations
FNDA:1,_RNvNtNtNtCs1yu0zy1SNdm_13self_sensored6config12batch_config5testss_35test_environment_variable_overrides
FNDA:1,_RNvNtNtNtCs1yu0zy1SNdm_13self_sensored6config12batch_config5testss_35test_optimized_chunk_sizes_are_safe
FNF:39
FNH:9
DA:83,3
DA:84,3
DA:85,3
DA:86,3
DA:87,3
DA:88,3
DA:89,3
DA:90,3
DA:91,3
DA:92,3
DA:93,3
DA:94,3
DA:95,3
DA:96,3
DA:97,3
DA:98,3
DA:99,3
DA:100,3
DA:101,3
DA:102,3
DA:103,3
DA:104,3
DA:105,3
DA:106,3
DA:107,3
DA:108,3
DA:109,3
DA:110,3
DA:111,3
DA:112,3
DA:113,3
DA:114,3
DA:115,3
DA:116,3
DA:117,3
DA:118,3
DA:119,3
DA:120,3
DA:121,3
DA:122,3
DA:123,3
DA:124,3
DA:125,3
DA:126,3
DA:127,3
DA:132,1
DA:134,1
DA:135,1
DA:136,1
DA:137,1
DA:138,1
DA:139,1
DA:140,1
DA:141,1
DA:142,1
DA:143,1
DA:144,1
DA:145,1
DA:146,1
DA:147,1
DA:148,1
DA:149,1
DA:150,1
DA:151,1
DA:152,1
DA:153,1
DA:154,1
DA:155,1
DA:156,1
DA:157,1
DA:159,1
DA:160,1
DA:161,1
DA:162,1
DA:163,1
DA:164,1
DA:165,1
DA:166,1
DA:167,1
DA:168,1
DA:169,1
DA:170,1
DA:171,1
DA:172,1
DA:173,1
DA:174,1
DA:175,1
DA:176,1
DA:177,1
DA:178,1
DA:179,1
DA:180,1
DA:181,1
DA:182,1
DA:183,1
DA:184,1
DA:185,1
DA:186,1
DA:187,1
DA:188,1
DA:189,1
DA:190,1
DA:191,1
DA:192,1
DA:193,1
DA:194,1
DA:195,1
DA:196,1
DA:197,1
DA:198,1
DA:199,1
DA:200,1
DA:201,1
DA:202,1
DA:205,1
DA:206,1
DA:207,1
DA:208,1
DA:209,1
DA:210,1
DA:211,1
DA:212,1
DA:215,1
DA:216,1
DA:217,1
DA:218,1
DA:219,1
DA:220,1
DA:221,1
DA:222,1
DA:225,1
DA:226,1
DA:227,1
DA:228,1
DA:229,1
DA:230,1
DA:231,1
DA:232,1
DA:233,1
DA:234,1
DA:235,1
DA:236,1
DA:237,1
DA:238,1
DA:239,1
DA:240,1
DA:241,1
DA:242,1
DA:243,1
DA:244,1
DA:246,1
DA:247,1
DA:248,1
DA:249,1
DA:250,1
DA:251,1
DA:252,1
DA:253,1
DA:254,1
DA:255,1
DA:256,1
DA:257,1
DA:260,1
DA:261,1
DA:262,1
DA:263,1
DA:264,1
DA:265,1
DA:266,1
DA:267,1
DA:269,1
DA:276,2
DA:277,2
DA:278,2
DA:279,2
DA:280,2
DA:281,2
DA:282,2
DA:283,2
DA:284,2
DA:285,2
DA:286,2
DA:287,2
DA:288,2
DA:289,2
DA:290,2
DA:291,2
DA:292,2
DA:293,2
DA:294,2
DA:295,2
DA:296,2
DA:297,2
DA:298,2
DA:299,2
DA:300,2
DA:301,2
DA:302,2
DA:303,2
DA:304,2
DA:305,2
DA:306,2
DA:307,2
DA:308,2
DA:309,2
DA:310,2
DA:311,2
DA:312,2
DA:313,2
DA:314,2
DA:315,2
DA:316,2
DA:317,2
DA:318,2
DA:319,2
DA:320,2
DA:321,2
DA:322,2
DA:323,2
DA:324,2
DA:325,2
DA:326,2
DA:327,2
DA:328,2
DA:330,2
DA:331,2
DA:332,2
DA:333,2
DA:334,2
DA:335,2
DA:336,2
DA:337,2
DA:338,2
DA:339,2
DA:341,2
DA:342,2
DA:343,2
DA:344,2
DA:345,2
DA:346,2
DA:347,2
DA:348,2
DA:349,2
DA:350,2
DA:352,2
DA:353,2
DA:354,2
DA:355,2
DA:356,2
DA:357,2
DA:358,2
DA:359,2
DA:360,2
DA:361,2
DA:362,2
DA:363,2
DA:364,2
DA:365,2
DA:366,2
DA:367,2
DA:368,2
DA:369,2
DA:370,2
DA:371,2
DA:372,2
DA:373,2
DA:374,2
DA:375,2
DA:376,2
DA:379,2
DA:380,2
DA:381,2
DA:383,42
DA:384,40
DA:385,40
DA:386,40
DA:389,40
DA:390,0
DA:391,0
DA:392,0
DA:393,0
DA:394,0
DA:395,0
DA:396,0
DA:397,0
DA:399,40
DA:400,40
DA:401,40
DA:402,40
DA:403,40
DA:404,40
DA:406,0
DA:407,0
DA:408,0
DA:409,0
DA:410,0
DA:411,0
DA:412,0
DA:413,0
DA:414,0
DA:415,0
DA:419,2
DA:420,0
DA:421,0
DA:422,0
DA:423,0
DA:424,0
DA:425,2
DA:427,2
DA:428,2
DA:429,42
DA:430,40
DA:431,40
DA:432,2
DA:433,0
DA:435,2
DA:436,0
DA:437,0
DA:438,0
DA:439,0
DA:440,0
DA:441,2
DA:443,2
DA:444,2
DA:445,2
DA:451,1
DA:452,1
DA:453,1
DA:454,1
DA:455,1
DA:456,1
DA:457,1
DA:458,1
DA:459,1
DA:460,1
DA:461,1
DA:462,1
DA:463,1
DA:464,1
DA:465,1
DA:466,1
DA:467,1
DA:468,1
DA:469,1
DA:470,1
DA:471,1
DA:472,1
DA:473,1
DA:474,1
DA:475,1
DA:476,1
DA:477,1
DA:478,1
DA:479,1
DA:480,1
DA:481,1
DA:482,1
DA:483,1
DA:484,1
DA:485,1
DA:486,1
DA:487,1
DA:488,1
DA:489,1
DA:490,1
DA:491,1
DA:492,1
DA:493,1
DA:494,1
DA:497,1
DA:498,1
DA:499,1
DA:501,1
DA:502,1
DA:505,1
DA:507,1
DA:508,1
DA:509,1
DA:511,8
DA:512,7
DA:513,7
DA:514,7
DA:516,7
DA:517,4
DA:518,4
DA:519,4
DA:520,4
DA:521,3
DA:522,3
DA:523,3
DA:525,0
DA:528,7
DA:529,3
DA:531,4
DA:534,7
DA:535,7
DA:537,0
DA:540,7
DA:541,7
DA:542,7
DA:543,7
DA:545,7
DA:546,4
DA:547,4
DA:548,4
DA:549,4
DA:550,4
DA:553,1
DA:554,1
DA:555,1
DA:556,1
DA:557,1
DA:558,1
DA:559,1
DA:560,1
DA:561,1
DA:562,1
DA:563,1
DA:564,1
DA:565,1
DA:567,1
DA:568,8
DA:569,7
DA:570,7
DA:571,7
DA:572,7
DA:573,7
DA:574,7
DA:575,7
DA:576,7
DA:577,7
DA:579,1
DA:580,1
DA:582,1
DA:584,0
DA:587,1
DA:588,1
DA:589,1
DA:590,1
DA:591,1
DA:592,1
DA:593,1
DA:594,1
DA:595,1
DA:596,1
DA:597,1
DA:598,1
DA:600,1
DA:601,1
DA:609,1
DA:610,1
DA:611,1
DA:612,1
DA:613,1
DA:614,1
DA:617,1
DA:618,1
DA:621,1
DA:622,1
DA:623,1
DA:624,1
DA:625,1
DA:626,1
DA:627,1
DA:628,1
DA:629,1
DA:630,1
DA:631,1
DA:632,1
DA:633,1
DA:634,1
DA:635,1
DA:636,1
DA:637,1
DA:638,1
DA:639,1
DA:640,1
DA:641,1
DA:642,1
DA:643,1
DA:644,1
DA:645,1
DA:646,1
DA:647,1
DA:648,1
DA:649,1
DA:650,1
DA:651,1
DA:652,1
DA:655,8
DA:656,7
DA:657,7
DA:658,7
DA:659,0
DA:667,1
DA:670,1
DA:671,1
DA:672,1
DA:675,1
DA:676,1
DA:677,1
DA:678,1
DA:679,1
DA:682,1
DA:684,1
DA:685,1
DA:686,1
DA:687,1
DA:688,1
BRF:0
BRH:0
LF:540
LH:477
end_of_record
SF:/mnt/datadrive_m2/self-sensored/src/config/log_queries.rs
FN:375,_RNvNtNtNtCs1yu0zy1SNdm_13self_sensored6config11log_queries5testss_21test_alert_conditions
FN:357,_RNvNtNtNtCs1yu0zy1SNdm_13self_sensored6config11log_queries5testss_21test_query_generation
FN:382,_RNvNtNtNtCs1yu0zy1SNdm_13self_sensored6config11log_queries5testss_22test_debugging_queries
FN:201,_RNvMNtNtCs1yu0zy1SNdm_13self_sensored6config11log_queriesNtB2_10LogQueries12loki_queries
FN:245,_RNvMNtNtCs1yu0zy1SNdm_13self_sensored6config11log_queriesNtB2_10LogQueries14splunk_queries
FN:77,_RNvMNtNtCs1yu0zy1SNdm_13self_sensored6config11log_queriesNtB2_10LogQueries15datadog_queries
FN:16,_RNvMNtNtCs1yu0zy1SNdm_13self_sensored6config11log_queriesNtB2_10LogQueries18cloudwatch_queries
FN:113,_RNvMNtNtCs1yu0zy1SNdm_13self_sensored6config11log_queriesNtB2_10LogQueries21elasticsearch_queries
FN:286,_RNvMs_NtNtCs1yu0zy1SNdm_13self_sensored6config11log_queriesNtB4_11LogAnalysis16alert_conditions
FN:317,_RNvMs_NtNtCs1yu0zy1SNdm_13self_sensored6config11log_queriesNtB4_11LogAnalysis17debugging_queries
FNDA:1,_RNvNtNtNtCs1yu0zy1SNdm_13self_sensored6config11log_queries5testss_21test_alert_conditions
FNDA:1,_RNvNtNtNtCs1yu0zy1SNdm_13self_sensored6config11log_queries5testss_21test_query_generation
FNDA:1,_RNvNtNtNtCs1yu0zy1SNdm_13self_sensored6config11log_queries5testss_22test_debugging_queries
FNDA:1,_RNvMNtNtCs1yu0zy1SNdm_13self_sensored6config11log_queriesNtB2_10LogQueries12loki_queries
FNDA:1,_RNvMNtNtCs1yu0zy1SNdm_13self_sensored6config11log_queriesNtB2_10LogQueries14splunk_queries
FNDA:1,_RNvMNtNtCs1yu0zy1SNdm_13self_sensored6config11log_queriesNtB2_10LogQueries15datadog_queries
FNDA:1,_RNvMNtNtCs1yu0zy1SNdm_13self_sensored6config11log_queriesNtB2_10LogQueries18cloudwatch_queries
FNDA:1,_RNvMNtNtCs1yu0zy1SNdm_13self_sensored6config11log_queriesNtB2_10LogQueries21elasticsearch_queries
FNDA:1,_RNvMs_NtNtCs1yu0zy1SNdm_13self_sensored6config11log_queriesNtB4_11LogAnalysis16alert_conditions
FNDA:1,_RNvMs_NtNtCs1yu0zy1SNdm_13self_sensored6config11log_queriesNtB4_11LogAnalysis17debugging_queries
FNF:10
FNH:10
DA:16,1
DA:17,1
DA:18,1
DA:19,1
DA:20,1
DA:21,1
DA:22,1
DA:23,1
DA:24,1
DA:25,1
DA:26,1
DA:27,1
DA:28,1
DA:29,1
DA:30,1
DA:31,1
DA:32,1
DA:33,1
DA:34,1
DA:35,1
DA:36,1
DA:37,1
DA:38,1
DA:39,1
DA:40,1
DA:41,1
DA:42,1
DA:43,1
DA:44,1
DA:45,1
DA:46,1
DA:47,1
DA:48,1
DA:49,1
DA:50,1
DA:51,1
DA:52,1
DA:53,1
DA:54,1
DA:55,1
DA:56,1
DA:57,1
DA:58,1
DA:59,1
DA:60,1
DA:61,1
DA:62,1
DA:63,1
DA:64,1
DA:65,1
DA:66,1
DA:67,1
DA:68,1
DA:69,1
DA:70,1
DA:71,1
DA:72,1
DA:74,1
DA:77,1
DA:78,1
DA:79,1
DA:80,1
DA:81,1
DA:82,1
DA:83,1
DA:84,1
DA:85,1
DA:86,1
DA:87,1
DA:88,1
DA:89,1
DA:90,1
DA:91,1
DA:92,1
DA:93,1
DA:94,1
DA:95,1
DA:96,1
DA:97,1
DA:98,1
DA:99,1
DA:100,1
DA:101,1
DA:102,1
DA:103,1
DA:104,1
DA:105,1
DA:106,1
DA:107,1
DA:108,1
DA:110,1
DA:113,1
DA:114,1
DA:115,1
DA:116,1
DA:117,1
DA:118,1
DA:119,1
DA:120,1
DA:121,1
DA:122,1
DA:123,1
DA:124,1
DA:125,1
DA:126,1
DA:127,1
DA:128,1
DA:129,1
DA:130,1
DA:131,1
DA:132,1
DA:133,1
DA:134,1
DA:135,1
DA:136,1
DA:137,1
DA:138,1
DA:139,1
DA:140,1
DA:141,1
DA:142,1
DA:143,1
DA:144,1
DA:145,1
DA:146,1
DA:147,1
DA:148,1
DA:149,1
DA:150,1
DA:151,1
DA:152,1
DA:153,1
DA:154,1
DA:155,1
DA:156,1
DA:157,1
DA:158,1
DA:159,1
DA:160,1
DA:161,1
DA:162,1
DA:163,1
DA:164,1
DA:165,1
DA:166,1
DA:167,1
DA:168,1
DA:169,1
DA:170,1
DA:171,1
DA:172,1
DA:173,1
DA:174,1
DA:175,1
DA:176,1
DA:177,1
DA:178,1
DA:179,1
DA:180,1
DA:181,1
DA:182,1
DA:183,1
DA:184,1
DA:185,1
DA:186,1
DA:187,1
DA:188,1
DA:189,1
DA:190,1
DA:191,1
DA:192,1
DA:193,1
DA:194,1
DA:195,1
DA:196,1
DA:198,1
DA:201,1
DA:202,1
DA:203,1
DA:204,1
DA:205,1
DA:206,1
DA:207,1
DA:208,1
DA:209,1
DA:210,1
DA:211,1
DA:212,1
DA:213,1
DA:214,1
DA:215,1
DA:216,1
DA:217,1
DA:218,1
DA:219,1
DA:220,1
DA:221,1
DA:222,1
DA:223,1
DA:224,1
DA:225,1
DA:226,1
DA:227,1
DA:228,1
DA:229,1
DA:230,1
DA:231,1
DA:232,1
DA:233,1
DA:234,1
DA:235,1
DA:236,1
DA:237,1
DA:238,1
DA:239,1
DA:240,1
DA:242,1
DA:245,1
DA:246,1
DA:247,1
DA:248,1
DA:249,1
DA:250,1
DA:251,1
DA:252,1
DA:253,1
DA:254,1
DA:255,1
DA:256,1
DA:257,1
DA:258,1
DA:259,1
DA:260,1
DA:261,1
DA:262,1
DA:263,1
DA:264,1
DA:265,1
DA:266,1
DA:267,1
DA:268,1
DA:269,1
DA:270,1
DA:271,1
DA:272,1
DA:273,1
DA:274,1
DA:275,1
DA:276,1
DA:278,1
DA:286,1
DA:287,1
DA:288,1
DA:289,1
DA:290,1
DA:291,1
DA:292,1
DA:293,1
DA:294,1
DA:295,1
DA:296,1
DA:297,1
DA:298,1
DA:299,1
DA:300,1
DA:301,1
DA:302,1
DA:303,1
DA:304,1
DA:305,1
DA:306,1
DA:307,1
DA:308,1
DA:309,1
DA:310,1
DA:311,1
DA:312,1
DA:314,1
DA:317,1
DA:318,1
DA:319,1
DA:320,1
DA:321,1
DA:322,1
DA:323,1
DA:324,1
DA:325,1
DA:326,1
DA:327,1
DA:328,1
DA:329,1
DA:330,1
DA:331,1
DA:332,1
DA:333,1
DA:334,1
DA:335,1
DA:336,1
DA:337,1
DA:338,1
DA:339,1
DA:340,1
DA:341,1
DA:342,1
DA:343,1
DA:344,1
DA:345,1
DA:346,1
DA:347,1
DA:349,1
DA:357,1
DA:358,1
DA:359,1
DA:361,1
DA:362,1
DA:364,1
DA:365,1
DA:367,1
DA:368,1
DA:370,1
DA:371,1
DA:372,1
DA:375,1
DA:376,1
DA:377,1
DA:378,1
DA:379,1
DA:382,1
DA:383,1
DA:384,1
DA:385,1
DA:386,1
BRF:0
BRH:0
LF:332
LH:332
end_of_record
SF:/mnt/datadrive_m2/self-sensored/src/config/logging.rs
FN:344,_RNvNtNtNtCs1yu0zy1SNdm_13self_sensored6config7logging5testss_20test_parse_log_level
FN:364,_RNvNtNtNtCs1yu0zy1SNdm_13self_sensored6config7logging5testss_22test_log_level_manager
FN:376,_RNvNtNtNtCs1yu0zy1SNdm_13self_sensored6config7logging5testss_24test_log_context_builder
FN:354,_RNvNtNtNtCs1yu0zy1SNdm_13self_sensored6config7logging5testss_27test_logging_config_default
FN:257,_RNvMs0_NtNtCs1yu0zy1SNdm_13self_sensored6config7loggingNtB5_15LogLevelManager17get_current_level
FN:276,_RNvMs0_NtNtCs1yu0zy1SNdm_13self_sensored6config7loggingNtB5_15LogLevelManager21set_level_from_string
FN:251,_RNvMs0_NtNtCs1yu0zy1SNdm_13self_sensored6config7loggingNtB5_15LogLevelManager3new
FN:261,_RNvMs0_NtNtCs1yu0zy1SNdm_13self_sensored6config7loggingNtB5_15LogLevelManager9set_level
FN:310,_RNvMs1_NtNtCs1yu0zy1SNdm_13self_sensored6config7loggingNtB5_10LogContext12with_user_id
FN:305,_RNvMs1_NtNtCs1yu0zy1SNdm_13self_sensored6config7loggingNtB5_10LogContext15with_request_id
FN:294,_RNvMs1_NtNtCs1yu0zy1SNdm_13self_sensored6config7loggingNtB5_10LogContext3new
FN:231,_RNvNtNtCs1yu0zy1SNdm_13self_sensored6config7logging15parse_log_level
FN:35,_RNvXNtNtCs1yu0zy1SNdm_13self_sensored6config7loggingNtB2_13LoggingConfigNtNtCs1p5UDGgVI4d_4core7default7Default7default
FN:105,_RNCNvMs_NtNtCs1yu0zy1SNdm_13self_sensored6config7loggingNtB6_13LoggingConfig4init0Ba_
FN:56,_RNCNvMs_NtNtCs1yu0zy1SNdm_13self_sensored6config7loggingNtB6_13LoggingConfig8from_env0Ba_
FN:67,_RNCNvMs_NtNtCs1yu0zy1SNdm_13self_sensored6config7loggingNtB6_13LoggingConfig8from_envs0_0Ba_
FN:77,_RNCNvMs_NtNtCs1yu0zy1SNdm_13self_sensored6config7loggingNtB6_13LoggingConfig8from_envs1_0Ba_
FN:78,_RNCNvMs_NtNtCs1yu0zy1SNdm_13self_sensored6config7loggingNtB6_13LoggingConfig8from_envs2_0Ba_
FN:82,_RNCNvMs_NtNtCs1yu0zy1SNdm_13self_sensored6config7loggingNtB6_13LoggingConfig8from_envs3_0Ba_
FN:62,_RNCNvMs_NtNtCs1yu0zy1SNdm_13self_sensored6config7loggingNtB6_13LoggingConfig8from_envs_0Ba_
FN:315,_RNvMs1_NtNtCs1yu0zy1SNdm_13self_sensored6config7loggingNtB5_10LogContext15with_session_id
FN:216,_RNvMs_NtNtCs1yu0zy1SNdm_13self_sensored6config7loggingNtB4_13LoggingConfig16update_log_level
FN:99,_RNvMs_NtNtCs1yu0zy1SNdm_13self_sensored6config7loggingNtB4_13LoggingConfig4init
FN:52,_RNvMs_NtNtCs1yu0zy1SNdm_13self_sensored6config7loggingNtB4_13LoggingConfig8from_env
FNDA:1,_RNvNtNtNtCs1yu0zy1SNdm_13self_sensored6config7logging5testss_20test_parse_log_level
FNDA:1,_RNvNtNtNtCs1yu0zy1SNdm_13self_sensored6config7logging5testss_22test_log_level_manager
FNDA:1,_RNvNtNtNtCs1yu0zy1SNdm_13self_sensored6config7logging5testss_24test_log_context_builder
FNDA:1,_RNvNtNtNtCs1yu0zy1SNdm_13self_sensored6config7logging5testss_27test_logging_config_default
FNDA:3,_RNvMs0_NtNtCs1yu0zy1SNdm_13self_sensored6config7loggingNtB5_15LogLevelManager17get_current_level
FNDA:1,_RNvMs0_NtNtCs1yu0zy1SNdm_13self_sensored6config7loggingNtB5_15LogLevelManager21set_level_from_string
FNDA:1,_RNvMs0_NtNtCs1yu0zy1SNdm_13self_sensored6config7loggingNtB5_15LogLevelManager3new
FNDA:2,_RNvMs0_NtNtCs1yu0zy1SNdm_13self_sensored6config7loggingNtB5_15LogLevelManager9set_level
FNDA:1,_RNvMs1_NtNtCs1yu0zy1SNdm_13self_sensored6config7loggingNtB5_10LogContext12with_user_id
FNDA:1,_RNvMs1_NtNtCs1yu0zy1SNdm_13self_sensored6config7loggingNtB5_10LogContext15with_request_id
FNDA:1,_RNvMs1_NtNtCs1yu0zy1SNdm_13self_sensored6config7loggingNtB5_10LogContext3new
FNDA:7,_RNvNtNtCs1yu0zy1SNdm_13self_sensored6config7logging15parse_log_level
FNDA:1,_RNvXNtNtCs1yu0zy1SNdm_13self_sensored6config7loggingNtB2_13LoggingConfigNtNtCs1p5UDGgVI4d_4core7default7Default7default
FNDA:0,_RNCNvMs_NtNtCs1yu0zy1SNdm_13self_sensored6config7loggingNtB6_13LoggingConfig4init0Ba_
FNDA:0,_RNCNvMs_NtNtCs1yu0zy1SNdm_13self_sensored6config7loggingNtB6_13LoggingConfig8from_env0Ba_
FNDA:0,_RNCNvMs_NtNtCs1yu0zy1SNdm_13self_sensored6config7loggingNtB6_13LoggingConfig8from_envs0_0Ba_
FNDA:0,_RNCNvMs_NtNtCs1yu0zy1SNdm_13self_sensored6config7loggingNtB6_13LoggingConfig8from_envs1_0Ba_
FNDA:0,_RNCNvMs_NtNtCs1yu0zy1SNdm_13self_sensored6config7loggingNtB6_13LoggingConfig8from_envs2_0Ba_
FNDA:0,_RNCNvMs_NtNtCs1yu0zy1SNdm_13self_sensored6config7loggingNtB6_13LoggingConfig8from_envs3_0Ba_
FNDA:0,_RNCNvMs_NtNtCs1yu0zy1SNdm_13self_sensored6config7loggingNtB6_13LoggingConfig8from_envs_0Ba_
FNDA:0,_RNvMs1_NtNtCs1yu0zy1SNdm_13self_sensored6config7loggingNtB5_10LogContext15with_session_id
FNDA:0,_RNvMs_NtNtCs1yu0zy1SNdm_13self_sensored6config7loggingNtB4_13LoggingConfig16update_log_level
FNDA:0,_RNvMs_NtNtCs1yu0zy1SNdm_13self_sensored6config7loggingNtB4_13LoggingConfig4init
FNDA:0,_RNvMs_NtNtCs1yu0zy1SNdm_13self_sensored6config7loggingNtB4_13LoggingConfig8from_env
FNF:24
FNH:13
DA:35,1
DA:36,1
DA:37,1
DA:38,1
DA:39,1
DA:40,1
DA:41,1
DA:42,1
DA:43,1
DA:44,1
DA:45,1
DA:46,1
DA:47,1
DA:52,0
DA:53,0
DA:56,0
DA:57,0
DA:58,0
DA:61,0
DA:62,0
DA:63,0
DA:66,0
DA:67,0
DA:68,0
DA:71,0
DA:72,0
DA:73,0
DA:76,0
DA:77,0
DA:78,0
DA:81,0
DA:82,0
DA:83,0
DA:86,0
DA:87,0
DA:88,0
DA:91,0
DA:92,0
DA:93,0
DA:95,0
DA:96,0
DA:99,0
DA:101,0
DA:102,0
DA:103,0
DA:105,0
DA:107,0
DA:108,0
DA:109,0
DA:110,0
DA:113,0
DA:114,0
DA:117,0
DA:118,0
DA:119,0
DA:120,0
DA:121,0
DA:123,0
DA:124,0
DA:126,0
DA:129,0
DA:131,0
DA:132,0
DA:133,0
DA:134,0
DA:135,0
DA:136,0
DA:137,0
DA:138,0
DA:139,0
DA:140,0
DA:141,0
DA:142,0
DA:143,0
DA:145,0
DA:146,0
DA:147,0
DA:148,0
DA:149,0
DA:150,0
DA:151,0
DA:152,0
DA:153,0
DA:154,0
DA:155,0
DA:156,0
DA:157,0
DA:158,0
DA:159,0
DA:160,0
DA:161,0
DA:162,0
DA:163,0
DA:164,0
DA:165,0
DA:166,0
DA:167,0
DA:168,0
DA:169,0
DA:170,0
DA:171,0
DA:172,0
DA:173,0
DA:174,0
DA:175,0
DA:176,0
DA:177,0
DA:178,0
DA:179,0
DA:180,0
DA:181,0
DA:182,0
DA:183,0
DA:184,0
DA:185,0
DA:186,0
DA:187,0
DA:188,0
DA:189,0
DA:190,0
DA:191,0
DA:192,0
DA:193,0
DA:194,0
DA:195,0
DA:196,0
DA:197,0
DA:198,0
DA:199,0
DA:200,0
DA:201,0
DA:202,0
DA:203,0
DA:206,0
DA:212,0
DA:213,0
DA:216,0
DA:217,0
DA:218,0
DA:227,0
DA:231,7
DA:232,7
DA:233,7
DA:234,6
DA:235,5
DA:236,4
DA:237,3
DA:239,1
DA:240,1
DA:243,7
DA:251,1
DA:252,1
DA:253,1
DA:254,1
DA:255,1
DA:257,3
DA:258,3
DA:259,3
DA:261,2
DA:262,2
DA:263,2
DA:265,2
DA:269,0
DA:273,2
DA:274,2
DA:276,1
DA:277,1
DA:278,1
DA:279,1
DA:294,1
DA:295,1
DA:296,1
DA:297,1
DA:298,1
DA:299,1
DA:300,1
DA:301,1
DA:302,1
DA:303,1
DA:305,1
DA:306,1
DA:307,1
DA:308,1
DA:310,1
DA:311,1
DA:312,1
DA:313,1
DA:315,0
DA:316,0
DA:317,0
DA:318,0
DA:344,1
DA:345,1
DA:346,1
DA:347,1
DA:348,1
DA:349,1
DA:350,1
DA:351,1
DA:354,1
DA:355,1
DA:356,1
DA:357,1
DA:358,1
DA:359,1
DA:360,1
DA:361,1
DA:364,1
DA:365,1
DA:366,1
DA:368,1
DA:369,1
DA:371,1
DA:372,1
DA:373,1
DA:376,1
DA:377,1
DA:378,1
DA:379,1
DA:381,1
DA:382,1
DA:383,1
DA:384,1
DA:385,1
DA:386,1
DA:387,1
BRF:0
BRH:0
LF:233
LH:94
end_of_record
SF:/mnt/datadrive_m2/self-sensored/src/config/validation_config.rs
FN:204,_RNCNvMs_NtNtCs1yu0zy1SNdm_13self_sensored6config17validation_configNtB6_16ValidationConfig8from_env0Ba_
FN:214,_RNCNvMs_NtNtCs1yu0zy1SNdm_13self_sensored6config17validation_configNtB6_16ValidationConfig8from_envs0_0Ba_
FN:484,_RNCNvMs_NtNtCs1yu0zy1SNdm_13self_sensored6config17validation_configNtB6_16ValidationConfig8from_envs10_0Ba_
FN:488,_RNCNvMs_NtNtCs1yu0zy1SNdm_13self_sensored6config17validation_configNtB6_16ValidationConfig8from_envs11_0Ba_
FN:492,_RNCNvMs_NtNtCs1yu0zy1SNdm_13self_sensored6config17validation_configNtB6_16ValidationConfig8from_envs12_0Ba_
FN:496,_RNCNvMs_NtNtCs1yu0zy1SNdm_13self_sensored6config17validation_configNtB6_16ValidationConfig8from_envs13_0Ba_
FN:218,_RNCNvMs_NtNtCs1yu0zy1SNdm_13self_sensored6config17validation_configNtB6_16ValidationConfig8from_envs1_0Ba_
FN:222,_RNCNvMs_NtNtCs1yu0zy1SNdm_13self_sensored6config17validation_configNtB6_16ValidationConfig8from_envs2_0Ba_
FN:226,_RNCNvMs_NtNtCs1yu0zy1SNdm_13self_sensored6config17validation_configNtB6_16ValidationConfig8from_envs3_0Ba_
FN:232,_RNCNvMs_NtNtCs1yu0zy1SNdm_13self_sensored6config17validation_configNtB6_16ValidationConfig8from_envs4_0Ba_
FN:236,_RNCNvMs_NtNtCs1yu0zy1SNdm_13self_sensored6config17validation_configNtB6_16ValidationConfig8from_envs5_0Ba_
FN:242,_RNCNvMs_NtNtCs1yu0zy1SNdm_13self_sensored6config17validation_configNtB6_16ValidationConfig8from_envs6_0Ba_
FN:248,_RNCNvMs_NtNtCs1yu0zy1SNdm_13self_sensored6config17validation_configNtB6_16ValidationConfig8from_envs7_0Ba_
FN:252,_RNCNvMs_NtNtCs1yu0zy1SNdm_13self_sensored6config17validation_configNtB6_16ValidationConfig8from_envs8_0Ba_
FN:256,_RNCNvMs_NtNtCs1yu0zy1SNdm_13self_sensored6config17validation_configNtB6_16ValidationConfig8from_envs9_0Ba_
FN:374,_RNCNvMs_NtNtCs1yu0zy1SNdm_13self_sensored6config17validation_configNtB6_16ValidationConfig8from_envsA_0Ba_
FN:378,_RNCNvMs_NtNtCs1yu0zy1SNdm_13self_sensored6config17validation_configNtB6_16ValidationConfig8from_envsB_0Ba_
FN:382,_RNCNvMs_NtNtCs1yu0zy1SNdm_13self_sensored6config17validation_configNtB6_16ValidationConfig8from_envsC_0Ba_
FN:386,_RNCNvMs_NtNtCs1yu0zy1SNdm_13self_sensored6config17validation_configNtB6_16ValidationConfig8from_envsD_0Ba_
FN:390,_RNCNvMs_NtNtCs1yu0zy1SNdm_13self_sensored6config17validation_configNtB6_16ValidationConfig8from_envsE_0Ba_
FN:394,_RNCNvMs_NtNtCs1yu0zy1SNdm_13self_sensored6config17validation_configNtB6_16ValidationConfig8from_envsF_0Ba_
FN:400,_RNCNvMs_NtNtCs1yu0zy1SNdm_13self_sensored6config17validation_configNtB6_16ValidationConfig8from_envsG_0Ba_
FN:404,_RNCNvMs_NtNtCs1yu0zy1SNdm_13self_sensored6config17validation_configNtB6_16ValidationConfig8from_envsH_0Ba_
FN:408,_RNCNvMs_NtNtCs1yu0zy1SNdm_13self_sensored6config17validation_configNtB6_16ValidationConfig8from_envsI_0Ba_
FN:412,_RNCNvMs_NtNtCs1yu0zy1SNdm_13self_sensored6config17validation_configNtB6_16ValidationConfig8from_envsJ_0Ba_
FN:416,_RNCNvMs_NtNtCs1yu0zy1SNdm_13self_sensored6config17validation_configNtB6_16ValidationConfig8from_envsK_0Ba_
FN:420,_RNCNvMs_NtNtCs1yu0zy1SNdm_13self_sensored6config17validation_configNtB6_16ValidationConfig8from_envsL_0Ba_
FN:424,_RNCNvMs_NtNtCs1yu0zy1SNdm_13self_sensored6config17validation_configNtB6_16ValidationConfig8from_envsM_0Ba_
FN:428,_RNCNvMs_NtNtCs1yu0zy1SNdm_13self_sensored6config17validation_configNtB6_16ValidationConfig8from_envsN_0Ba_
FN:434,_RNCNvMs_NtNtCs1yu0zy1SNdm_13self_sensored6config17validation_configNtB6_16ValidationConfig8from_envsO_0Ba_
FN:438,_RNCNvMs_NtNtCs1yu0zy1SNdm_13self_sensored6config17validation_configNtB6_16ValidationConfig8from_envsP_0Ba_
FN:442,_RNCNvMs_NtNtCs1yu0zy1SNdm_13self_sensored6config17validation_configNtB6_16ValidationConfig8from_envsQ_0Ba_
FN:446,_RNCNvMs_NtNtCs1yu0zy1SNdm_13self_sensored6config17validation_configNtB6_16ValidationConfig8from_envsR_0Ba_
FN:450,_RNCNvMs_NtNtCs1yu0zy1SNdm_13self_sensored6config17validation_configNtB6_16ValidationConfig8from_envsS_0Ba_
FN:454,_RNCNvMs_NtNtCs1yu0zy1SNdm_13self_sensored6config17validation_configNtB6_16ValidationConfig8from_envsT_0Ba_
FN:458,_RNCNvMs_NtNtCs1yu0zy1SNdm_13self_sensored6config17validation_configNtB6_16ValidationConfig8from_envsU_0Ba_
FN:462,_RNCNvMs_NtNtCs1yu0zy1SNdm_13self_sensored6config17validation_configNtB6_16ValidationConfig8from_envsV_0Ba_
FN:468,_RNCNvMs_NtNtCs1yu0zy1SNdm_13self_sensored6config17validation_configNtB6_16ValidationConfig8from_envsW_0Ba_
FN:472,_RNCNvMs_NtNtCs1yu0zy1SNdm_13self_sensored6config17validation_configNtB6_16ValidationConfig8from_envsX_0Ba_
FN:476,_RNCNvMs_NtNtCs1yu0zy1SNdm_13self_sensored6config17validation_configNtB6_16ValidationConfig8from_envsY_0Ba_
FN:480,_RNCNvMs_NtNtCs1yu0zy1SNdm_13self_sensored6config17validation_configNtB6_16ValidationConfig8from_envsZ_0Ba_
FN:208,_RNCNvMs_NtNtCs1yu0zy1SNdm_13self_sensored6config17validation_configNtB6_16ValidationConfig8from_envs_0Ba_
FN:260,_RNCNvMs_NtNtCs1yu0zy1SNdm_13self_sensored6config17validation_configNtB6_16ValidationConfig8from_envsa_0Ba_
FN:266,_RNCNvMs_NtNtCs1yu0zy1SNdm_13self_sensored6config17validation_configNtB6_16ValidationConfig8from_envsb_0Ba_
FN:270,_RNCNvMs_NtNtCs1yu0zy1SNdm_13self_sensored6config17validation_configNtB6_16ValidationConfig8from_envsc_0Ba_
FN:274,_RNCNvMs_NtNtCs1yu0zy1SNdm_13self_sensored6config17validation_configNtB6_16ValidationConfig8from_envsd_0Ba_
FN:278,_RNCNvMs_NtNtCs1yu0zy1SNdm_13self_sensored6config17validation_configNtB6_16ValidationConfig8from_envse_0Ba_
FN:284,_RNCNvMs_NtNtCs1yu0zy1SNdm_13self_sensored6config17validation_configNtB6_16ValidationConfig8from_envsf_0Ba_
FN:288,_RNCNvMs_NtNtCs1yu0zy1SNdm_13self_sensored6config17validation_configNtB6_16ValidationConfig8from_envsg_0Ba_
FN:292,_RNCNvMs_NtNtCs1yu0zy1SNdm_13self_sensored6config17validation_configNtB6_16ValidationConfig8from_envsh_0Ba_
FN:298,_RNCNvMs_NtNtCs1yu0zy1SNdm_13self_sensored6config17validation_configNtB6_16ValidationConfig8from_envsi_0Ba_
FN:302,_RNCNvMs_NtNtCs1yu0zy1SNdm_13self_sensored6config17validation_configNtB6_16ValidationConfig8from_envsj_0Ba_
FN:306,_RNCNvMs_NtNtCs1yu0zy1SNdm_13self_sensored6config17validation_configNtB6_16ValidationConfig8from_envsk_0Ba_
FN:312,_RNCNvMs_NtNtCs1yu0zy1SNdm_13self_sensored6config17validation_configNtB6_16ValidationConfig8from_envsl_0Ba_
FN:316,_RNCNvMs_NtNtCs1yu0zy1SNdm_13self_sensored6config17validation_configNtB6_16ValidationConfig8from_envsm_0Ba_
FN:320,_RNCNvMs_NtNtCs1yu0zy1SNdm_13self_sensored6config17validation_configNtB6_16ValidationConfig8from_envsn_0Ba_
FN:324,_RNCNvMs_NtNtCs1yu0zy1SNdm_13self_sensored6config17validation_configNtB6_16ValidationConfig8from_envso_0Ba_
FN:328,_RNCNvMs_NtNtCs1yu0zy1SNdm_13self_sensored6config17validation_configNtB6_16ValidationConfig8from_envsp_0Ba_
FN:332,_RNCNvMs_NtNtCs1yu0zy1SNdm_13self_sensored6config17validation_configNtB6_16ValidationConfig8from_envsq_0Ba_
FN:336,_RNCNvMs_NtNtCs1yu0zy1SNdm_13self_sensored6config17validation_configNtB6_16ValidationConfig8from_envsr_0Ba_
FN:340,_RNCNvMs_NtNtCs1yu0zy1SNdm_13self_sensored6config17validation_configNtB6_16ValidationConfig8from_envss_0Ba_
FN:344,_RNCNvMs_NtNtCs1yu0zy1SNdm_13self_sensored6config17validation_configNtB6_16ValidationConfig8from_envst_0Ba_
FN:348,_RNCNvMs_NtNtCs1yu0zy1SNdm_13self_sensored6config17validation_configNtB6_16ValidationConfig8from_envsu_0Ba_
FN:352,_RNCNvMs_NtNtCs1yu0zy1SNdm_13self_sensored6config17validation_configNtB6_16ValidationConfig8from_envsv_0Ba_
FN:356,_RNCNvMs_NtNtCs1yu0zy1SNdm_13self_sensored6config17validation_configNtB6_16ValidationConfig8from_envsw_0Ba_
FN:362,_RNCNvMs_NtNtCs1yu0zy1SNdm_13self_sensored6config17validation_configNtB6_16ValidationConfig8from_envsx_0Ba_
FN:366,_RNCNvMs_NtNtCs1yu0zy1SNdm_13self_sensored6config17validation_configNtB6_16ValidationConfig8from_envsy_0Ba_
FN:370,_RNCNvMs_NtNtCs1yu0zy1SNdm_13self_sensored6config17validation_configNtB6_16ValidationConfig8from_envsz_0Ba_
FN:199,_RNvMs_NtNtCs1yu0zy1SNdm_13self_sensored6config17validation_configNtB4_16ValidationConfig8from_env
FN:502,_RNvMs_NtNtCs1yu0zy1SNdm_13self_sensored6config17validation_configNtB4_16ValidationConfig8validate
FN:100,_RNvXNtNtCs1yu0zy1SNdm_13self_sensored6config17validation_configNtB2_16ValidationConfigNtNtCs1p5UDGgVI4d_4core7default7Default7default
FNDA:0,_RNCNvMs_NtNtCs1yu0zy1SNdm_13self_sensored6config17validation_configNtB6_16ValidationConfig8from_env0Ba_
FNDA:0,_RNCNvMs_NtNtCs1yu0zy1SNdm_13self_sensored6config17validation_configNtB6_16ValidationConfig8from_envs0_0Ba_
FNDA:0,_RNCNvMs_NtNtCs1yu0zy1SNdm_13self_sensored6config17validation_configNtB6_16ValidationConfig8from_envs10_0Ba_
FNDA:0,_RNCNvMs_NtNtCs1yu0zy1SNdm_13self_sensored6config17validation_configNtB6_16ValidationConfig8from_envs11_0Ba_
FNDA:0,_RNCNvMs_NtNtCs1yu0zy1SNdm_13self_sensored6config17validation_configNtB6_16ValidationConfig8from_envs12_0Ba_
FNDA:0,_RNCNvMs_NtNtCs1yu0zy1SNdm_13self_sensored6config17validation_configNtB6_16ValidationConfig8from_envs13_0Ba_
FNDA:0,_RNCNvMs_NtNtCs1yu0zy1SNdm_13self_sensored6config17validation_configNtB6_16ValidationConfig8from_envs1_0Ba_
FNDA:0,_RNCNvMs_NtNtCs1yu0zy1SNdm_13self_sensored6config17validation_configNtB6_16ValidationConfig8from_envs2_0Ba_
FNDA:0,_RNCNvMs_NtNtCs1yu0zy1SNdm_13self_sensored6config17validation_configNtB6_16ValidationConfig8from_envs3_0Ba_
FNDA:0,_RNCNvMs_NtNtCs1yu0zy1SNdm_13self_sensored6config17validation_configNtB6_16ValidationConfig8from_envs4_0Ba_
FNDA:0,_RNCNvMs_NtNtCs1yu0zy1SNdm_13self_sensored6config17validation_configNtB6_16ValidationConfig8from_envs5_0Ba_
FNDA:0,_RNCNvMs_NtNtCs1yu0zy1SNdm_13self_sensored6config17validation_configNtB6_16ValidationConfig8from_envs6_0Ba_
FNDA:0,_RNCNvMs_NtNtCs1yu0zy1SNdm_13self_sensored6config17validation_configNtB6_16ValidationConfig8from_envs7_0Ba_
FNDA:0,_RNCNvMs_NtNtCs1yu0zy1SNdm_13self_sensored6config17validation_configNtB6_16ValidationConfig8from_envs8_0Ba_
FNDA:0,_RNCNvMs_NtNtCs1yu0zy1SNdm_13self_sensored6config17validation_configNtB6_16ValidationConfig8from_envs9_0Ba_
FNDA:0,_RNCNvMs_NtNtCs1yu0zy1SNdm_13self_sensored6config17validation_configNtB6_16ValidationConfig8from_envsA_0Ba_
FNDA:0,_RNCNvMs_NtNtCs1yu0zy1SNdm_13self_sensored6config17validation_configNtB6_16ValidationConfig8from_envsB_0Ba_
FNDA:0,_RNCNvMs_NtNtCs1yu0zy1SNdm_13self_sensored6config17validation_configNtB6_16ValidationConfig8from_envsC_0Ba_
FNDA:0,_RNCNvMs_NtNtCs1yu0zy1SNdm_13self_sensored6config17validation_configNtB6_16ValidationConfig8from_envsD_0Ba_
FNDA:0,_RNCNvMs_NtNtCs1yu0zy1SNdm_13self_sensored6config17validation_configNtB6_16ValidationConfig8from_envsE_0Ba_
FNDA:0,_RNCNvMs_NtNtCs1yu0zy1SNdm_13self_sensored6config17validation_configNtB6_16ValidationConfig8from_envsF_0Ba_
FNDA:0,_RNCNvMs_NtNtCs1yu0zy1SNdm_13self_sensored6config17validation_configNtB6_16ValidationConfig8from_envsG_0Ba_
FNDA:0,_RNCNvMs_NtNtCs1yu0zy1SNdm_13self_sensored6config17validation_configNtB6_16ValidationConfig8from_envsH_0Ba_
FNDA:0,_RNCNvMs_NtNtCs1yu0zy1SNdm_13self_sensored6config17validation_configNtB6_16ValidationConfig8from_envsI_0Ba_
FNDA:0,_RNCNvMs_NtNtCs1yu0zy1SNdm_13self_sensored6config17validation_configNtB6_16ValidationConfig8from_envsJ_0Ba_
FNDA:0,_RNCNvMs_NtNtCs1yu0zy1SNdm_13self_sensored6config17validation_configNtB6_16ValidationConfig8from_envsK_0Ba_
FNDA:0,_RNCNvMs_NtNtCs1yu0zy1SNdm_13self_sensored6config17validation_configNtB6_16ValidationConfig8from_envsL_0Ba_
FNDA:0,_RNCNvMs_NtNtCs1yu0zy1SNdm_13self_sensored6config17validation_configNtB6_16ValidationConfig8from_envsM_0Ba_
FNDA:0,_RNCNvMs_NtNtCs1yu0zy1SNdm_13self_sensored6config17validation_configNtB6_16ValidationConfig8from_envsN_0Ba_
FNDA:0,_RNCNvMs_NtNtCs1yu0zy1SNdm_13self_sensored6config17validation_configNtB6_16ValidationConfig8from_envsO_0Ba_
FNDA:0,_RNCNvMs_NtNtCs1yu0zy1SNdm_13self_sensored6config17validation_configNtB6_16ValidationConfig8from_envsP_0Ba_
FNDA:0,_RNCNvMs_NtNtCs1yu0zy1SNdm_13self_sensored6config17validation_configNtB6_16ValidationConfig8from_envsQ_0Ba_
FNDA:0,_RNCNvMs_NtNtCs1yu0zy1SNdm_13self_sensored6config17validation_configNtB6_16ValidationConfig8from_envsR_0Ba_
FNDA:0,_RNCNvMs_NtNtCs1yu0zy1SNdm_13self_sensored6config17validation_configNtB6_16ValidationConfig8from_envsS_0Ba_
FNDA:0,_RNCNvMs_NtNtCs1yu0zy1SNdm_13self_sensored6config17validation_configNtB6_16ValidationConfig8from_envsT_0Ba_
FNDA:0,_RNCNvMs_NtNtCs1yu0zy1SNdm_13self_sensored6config17validation_configNtB6_16ValidationConfig8from_envsU_0Ba_
FNDA:0,_RNCNvMs_NtNtCs1yu0zy1SNdm_13self_sensored6config17validation_configNtB6_16ValidationConfig8from_envsV_0Ba_
FNDA:0,_RNCNvMs_NtNtCs1yu0zy1SNdm_13self_sensored6config17validation_configNtB6_16ValidationConfig8from_envsW_0Ba_
FNDA:0,_RNCNvMs_NtNtCs1yu0zy1SNdm_13self_sensored6config17validation_configNtB6_16ValidationConfig8from_envsX_0Ba_
FNDA:0,_RNCNvMs_NtNtCs1yu0zy1SNdm_13self_sensored6config17validation_configNtB6_16ValidationConfig8from_envsY_0Ba_
FNDA:0,_RNCNvMs_NtNtCs1yu0zy1SNdm_13self_sensored6config17validation_configNtB6_16ValidationConfig8from_envsZ_0Ba_
FNDA:0,_RNCNvMs_NtNtCs1yu0zy1SNdm_13self_sensored6config17validation_configNtB6_16ValidationConfig8from_envs_0Ba_
FNDA:0,_RNCNvMs_NtNtCs1yu0zy1SNdm_13self_sensored6config17validation_configNtB6_16ValidationConfig8from_envsa_0Ba_
FNDA:0,_RNCNvMs_NtNtCs1yu0zy1SNdm_13self_sensored6config17validation_configNtB6_16ValidationConfig8from_envsb_0Ba_
FNDA:0,_RNCNvMs_NtNtCs1yu0zy1SNdm_13self_sensored6config17validation_configNtB6_16ValidationConfig8from_envsc_0Ba_
FNDA:0,_RNCNvMs_NtNtCs1yu0zy1SNdm_13self_sensored6config17validation_configNtB6_16ValidationConfig8from_envsd_0Ba_
FNDA:0,_RNCNvMs_NtNtCs1yu0zy1SNdm_13self_sensored6config17validation_configNtB6_16ValidationConfig8from_envse_0Ba_
FNDA:0,_RNCNvMs_NtNtCs1yu0zy1SNdm_13self_sensored6config17validation_configNtB6_16ValidationConfig8from_envsf_0Ba_
FNDA:0,_RNCNvMs_NtNtCs1yu0zy1SNdm_13self_sensored6config17validation_configNtB6_16ValidationConfig8from_envsg_0Ba_
FNDA:0,_RNCNvMs_NtNtCs1yu0zy1SNdm_13self_sensored6config17validation_configNtB6_16ValidationConfig8from_envsh_0Ba_
FNDA:0,_RNCNvMs_NtNtCs1yu0zy1SNdm_13self_sensored6config17validation_configNtB6_16ValidationConfig8from_envsi_0Ba_
FNDA:0,_RNCNvMs_NtNtCs1yu0zy1SNdm_13self_sensored6config17validation_configNtB6_16ValidationConfig8from_envsj_0Ba_
FNDA:0,_RNCNvMs_NtNtCs1yu0zy1SNdm_13self_sensored6config17validation_configNtB6_16ValidationConfig8from_envsk_0Ba_
FNDA:0,_RNCNvMs_NtNtCs1yu0zy1SNdm_13self_sensored6config17validation_configNtB6_16ValidationConfig8from_envsl_0Ba_
FNDA:0,_RNCNvMs_NtNtCs1yu0zy1SNdm_13self_sensored6config17validation_configNtB6_16ValidationConfig8from_envsm_0Ba_
FNDA:0,_RNCNvMs_NtNtCs1yu0zy1SNdm_13self_sensored6config17validation_configNtB6_16ValidationConfig8from_envsn_0Ba_
FNDA:0,_RNCNvMs_NtNtCs1yu0zy1SNdm_13self_sensored6config17validation_configNtB6_16ValidationConfig8from_envso_0Ba_
FNDA:0,_RNCNvMs_NtNtCs1yu0zy1SNdm_13self_sensored6config17validation_configNtB6_16ValidationConfig8from_envsp_0Ba_
FNDA:0,_RNCNvMs_NtNtCs1yu0zy1SNdm_13self_sensored6config17validation_configNtB6_16ValidationConfig8from_envsq_0Ba_
FNDA:0,_RNCNvMs_NtNtCs1yu0zy1SNdm_13self_sensored6config17validation_configNtB6_16ValidationConfig8from_envsr_0Ba_
FNDA:0,_RNCNvMs_NtNtCs1yu0zy1SNdm_13self_sensored6config17validation_configNtB6_16ValidationConfig8from_envss_0Ba_
FNDA:0,_RNCNvMs_NtNtCs1yu0zy1SNdm_13self_sensored6config17validation_configNtB6_16ValidationConfig8from_envst_0Ba_
FNDA:0,_RNCNvMs_NtNtCs1yu0zy1SNdm_13self_sensored6config17validation_configNtB6_16ValidationConfig8from_envsu_0Ba_
FNDA:0,_RNCNvMs_NtNtCs1yu0zy1SNdm_13self_sensored6config17validation_configNtB6_16ValidationConfig8from_envsv_0Ba_
FNDA:0,_RNCNvMs_NtNtCs1yu0zy1SNdm_13self_sensored6config17validation_configNtB6_16ValidationConfig8from_envsw_0Ba_
FNDA:0,_RNCNvMs_NtNtCs1yu0zy1SNdm_13self_sensored6config17validation_configNtB6_16ValidationConfig8from_envsx_0Ba_
FNDA:0,_RNCNvMs_NtNtCs1yu0zy1SNdm_13self_sensored6config17validation_configNtB6_16ValidationConfig8from_envsy_0Ba_
FNDA:0,_RNCNvMs_NtNtCs1yu0zy1SNdm_13self_sensored6config17validation_configNtB6_16ValidationConfig8from_envsz_0Ba_
FNDA:0,_RNvMs_NtNtCs1yu0zy1SNdm_13self_sensored6config17validation_configNtB4_16ValidationConfig8from_env
FNDA:0,_RNvMs_NtNtCs1yu0zy1SNdm_13self_sensored6config17validation_configNtB4_16ValidationConfig8validate
FNDA:0,_RNvXNtNtCs1yu0zy1SNdm_13self_sensored6config17validation_configNtB2_16ValidationConfigNtNtCs1p5UDGgVI4d_4core7default7Default7default
FNF:71
FNH:0
DA:100,0
DA:101,0
DA:102,0
DA:103,0
DA:104,0
DA:105,0
DA:106,0
DA:107,0
DA:108,0
DA:109,0
DA:110,0
DA:111,0
DA:112,0
DA:113,0
DA:114,0
DA:115,0
DA:116,0
DA:117,0
DA:118,0
DA:119,0
DA:120,0
DA:121,0
DA:122,0
DA:123,0
DA:124,0
DA:125,0
DA:126,0
DA:127,0
DA:128,0
DA:129,0
DA:130,0
DA:131,0
DA:132,0
DA:133,0
DA:134,0
DA:135,0
DA:136,0
DA:137,0
DA:138,0
DA:139,0
DA:140,0
DA:141,0
DA:142,0
DA:143,0
DA:144,0
DA:145,0
DA:146,0
DA:147,0
DA:148,0
DA:149,0
DA:150,0
DA:151,0
DA:152,0
DA:153,0
DA:154,0
DA:155,0
DA:156,0
DA:157,0
DA:158,0
DA:159,0
DA:160,0
DA:161,0
DA:162,0
DA:163,0
DA:164,0
DA:165,0
DA:166,0
DA:167,0
DA:168,0
DA:169,0
DA:170,0
DA:171,0
DA:172,0
DA:173,0
DA:174,0
DA:175,0
DA:176,0
DA:177,0
DA:178,0
DA:179,0
DA:180,0
DA:181,0
DA:182,0
DA:183,0
DA:184,0
DA:185,0
DA:186,0
DA:187,0
DA:188,0
DA:189,0
DA:190,0
DA:191,0
DA:192,0
DA:193,0
DA:194,0
DA:199,0
DA:202,0
DA:203,0
DA:204,0
DA:205,0
DA:206,0
DA:207,0
DA:208,0
DA:209,0
DA:212,0
DA:213,0
DA:214,0
DA:215,0
DA:216,0
DA:217,0
DA:218,0
DA:219,0
DA:220,0
DA:221,0
DA:222,0
DA:223,0
DA:224,0
DA:225,0
DA:226,0
DA:227,0
DA:230,0
DA:231,0
DA:232,0
DA:233,0
DA:234,0
DA:235,0
DA:236,0
DA:237,0
DA:238,0
DA:241,0
DA:242,0
DA:243,0
DA:246,0
DA:247,0
DA:248,0
DA:249,0
DA:250,0
DA:251,0
DA:252,0
DA:253,0
DA:254,0
DA:255,0
DA:256,0
DA:257,0
DA:258,0
DA:259,0
DA:260,0
DA:261,0
DA:264,0
DA:265,0
DA:266,0
DA:267,0
DA:268,0
DA:269,0
DA:270,0
DA:271,0
DA:272,0
DA:273,0
DA:274,0
DA:275,0
DA:276,0
DA:277,0
DA:278,0
DA:279,0
DA:282,0
DA:283,0
DA:284,0
DA:285,0
DA:286,0
DA:287,0
DA:288,0
DA:289,0
DA:290,0
DA:291,0
DA:292,0
DA:293,0
DA:296,0
DA:297,0
DA:298,0
DA:299,0
DA:300,0
DA:301,0
DA:302,0
DA:303,0
DA:304,0
DA:305,0
DA:306,0
DA:307,0
DA:310,0
DA:311,0
DA:312,0
DA:313,0
DA:314,0
DA:315,0
DA:316,0
DA:317,0
DA:318,0
DA:319,0
DA:320,0
DA:321,0
DA:322,0
DA:323,0
DA:324,0
DA:325,0
DA:326,0
DA:327,0
DA:328,0
DA:329,0
DA:330,0
DA:331,0
DA:332,0
DA:333,0
DA:334,0
DA:335,0
DA:336,0
DA:337,0
DA:338,0
DA:339,0
DA:340,0
DA:341,0
DA:342,0
DA:343,0
DA:344,0
DA:345,0
DA:346,0
DA:347,0
DA:348,0
DA:349,0
DA:350,0
DA:351,0
DA:352,0
DA:353,0
DA:354,0
DA:355,0
DA:356,0
DA:357,0
DA:360,0
DA:361,0
DA:362,0
DA:363,0
DA:364,0
DA:365,0
DA:366,0
DA:367,0
DA:368,0
DA:369,0
DA:370,0
DA:371,0
DA:372,0
DA:373,0
DA:374,0
DA:375,0
DA:376,0
DA:377,0
DA:378,0
DA:379,0
DA:380,0
DA:381,0
DA:382,0
DA:383,0
DA:384,0
DA:385,0
DA:386,0
DA:387,0
DA:388,0
DA:389,0
DA:390,0
DA:391,0
DA:392,0
DA:393,0
DA:394,0
DA:395,0
DA:398,0
DA:399,0
DA:400,0
DA:401,0
DA:402,0
DA:403,0
DA:404,0
DA:405,0
DA:406,0
DA:407,0
DA:408,0
DA:409,0
DA:410,0
DA:411,0
DA:412,0
DA:413,0
DA:414,0
DA:415,0
DA:416,0
DA:417,0
DA:418,0
DA:419,0
DA:420,0
DA:421,0
DA:422,0
DA:423,0
DA:424,0
DA:425,0
DA:426,0
DA:427,0
DA:428,0
DA:429,0
DA:432,0
DA:433,0
DA:434,0
DA:435,0
DA:436,0
DA:437,0
DA:438,0
DA:439,0
DA:440,0
DA:441,0
DA:442,0
DA:443,0
DA:444,0
DA:445,0
DA:446,0
DA:447,0
DA:448,0
DA:449,0
DA:450,0
DA:451,0
DA:452,0
DA:453,0
DA:454,0
DA:455,0
DA:456,0
DA:457,0
DA:458,0
DA:459,0
DA:460,0
DA:461,0
DA:462,0
DA:463,0
DA:466,0
DA:467,0
DA:468,0
DA:469,0
DA:470,0
DA:471,0
DA:472,0
DA:473,0
DA:474,0
DA:475,0
DA:476,0
DA:477,0
DA:478,0
DA:479,0
DA:480,0
DA:481,0
DA:482,0
DA:483,0
DA:484,0
DA:485,0
DA:486,0
DA:487,0
DA:488,0
DA:489,0
DA:490,0
DA:491,0
DA:492,0
DA:493,0
DA:494,0
DA:495,0
DA:496,0
DA:497,0
DA:499,0
DA:502,0
DA:503,0
DA:504,0
DA:505,0
DA:507,0
DA:508,0
DA:509,0
DA:511,0
DA:512,0
DA:513,0
DA:515,0
DA:516,0
DA:517,0
DA:519,0
DA:520,0
DA:521,0
DA:523,0
DA:524,0
DA:525,0
DA:527,0
DA:528,0
DA:529,0
DA:531,0
DA:532,0
DA:533,0
DA:534,0
DA:535,0
DA:538,0
DA:539,0
DA:540,0
DA:542,0
DA:543,0
DA:544,0
DA:545,0
DA:546,0
DA:547,0
DA:549,0
DA:550,0
DA:551,0
DA:552,0
DA:553,0
DA:555,0
DA:556,0
DA:557,0
DA:558,0
DA:559,0
DA:562,0
DA:563,0
DA:564,0
DA:566,0
DA:567,0
DA:568,0
DA:570,0
DA:571,0
DA:572,0
DA:574,0
DA:575,0
DA:576,0
DA:577,0
DA:578,0
DA:579,0
DA:582,0
DA:583,0
DA:584,0
DA:586,0
DA:587,0
DA:588,0
DA:591,0
DA:592,0
DA:593,0
DA:594,0
DA:595,0
DA:597,0
DA:598,0
DA:599,0
DA:601,0
DA:602,0
DA:603,0
DA:604,0
DA:605,0
DA:606,0
DA:608,0
DA:609,0
DA:610,0
DA:613,0
DA:614,0
DA:615,0
DA:616,0
DA:617,0
DA:619,0
DA:620,0
DA:621,0
DA:623,0
DA:624,0
DA:625,0
DA:627,0
DA:628,0
DA:629,0
DA:630,0
DA:631,0
DA:633,0
DA:634,0
BRF:0
BRH:0
LF:539
LH:0
end_of_record
SF:/mnt/datadrive_m2/self-sensored/src/db/database.rs
FN:11,_RNCNCNvNtNtCs1yu0zy1SNdm_13self_sensored2db8database22create_connection_pool00B9_
FN:21,_RNCNCNvNtNtCs1yu0zy1SNdm_13self_sensored2db8database22create_connection_pool0s0_0B9_
FN:26,_RNCNCNvNtNtCs1yu0zy1SNdm_13self_sensored2db8database22create_connection_pool0s1_0B9_
FN:31,_RNCNCNvNtNtCs1yu0zy1SNdm_13self_sensored2db8database22create_connection_pool0s2_0B9_
FN:37,_RNCNCNvNtNtCs1yu0zy1SNdm_13self_sensored2db8database22create_connection_pool0s3_0B9_
FN:16,_RNCNCNvNtNtCs1yu0zy1SNdm_13self_sensored2db8database22create_connection_pool0s_0B9_
FN:7,_RNCNvNtNtCs1yu0zy1SNdm_13self_sensored2db8database22create_connection_pool0B7_
FN:68,_RNCNvNtNtCs1yu0zy1SNdm_13self_sensored2db8database24test_database_connection0B7_
FN:7,_RNvNtNtCs1yu0zy1SNdm_13self_sensored2db8database22create_connection_pool
FN:108,_RNvNtNtCs1yu0zy1SNdm_13self_sensored2db8database22update_db_pool_metrics
FN:68,_RNvNtNtCs1yu0zy1SNdm_13self_sensored2db8database24test_database_connection
FNDA:0,_RNCNCNvNtNtCs1yu0zy1SNdm_13self_sensored2db8database22create_connection_pool00B9_
FNDA:0,_RNCNCNvNtNtCs1yu0zy1SNdm_13self_sensored2db8database22create_connection_pool0s0_0B9_
FNDA:0,_RNCNCNvNtNtCs1yu0zy1SNdm_13self_sensored2db8database22create_connection_pool0s1_0B9_
FNDA:0,_RNCNCNvNtNtCs1yu0zy1SNdm_13self_sensored2db8database22create_connection_pool0s2_0B9_
FNDA:0,_RNCNCNvNtNtCs1yu0zy1SNdm_13self_sensored2db8database22create_connection_pool0s3_0B9_
FNDA:0,_RNCNCNvNtNtCs1yu0zy1SNdm_13self_sensored2db8database22create_connection_pool0s_0B9_
FNDA:0,_RNCNvNtNtCs1yu0zy1SNdm_13self_sensored2db8database22create_connection_pool0B7_
FNDA:0,_RNCNvNtNtCs1yu0zy1SNdm_13self_sensored2db8database24test_database_connection0B7_
FNDA:0,_RNvNtNtCs1yu0zy1SNdm_13self_sensored2db8database22create_connection_pool
FNDA:0,_RNvNtNtCs1yu0zy1SNdm_13self_sensored2db8database22update_db_pool_metrics
FNDA:0,_RNvNtNtCs1yu0zy1SNdm_13self_sensored2db8database24test_database_connection
FNF:11
FNH:0
DA:7,0
DA:8,0
DA:10,0
DA:11,0
DA:12,0
DA:13,0
DA:15,0
DA:16,0
DA:17,0
DA:18,0
DA:20,0
DA:21,0
DA:22,0
DA:23,0
DA:25,0
DA:26,0
DA:27,0
DA:28,0
DA:30,0
DA:31,0
DA:32,0
DA:33,0
DA:36,0
DA:37,0
DA:38,0
DA:39,0
DA:41,0
DA:42,0
DA:46,0
DA:47,0
DA:48,0
DA:49,0
DA:50,0
DA:51,0
DA:52,0
DA:53,0
DA:54,0
DA:56,0
DA:57,0
DA:58,0
DA:60,0
DA:61,0
DA:62,0
DA:65,0
DA:68,0
DA:69,0
DA:72,0
DA:73,0
DA:76,0
DA:77,0
DA:80,0
DA:81,0
DA:82,0
DA:84,0
DA:85,0
DA:86,0
DA:87,0
DA:92,0
DA:93,0
DA:94,0
DA:96,0
DA:97,0
DA:98,0
DA:99,0
DA:103,0
DA:104,0
DA:105,0
DA:108,0
DA:109,0
DA:110,0
DA:113,0
DA:116,0
DA:117,0
DA:119,0
DA:121,0
DA:122,0
DA:123,0
DA:125,0
DA:128,0
DA:129,0
BRF:0
BRH:0
LF:88
LH:0
end_of_record
SF:/mnt/datadrive_m2/self-sensored/src/handlers/admin.rs
FN:36,_RNCNCNvNtNtCs1yu0zy1SNdm_13self_sensored8handlers5admin13get_log_level0s0_0B9_
FN:50,_RNCNCNvNtNtCs1yu0zy1SNdm_13self_sensored8handlers5admin13get_log_level0s2_0B9_
FN:50,_RNCNCNvNtNtCs1yu0zy1SNdm_13self_sensored8handlers5admin13get_log_level0s3_0B9_
FN:36,_RNCNCNvNtNtCs1yu0zy1SNdm_13self_sensored8handlers5admin13get_log_level0s_0B9_
FN:82,_RNCNCNvNtNtCs1yu0zy1SNdm_13self_sensored8handlers5admin13set_log_level0s0_0B9_
FN:105,_RNCNCNvNtNtCs1yu0zy1SNdm_13self_sensored8handlers5admin13set_log_level0s2_0B9_
FN:105,_RNCNCNvNtNtCs1yu0zy1SNdm_13self_sensored8handlers5admin13set_log_level0s3_0B9_
FN:126,_RNCNCNvNtNtCs1yu0zy1SNdm_13self_sensored8handlers5admin13set_log_level0s5_0B9_
FN:126,_RNCNCNvNtNtCs1yu0zy1SNdm_13self_sensored8handlers5admin13set_log_level0s6_0B9_
FN:147,_RNCNCNvNtNtCs1yu0zy1SNdm_13self_sensored8handlers5admin13set_log_level0s8_0B9_
FN:147,_RNCNCNvNtNtCs1yu0zy1SNdm_13self_sensored8handlers5admin13set_log_level0s9_0B9_
FN:82,_RNCNCNvNtNtCs1yu0zy1SNdm_13self_sensored8handlers5admin13set_log_level0s_0B9_
FN:180,_RNCNCNvNtNtCs1yu0zy1SNdm_13self_sensored8handlers5admin17get_logging_stats0s0_0B9_
FN:194,_RNCNCNvNtNtCs1yu0zy1SNdm_13self_sensored8handlers5admin17get_logging_stats0s2_0B9_
FN:194,_RNCNCNvNtNtCs1yu0zy1SNdm_13self_sensored8handlers5admin17get_logging_stats0s3_0B9_
FN:180,_RNCNCNvNtNtCs1yu0zy1SNdm_13self_sensored8handlers5admin17get_logging_stats0s_0B9_
FN:240,_RNCNCNvNtNtCs1yu0zy1SNdm_13self_sensored8handlers5admin18generate_test_logs0s0_0B9_
FN:254,_RNCNCNvNtNtCs1yu0zy1SNdm_13self_sensored8handlers5admin18generate_test_logs0s2_0B9_
FN:254,_RNCNCNvNtNtCs1yu0zy1SNdm_13self_sensored8handlers5admin18generate_test_logs0s3_0B9_
FN:240,_RNCNCNvNtNtCs1yu0zy1SNdm_13self_sensored8handlers5admin18generate_test_logs0s_0B9_
FN:330,_RNCNCNvNtNtCs1yu0zy1SNdm_13self_sensored8handlers5admin18generate_test_logs0sc_0B9_
FN:330,_RNCNCNvNtNtCs1yu0zy1SNdm_13self_sensored8handlers5admin18generate_test_logs0sd_0B9_
FN:26,_RNCNvNtNtCs1yu0zy1SNdm_13self_sensored8handlers5admin13get_log_level0B7_
FN:72,_RNCNvNtNtCs1yu0zy1SNdm_13self_sensored8handlers5admin13set_log_level0B7_
FN:170,_RNCNvNtNtCs1yu0zy1SNdm_13self_sensored8handlers5admin17get_logging_stats0B7_
FN:228,_RNCNvNtNtCs1yu0zy1SNdm_13self_sensored8handlers5admin18generate_test_logs0B7_
FN:26,_RNvNtNtCs1yu0zy1SNdm_13self_sensored8handlers5admin13get_log_level
FN:68,_RNvNtNtCs1yu0zy1SNdm_13self_sensored8handlers5admin13set_log_level
FN:167,_RNvNtNtCs1yu0zy1SNdm_13self_sensored8handlers5admin17get_logging_stats
FN:224,_RNvNtNtCs1yu0zy1SNdm_13self_sensored8handlers5admin18generate_test_logs
FNDA:0,_RNCNCNvNtNtCs1yu0zy1SNdm_13self_sensored8handlers5admin13get_log_level0s0_0B9_
FNDA:0,_RNCNCNvNtNtCs1yu0zy1SNdm_13self_sensored8handlers5admin13get_log_level0s2_0B9_
FNDA:0,_RNCNCNvNtNtCs1yu0zy1SNdm_13self_sensored8handlers5admin13get_log_level0s3_0B9_
FNDA:0,_RNCNCNvNtNtCs1yu0zy1SNdm_13self_sensored8handlers5admin13get_log_level0s_0B9_
FNDA:0,_RNCNCNvNtNtCs1yu0zy1SNdm_13self_sensored8handlers5admin13set_log_level0s0_0B9_
FNDA:0,_RNCNCNvNtNtCs1yu0zy1SNdm_13self_sensored8handlers5admin13set_log_level0s2_0B9_
FNDA:0,_RNCNCNvNtNtCs1yu0zy1SNdm_13self_sensored8handlers5admin13set_log_level0s3_0B9_
FNDA:0,_RNCNCNvNtNtCs1yu0zy1SNdm_13self_sensored8handlers5admin13set_log_level0s5_0B9_
FNDA:0,_RNCNCNvNtNtCs1yu0zy1SNdm_13self_sensored8handlers5admin13set_log_level0s6_0B9_
FNDA:0,_RNCNCNvNtNtCs1yu0zy1SNdm_13self_sensored8handlers5admin13set_log_level0s8_0B9_
FNDA:0,_RNCNCNvNtNtCs1yu0zy1SNdm_13self_sensored8handlers5admin13set_log_level0s9_0B9_
FNDA:0,_RNCNCNvNtNtCs1yu0zy1SNdm_13self_sensored8handlers5admin13set_log_level0s_0B9_
FNDA:0,_RNCNCNvNtNtCs1yu0zy1SNdm_13self_sensored8handlers5admin17get_logging_stats0s0_0B9_
FNDA:0,_RNCNCNvNtNtCs1yu0zy1SNdm_13self_sensored8handlers5admin17get_logging_stats0s2_0B9_
FNDA:0,_RNCNCNvNtNtCs1yu0zy1SNdm_13self_sensored8handlers5admin17get_logging_stats0s3_0B9_
FNDA:0,_RNCNCNvNtNtCs1yu0zy1SNdm_13self_sensored8handlers5admin17get_logging_stats0s_0B9_
FNDA:0,_RNCNCNvNtNtCs1yu0zy1SNdm_13self_sensored8handlers5admin18generate_test_logs0s0_0B9_
FNDA:0,_RNCNCNvNtNtCs1yu0zy1SNdm_13self_sensored8handlers5admin18generate_test_logs0s2_0B9_
FNDA:0,_RNCNCNvNtNtCs1yu0zy1SNdm_13self_sensored8handlers5admin18generate_test_logs0s3_0B9_
FNDA:0,_RNCNCNvNtNtCs1yu0zy1SNdm_13self_sensored8handlers5admin18generate_test_logs0s_0B9_
FNDA:0,_RNCNCNvNtNtCs1yu0zy1SNdm_13self_sensored8handlers5admin18generate_test_logs0sc_0B9_
FNDA:0,_RNCNCNvNtNtCs1yu0zy1SNdm_13self_sensored8handlers5admin18generate_test_logs0sd_0B9_
FNDA:0,_RNCNvNtNtCs1yu0zy1SNdm_13self_sensored8handlers5admin13get_log_level0B7_
FNDA:0,_RNCNvNtNtCs1yu0zy1SNdm_13self_sensored8handlers5admin13set_log_level0B7_
FNDA:0,_RNCNvNtNtCs1yu0zy1SNdm_13self_sensored8handlers5admin17get_logging_stats0B7_
FNDA:0,_RNCNvNtNtCs1yu0zy1SNdm_13self_sensored8handlers5admin18generate_test_logs0B7_
FNDA:0,_RNvNtNtCs1yu0zy1SNdm_13self_sensored8handlers5admin13get_log_level
FNDA:0,_RNvNtNtCs1yu0zy1SNdm_13self_sensored8handlers5admin13set_log_level
FNDA:0,_RNvNtNtCs1yu0zy1SNdm_13self_sensored8handlers5admin17get_logging_stats
FNDA:0,_RNvNtNtCs1yu0zy1SNdm_13self_sensored8handlers5admin18generate_test_logs
FNF:19
FNH:0
DA:26,0
DA:27,0
DA:30,0
DA:31,0
DA:36,0
DA:40,0
DA:41,0
DA:42,0
DA:43,0
DA:44,0
DA:45,0
DA:47,0
DA:50,0
DA:56,0
DA:57,0
DA:58,0
DA:59,0
DA:60,0
DA:61,0
DA:62,0
DA:64,0
DA:65,0
DA:68,0
DA:69,0
DA:70,0
DA:71,0
DA:72,0
DA:73,0
DA:76,0
DA:77,0
DA:82,0
DA:86,0
DA:87,0
DA:88,0
DA:89,0
DA:90,0
DA:91,0
DA:94,0
DA:95,0
DA:96,0
DA:97,0
DA:98,0
DA:99,0
DA:101,0
DA:104,0
DA:105,0
DA:109,0
DA:110,0
DA:111,0
DA:112,0
DA:113,0
DA:114,0
DA:115,0
DA:116,0
DA:117,0
DA:118,0
DA:122,0
DA:126,0
DA:135,0
DA:136,0
DA:137,0
DA:138,0
DA:139,0
DA:140,0
DA:141,0
DA:143,0
DA:146,0
DA:147,0
DA:151,0
DA:152,0
DA:167,0
DA:168,0
DA:169,0
DA:170,0
DA:171,0
DA:174,0
DA:175,0
DA:180,0
DA:184,0
DA:185,0
DA:186,0
DA:187,0
DA:188,0
DA:189,0
DA:191,0
DA:194,0
DA:202,0
DA:203,0
DA:204,0
DA:205,0
DA:206,0
DA:207,0
DA:208,0
DA:209,0
DA:210,0
DA:211,0
DA:213,0
DA:214,0
DA:224,0
DA:225,0
DA:226,0
DA:227,0
DA:228,0
DA:229,0
DA:230,0
DA:231,0
DA:234,0
DA:235,0
DA:240,0
DA:244,0
DA:245,0
DA:246,0
DA:247,0
DA:248,0
DA:249,0
DA:251,0
DA:254,0
DA:260,0
DA:261,0
DA:262,0
DA:265,0
DA:267,0
DA:270,0
DA:272,0
DA:275,0
DA:277,0
DA:280,0
DA:282,0
DA:285,0
DA:287,0
DA:290,0
DA:294,0
DA:296,0
DA:300,0
DA:302,0
DA:303,0
DA:304,0
DA:306,0
DA:309,0
DA:310,0
DA:313,0
DA:315,0
DA:318,0
DA:319,0
DA:320,0
DA:321,0
DA:322,0
DA:323,0
DA:324,0
DA:327,0
DA:330,0
DA:335,0
DA:336,0
BRF:0
BRH:0
LF:168
LH:0
end_of_record
SF:/mnt/datadrive_m2/self-sensored/src/handlers/auth.rs
FN:219,_RNCNCNCNvNtNtCs1yu0zy1SNdm_13self_sensored8handlers4auth13list_api_keys000Bb_
FN:218,_RNCNCNvNtNtCs1yu0zy1SNdm_13self_sensored8handlers4auth13list_api_keys00B9_
FN:82,_RNCNCNvNtNtCs1yu0zy1SNdm_13self_sensored8handlers4auth14create_api_key00B9_
FN:165,_RNCNCNvNtNtCs1yu0zy1SNdm_13self_sensored8handlers4auth14create_api_key0s0_0B9_
FN:86,_RNCNCNvNtNtCs1yu0zy1SNdm_13self_sensored8handlers4auth14create_api_key0s_0B9_
FN:262,_RNCNCNvNtNtCs1yu0zy1SNdm_13self_sensored8handlers4auth14revoke_api_key00B9_
FN:266,_RNCNCNvNtNtCs1yu0zy1SNdm_13self_sensored8handlers4auth14revoke_api_key0s_0B9_
FN:412,_RNCNCNvXNtNtCs1yu0zy1SNdm_13self_sensored8handlers4authNtB6_10ApiKeyInfoNtNtCs1IdqjQepwc8_9actix_web7extract11FromRequest12from_request00Ba_
FN:419,_RNCNCNvXNtNtCs1yu0zy1SNdm_13self_sensored8handlers4authNtB6_10ApiKeyInfoNtNtCs1IdqjQepwc8_9actix_web7extract11FromRequest12from_request0s_0Ba_
FN:212,_RNCNvNtNtCs1yu0zy1SNdm_13self_sensored8handlers4auth13list_api_keys0B7_
FN:77,_RNCNvNtNtCs1yu0zy1SNdm_13self_sensored8handlers4auth14create_api_key0B7_
FN:257,_RNCNvNtNtCs1yu0zy1SNdm_13self_sensored8handlers4auth14revoke_api_key0B7_
FN:343,_RNCNvNtNtCs1yu0zy1SNdm_13self_sensored8handlers4auth21get_rate_limit_status0B7_
FN:407,_RNCNvXNtNtCs1yu0zy1SNdm_13self_sensored8handlers4authNtB4_10ApiKeyInfoNtNtCs1IdqjQepwc8_9actix_web7extract11FromRequest12from_request0B8_
FN:209,_RNvNtNtCs1yu0zy1SNdm_13self_sensored8handlers4auth13list_api_keys
FN:72,_RNvNtNtCs1yu0zy1SNdm_13self_sensored8handlers4auth14create_api_key
FN:252,_RNvNtNtCs1yu0zy1SNdm_13self_sensored8handlers4auth14revoke_api_key
FN:391,_RNvNtNtCs1yu0zy1SNdm_13self_sensored8handlers4auth16configure_routes
FN:340,_RNvNtNtCs1yu0zy1SNdm_13self_sensored8handlers4auth21get_rate_limit_status
FN:405,_RNvXNtNtCs1yu0zy1SNdm_13self_sensored8handlers4authNtB2_10ApiKeyInfoNtNtCs1IdqjQepwc8_9actix_web7extract11FromRequest12from_request
FNDA:0,_RNCNCNCNvNtNtCs1yu0zy1SNdm_13self_sensored8handlers4auth13list_api_keys000Bb_
FNDA:0,_RNCNCNvNtNtCs1yu0zy1SNdm_13self_sensored8handlers4auth13list_api_keys00B9_
FNDA:0,_RNCNCNvNtNtCs1yu0zy1SNdm_13self_sensored8handlers4auth14create_api_key00B9_
FNDA:0,_RNCNCNvNtNtCs1yu0zy1SNdm_13self_sensored8handlers4auth14create_api_key0s0_0B9_
FNDA:0,_RNCNCNvNtNtCs1yu0zy1SNdm_13self_sensored8handlers4auth14create_api_key0s_0B9_
FNDA:0,_RNCNCNvNtNtCs1yu0zy1SNdm_13self_sensored8handlers4auth14revoke_api_key00B9_
FNDA:0,_RNCNCNvNtNtCs1yu0zy1SNdm_13self_sensored8handlers4auth14revoke_api_key0s_0B9_
FNDA:0,_RNCNCNvXNtNtCs1yu0zy1SNdm_13self_sensored8handlers4authNtB6_10ApiKeyInfoNtNtCs1IdqjQepwc8_9actix_web7extract11FromRequest12from_request00Ba_
FNDA:0,_RNCNCNvXNtNtCs1yu0zy1SNdm_13self_sensored8handlers4authNtB6_10ApiKeyInfoNtNtCs1IdqjQepwc8_9actix_web7extract11FromRequest12from_request0s_0Ba_
FNDA:0,_RNCNvNtNtCs1yu0zy1SNdm_13self_sensored8handlers4auth13list_api_keys0B7_
FNDA:0,_RNCNvNtNtCs1yu0zy1SNdm_13self_sensored8handlers4auth14create_api_key0B7_
FNDA:0,_RNCNvNtNtCs1yu0zy1SNdm_13self_sensored8handlers4auth14revoke_api_key0B7_
FNDA:0,_RNCNvNtNtCs1yu0zy1SNdm_13self_sensored8handlers4auth21get_rate_limit_status0B7_
FNDA:0,_RNCNvXNtNtCs1yu0zy1SNdm_13self_sensored8handlers4authNtB4_10ApiKeyInfoNtNtCs1IdqjQepwc8_9actix_web7extract11FromRequest12from_request0B8_
FNDA:0,_RNvNtNtCs1yu0zy1SNdm_13self_sensored8handlers4auth13list_api_keys
FNDA:0,_RNvNtNtCs1yu0zy1SNdm_13self_sensored8handlers4auth14create_api_key
FNDA:0,_RNvNtNtCs1yu0zy1SNdm_13self_sensored8handlers4auth14revoke_api_key
FNDA:0,_RNvNtNtCs1yu0zy1SNdm_13self_sensored8handlers4auth16configure_routes
FNDA:0,_RNvNtNtCs1yu0zy1SNdm_13self_sensored8handlers4auth21get_rate_limit_status
FNDA:0,_RNvXNtNtCs1yu0zy1SNdm_13self_sensored8handlers4authNtB2_10ApiKeyInfoNtNtCs1IdqjQepwc8_9actix_web7extract11FromRequest12from_request
FNF:20
FNH:0
DA:72,0
DA:73,0
DA:74,0
DA:75,0
DA:76,0
DA:77,0
DA:79,0
DA:80,0
DA:81,0
DA:82,0
DA:83,0
DA:84,0
DA:85,0
DA:86,0
DA:89,0
DA:90,0
DA:91,0
DA:92,0
DA:93,0
DA:94,0
DA:95,0
DA:96,0
DA:98,0
DA:99,0
DA:100,0
DA:101,0
DA:102,0
DA:103,0
DA:104,0
DA:105,0
DA:108,0
DA:109,0
DA:110,0
DA:111,0
DA:112,0
DA:113,0
DA:114,0
DA:115,0
DA:116,0
DA:117,0
DA:120,0
DA:121,0
DA:122,0
DA:123,0
DA:124,0
DA:125,0
DA:126,0
DA:127,0
DA:128,0
DA:129,0
DA:131,0
DA:132,0
DA:133,0
DA:134,0
DA:135,0
DA:136,0
DA:137,0
DA:138,0
DA:139,0
DA:141,0
DA:143,0
DA:144,0
DA:145,0
DA:146,0
DA:147,0
DA:148,0
DA:149,0
DA:150,0
DA:151,0
DA:152,0
DA:153,0
DA:154,0
DA:155,0
DA:156,0
DA:157,0
DA:158,0
DA:160,0
DA:162,0
DA:164,0
DA:165,0
DA:166,0
DA:167,0
DA:168,0
DA:169,0
DA:171,0
DA:174,0
DA:175,0
DA:178,0
DA:179,0
DA:180,0
DA:181,0
DA:182,0
DA:183,0
DA:184,0
DA:185,0
DA:186,0
DA:187,0
DA:188,0
DA:189,0
DA:190,0
DA:191,0
DA:192,0
DA:193,0
DA:195,0
DA:196,0
DA:197,0
DA:198,0
DA:199,0
DA:200,0
DA:201,0
DA:202,0
DA:205,0
DA:209,0
DA:210,0
DA:211,0
DA:212,0
DA:213,0
DA:214,0
DA:215,0
DA:216,0
DA:217,0
DA:218,0
DA:219,0
DA:220,0
DA:221,0
DA:222,0
DA:223,0
DA:224,0
DA:225,0
DA:227,0
DA:228,0
DA:229,0
DA:230,0
DA:231,0
DA:233,0
DA:234,0
DA:235,0
DA:239,0
DA:240,0
DA:241,0
DA:242,0
DA:243,0
DA:244,0
DA:245,0
DA:248,0
DA:252,0
DA:253,0
DA:254,0
DA:255,0
DA:256,0
DA:257,0
DA:259,0
DA:260,0
DA:261,0
DA:262,0
DA:263,0
DA:264,0
DA:265,0
DA:266,0
DA:268,0
DA:269,0
DA:270,0
DA:272,0
DA:274,0
DA:275,0
DA:276,0
DA:277,0
DA:278,0
DA:279,0
DA:281,0
DA:283,0
DA:284,0
DA:285,0
DA:286,0
DA:287,0
DA:288,0
DA:291,0
DA:292,0
DA:294,0
DA:295,0
DA:296,0
DA:297,0
DA:298,0
DA:299,0
DA:301,0
DA:302,0
DA:303,0
DA:304,0
DA:305,0
DA:308,0
DA:309,0
DA:312,0
DA:313,0
DA:314,0
DA:315,0
DA:316,0
DA:317,0
DA:318,0
DA:319,0
DA:320,0
DA:321,0
DA:322,0
DA:323,0
DA:324,0
DA:325,0
DA:327,0
DA:328,0
DA:329,0
DA:330,0
DA:331,0
DA:332,0
DA:333,0
DA:336,0
DA:340,0
DA:341,0
DA:342,0
DA:343,0
DA:344,0
DA:346,0
DA:347,0
DA:348,0
DA:349,0
DA:350,0
DA:351,0
DA:352,0
DA:353,0
DA:355,0
DA:356,0
DA:357,0
DA:359,0
DA:360,0
DA:361,0
DA:362,0
DA:363,0
DA:364,0
DA:365,0
DA:366,0
DA:367,0
DA:368,0
DA:369,0
DA:370,0
DA:371,0
DA:372,0
DA:373,0
DA:374,0
DA:375,0
DA:376,0
DA:377,0
DA:378,0
DA:379,0
DA:380,0
DA:381,0
DA:382,0
DA:383,0
DA:384,0
DA:385,0
DA:388,0
DA:391,0
DA:392,0
DA:393,0
DA:394,0
DA:395,0
DA:396,0
DA:397,0
DA:399,0
DA:405,0
DA:406,0
DA:407,0
DA:408,0
DA:409,0
DA:410,0
DA:411,0
DA:412,0
DA:415,0
DA:416,0
DA:417,0
DA:418,0
DA:419,0
DA:420,0
DA:421,0
DA:422,0
DA:423,0
DA:425,0
DA:426,0
BRF:0
BRH:0
LF:297
LH:0
end_of_record
SF:/mnt/datadrive_m2/self-sensored/src/handlers/background.rs
FN:259,_RNCNCNCNvNtNtCs1yu0zy1SNdm_13self_sensored8handlers10background18get_job_statistics00s1_0Bb_
FN:150,_RNCNvNtNtCs1yu0zy1SNdm_13self_sensored8handlers10background10cancel_job0B7_
FN:17,_RNCNvNtNtCs1yu0zy1SNdm_13self_sensored8handlers10background14get_job_status0B7_
FN:63,_RNCNvNtNtCs1yu0zy1SNdm_13self_sensored8handlers10background14list_user_jobs0B7_
FN:226,_RNCNvNtNtCs1yu0zy1SNdm_13self_sensored8handlers10background18get_job_statistics0B7_
FN:146,_RNvNtNtCs1yu0zy1SNdm_13self_sensored8handlers10background10cancel_job
FN:13,_RNvNtNtCs1yu0zy1SNdm_13self_sensored8handlers10background14get_job_status
FN:59,_RNvNtNtCs1yu0zy1SNdm_13self_sensored8handlers10background14list_user_jobs
FN:223,_RNvNtNtCs1yu0zy1SNdm_13self_sensored8handlers10background18get_job_statistics
FNDA:0,_RNCNCNCNvNtNtCs1yu0zy1SNdm_13self_sensored8handlers10background18get_job_statistics00s1_0Bb_
FNDA:0,_RNCNvNtNtCs1yu0zy1SNdm_13self_sensored8handlers10background10cancel_job0B7_
FNDA:0,_RNCNvNtNtCs1yu0zy1SNdm_13self_sensored8handlers10background14get_job_status0B7_
FNDA:0,_RNCNvNtNtCs1yu0zy1SNdm_13self_sensored8handlers10background14list_user_jobs0B7_
FNDA:0,_RNCNvNtNtCs1yu0zy1SNdm_13self_sensored8handlers10background18get_job_statistics0B7_
FNDA:0,_RNvNtNtCs1yu0zy1SNdm_13self_sensored8handlers10background10cancel_job
FNDA:0,_RNvNtNtCs1yu0zy1SNdm_13self_sensored8handlers10background14get_job_status
FNDA:0,_RNvNtNtCs1yu0zy1SNdm_13self_sensored8handlers10background14list_user_jobs
FNDA:0,_RNvNtNtCs1yu0zy1SNdm_13self_sensored8handlers10background18get_job_statistics
FNF:9
FNH:0
DA:13,0
DA:14,0
DA:15,0
DA:16,0
DA:17,0
DA:55,0
DA:59,0
DA:60,0
DA:61,0
DA:62,0
DA:63,0
DA:142,0
DA:146,0
DA:147,0
DA:148,0
DA:149,0
DA:150,0
DA:219,0
DA:223,0
DA:224,0
DA:225,0
DA:226,0
DA:259,0
DA:280,0
BRF:0
BRH:0
LF:28
LH:0
end_of_record
SF:/mnt/datadrive_m2/self-sensored/src/handlers/background_coordinator.rs
FN:320,_RNCNCNvMs1_NtNtCs1yu0zy1SNdm_13self_sensored8handlers22background_coordinatorNtB9_24BackgroundJobCoordinator12get_next_job00Bd_
FN:99,_RNCNCNvMs1_NtNtCs1yu0zy1SNdm_13self_sensored8handlers22background_coordinatorNtB9_24BackgroundJobCoordinator17create_ingest_job00Bd_
FN:274,_RNCNvMs1_NtNtCs1yu0zy1SNdm_13self_sensored8handlers22background_coordinatorNtB7_24BackgroundJobCoordinator12complete_job0Bb_
FN:307,_RNCNvMs1_NtNtCs1yu0zy1SNdm_13self_sensored8handlers22background_coordinatorNtB7_24BackgroundJobCoordinator12get_next_job0Bb_
FN:172,_RNCNvMs1_NtNtCs1yu0zy1SNdm_13self_sensored8handlers22background_coordinatorNtB7_24BackgroundJobCoordinator14get_job_status0Bb_
FN:353,_RNCNvMs1_NtNtCs1yu0zy1SNdm_13self_sensored8handlers22background_coordinatorNtB7_24BackgroundJobCoordinator15get_queue_stats0Bb_
FN:227,_RNCNvMs1_NtNtCs1yu0zy1SNdm_13self_sensored8handlers22background_coordinatorNtB7_24BackgroundJobCoordinator15update_progress0Bb_
FN:339,_RNCNvMs1_NtNtCs1yu0zy1SNdm_13self_sensored8handlers22background_coordinatorNtB7_24BackgroundJobCoordinator16cleanup_old_jobs0Bb_
FN:97,_RNCNvMs1_NtNtCs1yu0zy1SNdm_13self_sensored8handlers22background_coordinatorNtB7_24BackgroundJobCoordinator17create_ingest_job0Bb_
FN:155,_RNCNvMs1_NtNtCs1yu0zy1SNdm_13self_sensored8handlers22background_coordinatorNtB7_24BackgroundJobCoordinator18check_existing_job0Bb_
FN:21,_RNvMNtNtCs1yu0zy1SNdm_13self_sensored8handlers22background_coordinatorNtB2_17BackgroundJobType6as_str
FN:31,_RNvMNtNtCs1yu0zy1SNdm_13self_sensored8handlers22background_coordinatorNtB2_17BackgroundJobType8from_str
FN:268,_RNvMs1_NtNtCs1yu0zy1SNdm_13self_sensored8handlers22background_coordinatorNtB5_24BackgroundJobCoordinator12complete_job
FN:307,_RNvMs1_NtNtCs1yu0zy1SNdm_13self_sensored8handlers22background_coordinatorNtB5_24BackgroundJobCoordinator12get_next_job
FN:172,_RNvMs1_NtNtCs1yu0zy1SNdm_13self_sensored8handlers22background_coordinatorNtB5_24BackgroundJobCoordinator14get_job_status
FN:353,_RNvMs1_NtNtCs1yu0zy1SNdm_13self_sensored8handlers22background_coordinatorNtB5_24BackgroundJobCoordinator15get_queue_stats
FN:221,_RNvMs1_NtNtCs1yu0zy1SNdm_13self_sensored8handlers22background_coordinatorNtB5_24BackgroundJobCoordinator15update_progress
FN:339,_RNvMs1_NtNtCs1yu0zy1SNdm_13self_sensored8handlers22background_coordinatorNtB5_24BackgroundJobCoordinator16cleanup_old_jobs
FN:91,_RNvMs1_NtNtCs1yu0zy1SNdm_13self_sensored8handlers22background_coordinatorNtB5_24BackgroundJobCoordinator17create_ingest_job
FN:152,_RNvMs1_NtNtCs1yu0zy1SNdm_13self_sensored8handlers22background_coordinatorNtB5_24BackgroundJobCoordinator18check_existing_job
FN:86,_RNvMs1_NtNtCs1yu0zy1SNdm_13self_sensored8handlers22background_coordinatorNtB5_24BackgroundJobCoordinator3new
FN:426,_RNvNtNtCs1yu0zy1SNdm_13self_sensored8handlers22background_coordinator32should_use_background_processing
FN:68,_RNvXs0_NtNtCs1yu0zy1SNdm_13self_sensored8handlers22background_coordinatorNtB5_19BackgroundJobConfigNtNtCs1p5UDGgVI4d_4core7default7Default7default
FN:442,_RNvXs2_NtNtCs1yu0zy1SNdm_13self_sensored8handlers22background_coordinatorNtB5_21JobQueueMigrationPathNtNtCs1p5UDGgVI4d_4core7default7Default7default
FN:51,_RNvXs_NtNtCs1yu0zy1SNdm_13self_sensored8handlers22background_coordinatorlINtNtCs1p5UDGgVI4d_4core7convert4FromNtB4_11JobPriorityE4from
FNDA:0,_RNCNCNvMs1_NtNtCs1yu0zy1SNdm_13self_sensored8handlers22background_coordinatorNtB9_24BackgroundJobCoordinator12get_next_job00Bd_
FNDA:0,_RNCNCNvMs1_NtNtCs1yu0zy1SNdm_13self_sensored8handlers22background_coordinatorNtB9_24BackgroundJobCoordinator17create_ingest_job00Bd_
FNDA:0,_RNCNvMs1_NtNtCs1yu0zy1SNdm_13self_sensored8handlers22background_coordinatorNtB7_24BackgroundJobCoordinator12complete_job0Bb_
FNDA:0,_RNCNvMs1_NtNtCs1yu0zy1SNdm_13self_sensored8handlers22background_coordinatorNtB7_24BackgroundJobCoordinator12get_next_job0Bb_
FNDA:0,_RNCNvMs1_NtNtCs1yu0zy1SNdm_13self_sensored8handlers22background_coordinatorNtB7_24BackgroundJobCoordinator14get_job_status0Bb_
FNDA:0,_RNCNvMs1_NtNtCs1yu0zy1SNdm_13self_sensored8handlers22background_coordinatorNtB7_24BackgroundJobCoordinator15get_queue_stats0Bb_
FNDA:0,_RNCNvMs1_NtNtCs1yu0zy1SNdm_13self_sensored8handlers22background_coordinatorNtB7_24BackgroundJobCoordinator15update_progress0Bb_
FNDA:0,_RNCNvMs1_NtNtCs1yu0zy1SNdm_13self_sensored8handlers22background_coordinatorNtB7_24BackgroundJobCoordinator16cleanup_old_jobs0Bb_
FNDA:0,_RNCNvMs1_NtNtCs1yu0zy1SNdm_13self_sensored8handlers22background_coordinatorNtB7_24BackgroundJobCoordinator17create_ingest_job0Bb_
FNDA:0,_RNCNvMs1_NtNtCs1yu0zy1SNdm_13self_sensored8handlers22background_coordinatorNtB7_24BackgroundJobCoordinator18check_existing_job0Bb_
FNDA:0,_RNvMNtNtCs1yu0zy1SNdm_13self_sensored8handlers22background_coordinatorNtB2_17BackgroundJobType6as_str
FNDA:0,_RNvMNtNtCs1yu0zy1SNdm_13self_sensored8handlers22background_coordinatorNtB2_17BackgroundJobType8from_str
FNDA:0,_RNvMs1_NtNtCs1yu0zy1SNdm_13self_sensored8handlers22background_coordinatorNtB5_24BackgroundJobCoordinator12complete_job
FNDA:0,_RNvMs1_NtNtCs1yu0zy1SNdm_13self_sensored8handlers22background_coordinatorNtB5_24BackgroundJobCoordinator12get_next_job
FNDA:0,_RNvMs1_NtNtCs1yu0zy1SNdm_13self_sensored8handlers22background_coordinatorNtB5_24BackgroundJobCoordinator14get_job_status
FNDA:0,_RNvMs1_NtNtCs1yu0zy1SNdm_13self_sensored8handlers22background_coordinatorNtB5_24BackgroundJobCoordinator15get_queue_stats
FNDA:0,_RNvMs1_NtNtCs1yu0zy1SNdm_13self_sensored8handlers22background_coordinatorNtB5_24BackgroundJobCoordinator15update_progress
FNDA:0,_RNvMs1_NtNtCs1yu0zy1SNdm_13self_sensored8handlers22background_coordinatorNtB5_24BackgroundJobCoordinator16cleanup_old_jobs
FNDA:0,_RNvMs1_NtNtCs1yu0zy1SNdm_13self_sensored8handlers22background_coordinatorNtB5_24BackgroundJobCoordinator17create_ingest_job
FNDA:0,_RNvMs1_NtNtCs1yu0zy1SNdm_13self_sensored8handlers22background_coordinatorNtB5_24BackgroundJobCoordinator18check_existing_job
FNDA:0,_RNvMs1_NtNtCs1yu0zy1SNdm_13self_sensored8handlers22background_coordinatorNtB5_24BackgroundJobCoordinator3new
FNDA:0,_RNvNtNtCs1yu0zy1SNdm_13self_sensored8handlers22background_coordinator32should_use_background_processing
FNDA:0,_RNvXs0_NtNtCs1yu0zy1SNdm_13self_sensored8handlers22background_coordinatorNtB5_19BackgroundJobConfigNtNtCs1p5UDGgVI4d_4core7default7Default7default
FNDA:0,_RNvXs2_NtNtCs1yu0zy1SNdm_13self_sensored8handlers22background_coordinatorNtB5_21JobQueueMigrationPathNtNtCs1p5UDGgVI4d_4core7default7Default7default
FNDA:0,_RNvXs_NtNtCs1yu0zy1SNdm_13self_sensored8handlers22background_coordinatorlINtNtCs1p5UDGgVI4d_4core7convert4FromNtB4_11JobPriorityE4from
FNF:25
FNH:0
DA:21,0
DA:22,0
DA:23,0
DA:24,0
DA:25,0
DA:26,0
DA:28,0
DA:31,0
DA:32,0
DA:33,0
DA:34,0
DA:35,0
DA:36,0
DA:37,0
DA:39,0
DA:51,0
DA:52,0
DA:53,0
DA:68,0
DA:69,0
DA:70,0
DA:71,0
DA:72,0
DA:73,0
DA:74,0
DA:75,0
DA:76,0
DA:77,0
DA:86,0
DA:87,0
DA:88,0
DA:91,0
DA:92,0
DA:93,0
DA:94,0
DA:95,0
DA:96,0
DA:97,0
DA:98,0
DA:99,0
DA:101,0
DA:102,0
DA:105,0
DA:106,0
DA:109,0
DA:123,0
DA:124,0
DA:127,0
DA:128,0
DA:132,0
DA:137,0
DA:138,0
DA:140,0
DA:145,0
DA:148,0
DA:149,0
DA:152,0
DA:153,0
DA:154,0
DA:155,0
DA:156,0
DA:165,0
DA:166,0
DA:168,0
DA:169,0
DA:172,0
DA:173,0
DA:185,0
DA:186,0
DA:188,0
DA:190,0
DA:191,0
DA:192,0
DA:193,0
DA:194,0
DA:195,0
DA:196,0
DA:197,0
DA:199,0
DA:200,0
DA:201,0
DA:202,0
DA:203,0
DA:204,0
DA:205,0
DA:206,0
DA:207,0
DA:208,0
DA:209,0
DA:210,0
DA:211,0
DA:212,0
DA:213,0
DA:216,0
DA:218,0
DA:221,0
DA:222,0
DA:223,0
DA:224,0
DA:225,0
DA:226,0
DA:227,0
DA:228,0
DA:229,0
DA:232,0
DA:244,0
DA:246,0
DA:247,0
DA:250,0
DA:261,0
DA:262,0
DA:264,0
DA:265,0
DA:268,0
DA:269,0
DA:270,0
DA:271,0
DA:272,0
DA:273,0
DA:274,0
DA:275,0
DA:286,0
DA:287,0
DA:289,0
DA:294,0
DA:295,0
DA:297,0
DA:300,0
DA:303,0
DA:304,0
DA:307,0
DA:308,0
DA:309,0
DA:310,0
DA:311,0
DA:312,0
DA:313,0
DA:314,0
DA:315,0
DA:317,0
DA:318,0
DA:319,0
DA:320,0
DA:321,0
DA:323,0
DA:324,0
DA:325,0
DA:326,0
DA:327,0
DA:328,0
DA:329,0
DA:330,0
DA:331,0
DA:332,0
DA:334,0
DA:336,0
DA:339,0
DA:340,0
DA:341,0
DA:342,0
DA:344,0
DA:345,0
DA:346,0
DA:347,0
DA:349,0
DA:350,0
DA:353,0
DA:354,0
DA:355,0
DA:356,0
DA:357,0
DA:358,0
DA:359,0
DA:360,0
DA:361,0
DA:362,0
DA:363,0
DA:364,0
DA:365,0
DA:366,0
DA:367,0
DA:369,0
DA:370,0
DA:371,0
DA:372,0
DA:373,0
DA:374,0
DA:375,0
DA:376,0
DA:377,0
DA:378,0
DA:379,0
DA:380,0
DA:381,0
DA:426,0
DA:430,0
DA:431,0
DA:442,0
DA:443,0
DA:444,0
DA:445,0
DA:446,0
DA:447,0
DA:448,0
DA:449,0
DA:450,0
DA:451,0
DA:452,0
DA:453,0
DA:454,0
DA:455,0
DA:456,0
DA:457,0
DA:458,0
DA:459,0
DA:460,0
DA:461,0
DA:462,0
DA:463,0
DA:464,0
BRF:0
BRH:0
LF:230
LH:0
end_of_record
SF:/mnt/datadrive_m2/self-sensored/src/handlers/body_measurements_handler.rs
FN:547,_RNCNCNvNtNtCs1yu0zy1SNdm_13self_sensored8handlers25body_measurements_handler34generate_body_composition_analysis00B9_
FN:555,_RNCNCNvNtNtCs1yu0zy1SNdm_13self_sensored8handlers25body_measurements_handler34generate_body_composition_analysis0s_0B9_
FN:666,_RNCNCNvNtNtCs1yu0zy1SNdm_13self_sensored8handlers25body_measurements_handler34generate_body_measurements_summary0s2_0B9_
FN:194,_RNCNvNtNtCs1yu0zy1SNdm_13self_sensored8handlers25body_measurements_handler24ingest_body_measurements0B7_
FN:609,_RNCNvNtNtCs1yu0zy1SNdm_13self_sensored8handlers25body_measurements_handler25generate_fitness_insights0B7_
FN:318,_RNCNvNtNtCs1yu0zy1SNdm_13self_sensored8handlers25body_measurements_handler26get_body_measurements_data0B7_
FN:676,_RNCNvNtNtCs1yu0zy1SNdm_13self_sensored8handlers25body_measurements_handler32generate_body_measurement_trends0B7_
FN:542,_RNCNvNtNtCs1yu0zy1SNdm_13self_sensored8handlers25body_measurements_handler34generate_body_composition_analysis0B7_
FN:657,_RNCNvNtNtCs1yu0zy1SNdm_13self_sensored8handlers25body_measurements_handler34generate_body_measurements_summary0B7_
FN:187,_RNvNtNtCs1yu0zy1SNdm_13self_sensored8handlers25body_measurements_handler24ingest_body_measurements
FN:605,_RNvNtNtCs1yu0zy1SNdm_13self_sensored8handlers25body_measurements_handler25generate_fitness_insights
FN:314,_RNvNtNtCs1yu0zy1SNdm_13self_sensored8handlers25body_measurements_handler26get_body_measurements_data
FN:672,_RNvNtNtCs1yu0zy1SNdm_13self_sensored8handlers25body_measurements_handler32generate_body_measurement_trends
FN:522,_RNvNtNtCs1yu0zy1SNdm_13self_sensored8handlers25body_measurements_handler34determine_primary_measurement_type
FN:539,_RNvNtNtCs1yu0zy1SNdm_13self_sensored8handlers25body_measurements_handler34generate_body_composition_analysis
FN:653,_RNvNtNtCs1yu0zy1SNdm_13self_sensored8handlers25body_measurements_handler34generate_body_measurements_summary
FN:432,_RNvNtNtCs1yu0zy1SNdm_13self_sensored8handlers25body_measurements_handler37convert_and_validate_body_measurement
FNDA:0,_RNCNCNvNtNtCs1yu0zy1SNdm_13self_sensored8handlers25body_measurements_handler34generate_body_composition_analysis00B9_
FNDA:0,_RNCNCNvNtNtCs1yu0zy1SNdm_13self_sensored8handlers25body_measurements_handler34generate_body_composition_analysis0s_0B9_
FNDA:0,_RNCNCNvNtNtCs1yu0zy1SNdm_13self_sensored8handlers25body_measurements_handler34generate_body_measurements_summary0s2_0B9_
FNDA:0,_RNCNvNtNtCs1yu0zy1SNdm_13self_sensored8handlers25body_measurements_handler24ingest_body_measurements0B7_
FNDA:0,_RNCNvNtNtCs1yu0zy1SNdm_13self_sensored8handlers25body_measurements_handler25generate_fitness_insights0B7_
FNDA:0,_RNCNvNtNtCs1yu0zy1SNdm_13self_sensored8handlers25body_measurements_handler26get_body_measurements_data0B7_
FNDA:0,_RNCNvNtNtCs1yu0zy1SNdm_13self_sensored8handlers25body_measurements_handler32generate_body_measurement_trends0B7_
FNDA:0,_RNCNvNtNtCs1yu0zy1SNdm_13self_sensored8handlers25body_measurements_handler34generate_body_composition_analysis0B7_
FNDA:0,_RNCNvNtNtCs1yu0zy1SNdm_13self_sensored8handlers25body_measurements_handler34generate_body_measurements_summary0B7_
FNDA:0,_RNvNtNtCs1yu0zy1SNdm_13self_sensored8handlers25body_measurements_handler24ingest_body_measurements
FNDA:0,_RNvNtNtCs1yu0zy1SNdm_13self_sensored8handlers25body_measurements_handler25generate_fitness_insights
FNDA:0,_RNvNtNtCs1yu0zy1SNdm_13self_sensored8handlers25body_measurements_handler26get_body_measurements_data
FNDA:0,_RNvNtNtCs1yu0zy1SNdm_13self_sensored8handlers25body_measurements_handler32generate_body_measurement_trends
FNDA:0,_RNvNtNtCs1yu0zy1SNdm_13self_sensored8handlers25body_measurements_handler34determine_primary_measurement_type
FNDA:0,_RNvNtNtCs1yu0zy1SNdm_13self_sensored8handlers25body_measurements_handler34generate_body_composition_analysis
FNDA:0,_RNvNtNtCs1yu0zy1SNdm_13self_sensored8handlers25body_measurements_handler34generate_body_measurements_summary
FNDA:0,_RNvNtNtCs1yu0zy1SNdm_13self_sensored8handlers25body_measurements_handler37convert_and_validate_body_measurement
FNF:17
FNH:0
DA:187,0
DA:188,0
DA:189,0
DA:190,0
DA:191,0
DA:192,0
DA:193,0
DA:194,0
DA:310,0
DA:314,0
DA:315,0
DA:316,0
DA:317,0
DA:318,0
DA:429,0
DA:432,0
DA:433,0
DA:434,0
DA:435,0
DA:436,0
DA:438,0
DA:439,0
DA:440,0
DA:442,0
DA:443,0
DA:444,0
DA:445,0
DA:446,0
DA:447,0
DA:450,0
DA:451,0
DA:452,0
DA:453,0
DA:454,0
DA:455,0
DA:456,0
DA:457,0
DA:460,0
DA:461,0
DA:462,0
DA:464,0
DA:465,0
DA:466,0
DA:467,0
DA:468,0
DA:469,0
DA:470,0
DA:471,0
DA:474,0
DA:475,0
DA:476,0
DA:477,0
DA:478,0
DA:479,0
DA:480,0
DA:483,0
DA:484,0
DA:485,0
DA:486,0
DA:488,0
DA:489,0
DA:490,0
DA:491,0
DA:492,0
DA:495,0
DA:496,0
DA:499,0
DA:500,0
DA:501,0
DA:502,0
DA:503,0
DA:504,0
DA:505,0
DA:506,0
DA:507,0
DA:508,0
DA:509,0
DA:510,0
DA:511,0
DA:512,0
DA:513,0
DA:514,0
DA:515,0
DA:516,0
DA:517,0
DA:518,0
DA:519,0
DA:522,0
DA:523,0
DA:524,0
DA:525,0
DA:526,0
DA:527,0
DA:528,0
DA:529,0
DA:530,0
DA:531,0
DA:532,0
DA:534,0
DA:536,0
DA:539,0
DA:540,0
DA:541,0
DA:542,0
DA:543,0
DA:545,0
DA:547,0
DA:548,0
DA:549,0
DA:550,0
DA:551,0
DA:552,0
DA:555,0
DA:556,0
DA:557,0
DA:558,0
DA:559,0
DA:560,0
DA:561,0
DA:564,0
DA:566,0
DA:567,0
DA:571,0
DA:572,0
DA:573,0
DA:574,0
DA:575,0
DA:576,0
DA:577,0
DA:578,0
DA:579,0
DA:580,0
DA:581,0
DA:582,0
DA:584,0
DA:585,0
DA:586,0
DA:587,0
DA:588,0
DA:589,0
DA:590,0
DA:591,0
DA:593,0
DA:594,0
DA:595,0
DA:596,0
DA:597,0
DA:598,0
DA:599,0
DA:600,0
DA:602,0
DA:605,0
DA:606,0
DA:607,0
DA:608,0
DA:609,0
DA:613,0
DA:614,0
DA:616,0
DA:618,0
DA:619,0
DA:620,0
DA:621,0
DA:622,0
DA:623,0
DA:624,0
DA:625,0
DA:626,0
DA:628,0
DA:629,0
DA:630,0
DA:631,0
DA:632,0
DA:633,0
DA:634,0
DA:635,0
DA:636,0
DA:637,0
DA:639,0
DA:640,0
DA:641,0
DA:642,0
DA:643,0
DA:644,0
DA:645,0
DA:646,0
DA:647,0
DA:648,0
DA:649,0
DA:650,0
DA:653,0
DA:654,0
DA:655,0
DA:656,0
DA:657,0
DA:658,0
DA:661,0
DA:662,0
DA:663,0
DA:664,0
DA:665,0
DA:666,0
DA:667,0
DA:669,0
DA:672,0
DA:673,0
DA:674,0
DA:675,0
DA:676,0
DA:680,0
DA:681,0
DA:682,0
DA:683,0
DA:684,0
DA:685,0
DA:686,0
BRF:0
BRH:0
LF:225
LH:0
end_of_record
SF:/mnt/datadrive_m2/self-sensored/src/handlers/data_loader.rs
FN:408,_RNCNCNCNvNtNtCs1yu0zy1SNdm_13self_sensored8handlers11data_loader15get_data_loader000Bb_
FN:393,_RNCNCNCNvNtNtCs1yu0zy1SNdm_13self_sensored8handlers11data_loader22initialize_data_loader000Bb_
FN:121,_RNCNCNvMs0_NtNtCs1yu0zy1SNdm_13self_sensored8handlers11data_loaderNtB9_14LazyDataLoader21get_category_mappings00Bd_
FN:148,_RNCNCNvMs0_NtNtCs1yu0zy1SNdm_13self_sensored8handlers11data_loaderNtB9_14LazyDataLoader25get_supported_identifiers00Bd_
FN:149,_RNCNCNvMs0_NtNtCs1yu0zy1SNdm_13self_sensored8handlers11data_loaderNtB9_14LazyDataLoader25get_supported_identifiers0s_0Bd_
FN:408,_RNCNCNvNtNtCs1yu0zy1SNdm_13self_sensored8handlers11data_loader15get_data_loader00B9_
FN:401,_RNCNCNvNtNtCs1yu0zy1SNdm_13self_sensored8handlers11data_loader22initialize_data_loader00B9_
FN:88,_RNCNvMs0_NtNtCs1yu0zy1SNdm_13self_sensored8handlers11data_loaderNtB7_14LazyDataLoader11get_mapping0Bb_
FN:228,_RNCNvMs0_NtNtCs1yu0zy1SNdm_13self_sensored8handlers11data_loaderNtB7_14LazyDataLoader13should_reload0Bb_
FN:170,_RNCNvMs0_NtNtCs1yu0zy1SNdm_13self_sensored8handlers11data_loaderNtB7_14LazyDataLoader14get_statistics0Bb_
FN:293,_RNCNvMs0_NtNtCs1yu0zy1SNdm_13self_sensored8handlers11data_loaderNtB7_14LazyDataLoader16load_static_data0Bb_
FN:163,_RNCNvMs0_NtNtCs1yu0zy1SNdm_13self_sensored8handlers11data_loaderNtB7_14LazyDataLoader17get_support_level0Bb_
FN:284,_RNCNvMs0_NtNtCs1yu0zy1SNdm_13self_sensored8handlers11data_loaderNtB7_14LazyDataLoader18load_from_database0Bb_
FN:109,_RNCNvMs0_NtNtCs1yu0zy1SNdm_13self_sensored8handlers11data_loaderNtB7_14LazyDataLoader21get_category_mappings0Bb_
FN:136,_RNCNvMs0_NtNtCs1yu0zy1SNdm_13self_sensored8handlers11data_loaderNtB7_14LazyDataLoader25get_supported_identifiers0Bb_
FN:210,_RNCNvMs0_NtNtCs1yu0zy1SNdm_13self_sensored8handlers11data_loaderNtB7_14LazyDataLoader6reload0Bb_
FN:250,_RNCNvMs0_NtNtCs1yu0zy1SNdm_13self_sensored8handlers11data_loaderNtB7_14LazyDataLoader9load_data0Bb_
FN:406,_RNCNvNtNtCs1yu0zy1SNdm_13self_sensored8handlers11data_loader15get_data_loader0B7_
FN:391,_RNCNvNtNtCs1yu0zy1SNdm_13self_sensored8handlers11data_loader22initialize_data_loader0B7_
FN:25,_RNvMNtNtCs1yu0zy1SNdm_13self_sensored8handlers11data_loaderNtB2_12SupportLevel11from_symbol
FN:34,_RNvMNtNtCs1yu0zy1SNdm_13self_sensored8handlers11data_loaderNtB2_12SupportLevel9to_symbol
FN:215,_RNvMs0_NtNtCs1yu0zy1SNdm_13self_sensored8handlers11data_loaderNtB5_14LazyDataLoader11clear_cache
FN:88,_RNvMs0_NtNtCs1yu0zy1SNdm_13self_sensored8handlers11data_loaderNtB5_14LazyDataLoader11get_mapping
FN:228,_RNvMs0_NtNtCs1yu0zy1SNdm_13self_sensored8handlers11data_loaderNtB5_14LazyDataLoader13should_reload
FN:170,_RNvMs0_NtNtCs1yu0zy1SNdm_13self_sensored8handlers11data_loaderNtB5_14LazyDataLoader14get_statistics
FN:291,_RNvMs0_NtNtCs1yu0zy1SNdm_13self_sensored8handlers11data_loaderNtB5_14LazyDataLoader16load_static_data
FN:163,_RNvMs0_NtNtCs1yu0zy1SNdm_13self_sensored8handlers11data_loaderNtB5_14LazyDataLoader17get_support_level
FN:282,_RNvMs0_NtNtCs1yu0zy1SNdm_13self_sensored8handlers11data_loaderNtB5_14LazyDataLoader18load_from_database
FN:83,_RNvMs0_NtNtCs1yu0zy1SNdm_13self_sensored8handlers11data_loaderNtB5_14LazyDataLoader19with_default_config
FN:109,_RNvMs0_NtNtCs1yu0zy1SNdm_13self_sensored8handlers11data_loaderNtB5_14LazyDataLoader21get_category_mappings
FN:136,_RNvMs0_NtNtCs1yu0zy1SNdm_13self_sensored8handlers11data_loaderNtB5_14LazyDataLoader25get_supported_identifiers
FN:75,_RNvMs0_NtNtCs1yu0zy1SNdm_13self_sensored8handlers11data_loaderNtB5_14LazyDataLoader3new
FN:210,_RNvMs0_NtNtCs1yu0zy1SNdm_13self_sensored8handlers11data_loaderNtB5_14LazyDataLoader6reload
FN:250,_RNvMs0_NtNtCs1yu0zy1SNdm_13self_sensored8handlers11data_loaderNtB5_14LazyDataLoader9load_data
FN:378,_RNvMs1_NtNtCs1yu0zy1SNdm_13self_sensored8handlers11data_loaderNtB5_16DataMappingStats22get_support_percentage
FN:406,_RNvNtNtCs1yu0zy1SNdm_13self_sensored8handlers11data_loader15get_data_loader
FN:391,_RNvNtNtCs1yu0zy1SNdm_13self_sensored8handlers11data_loader22initialize_data_loader
FN:422,_RNvXs2_NtNtCs1yu0zy1SNdm_13self_sensored8handlers11data_loaderNtB5_23DataLoaderMigrationPathNtNtCs1p5UDGgVI4d_4core7default7Default7default
FN:57,_RNvXs_NtNtCs1yu0zy1SNdm_13self_sensored8handlers11data_loaderNtB4_16DataLoaderConfigNtNtCs1p5UDGgVI4d_4core7default7Default7default
FNDA:0,_RNCNCNCNvNtNtCs1yu0zy1SNdm_13self_sensored8handlers11data_loader15get_data_loader000Bb_
FNDA:0,_RNCNCNCNvNtNtCs1yu0zy1SNdm_13self_sensored8handlers11data_loader22initialize_data_loader000Bb_
FNDA:0,_RNCNCNvMs0_NtNtCs1yu0zy1SNdm_13self_sensored8handlers11data_loaderNtB9_14LazyDataLoader21get_category_mappings00Bd_
FNDA:0,_RNCNCNvMs0_NtNtCs1yu0zy1SNdm_13self_sensored8handlers11data_loaderNtB9_14LazyDataLoader25get_supported_identifiers00Bd_
FNDA:0,_RNCNCNvMs0_NtNtCs1yu0zy1SNdm_13self_sensored8handlers11data_loaderNtB9_14LazyDataLoader25get_supported_identifiers0s_0Bd_
FNDA:0,_RNCNCNvNtNtCs1yu0zy1SNdm_13self_sensored8handlers11data_loader15get_data_loader00B9_
FNDA:0,_RNCNCNvNtNtCs1yu0zy1SNdm_13self_sensored8handlers11data_loader22initialize_data_loader00B9_
FNDA:0,_RNCNvMs0_NtNtCs1yu0zy1SNdm_13self_sensored8handlers11data_loaderNtB7_14LazyDataLoader11get_mapping0Bb_
FNDA:0,_RNCNvMs0_NtNtCs1yu0zy1SNdm_13self_sensored8handlers11data_loaderNtB7_14LazyDataLoader13should_reload0Bb_
FNDA:0,_RNCNvMs0_NtNtCs1yu0zy1SNdm_13self_sensored8handlers11data_loaderNtB7_14LazyDataLoader14get_statistics0Bb_
FNDA:0,_RNCNvMs0_NtNtCs1yu0zy1SNdm_13self_sensored8handlers11data_loaderNtB7_14LazyDataLoader16load_static_data0Bb_
FNDA:0,_RNCNvMs0_NtNtCs1yu0zy1SNdm_13self_sensored8handlers11data_loaderNtB7_14LazyDataLoader17get_support_level0Bb_
FNDA:0,_RNCNvMs0_NtNtCs1yu0zy1SNdm_13self_sensored8handlers11data_loaderNtB7_14LazyDataLoader18load_from_database0Bb_
FNDA:0,_RNCNvMs0_NtNtCs1yu0zy1SNdm_13self_sensored8handlers11data_loaderNtB7_14LazyDataLoader21get_category_mappings0Bb_
FNDA:0,_RNCNvMs0_NtNtCs1yu0zy1SNdm_13self_sensored8handlers11data_loaderNtB7_14LazyDataLoader25get_supported_identifiers0Bb_
FNDA:0,_RNCNvMs0_NtNtCs1yu0zy1SNdm_13self_sensored8handlers11data_loaderNtB7_14LazyDataLoader6reload0Bb_
FNDA:0,_RNCNvMs0_NtNtCs1yu0zy1SNdm_13self_sensored8handlers11data_loaderNtB7_14LazyDataLoader9load_data0Bb_
FNDA:0,_RNCNvNtNtCs1yu0zy1SNdm_13self_sensored8handlers11data_loader15get_data_loader0B7_
FNDA:0,_RNCNvNtNtCs1yu0zy1SNdm_13self_sensored8handlers11data_loader22initialize_data_loader0B7_
FNDA:0,_RNvMNtNtCs1yu0zy1SNdm_13self_sensored8handlers11data_loaderNtB2_12SupportLevel11from_symbol
FNDA:0,_RNvMNtNtCs1yu0zy1SNdm_13self_sensored8handlers11data_loaderNtB2_12SupportLevel9to_symbol
FNDA:0,_RNvMs0_NtNtCs1yu0zy1SNdm_13self_sensored8handlers11data_loaderNtB5_14LazyDataLoader11clear_cache
FNDA:0,_RNvMs0_NtNtCs1yu0zy1SNdm_13self_sensored8handlers11data_loaderNtB5_14LazyDataLoader11get_mapping
FNDA:0,_RNvMs0_NtNtCs1yu0zy1SNdm_13self_sensored8handlers11data_loaderNtB5_14LazyDataLoader13should_reload
FNDA:0,_RNvMs0_NtNtCs1yu0zy1SNdm_13self_sensored8handlers11data_loaderNtB5_14LazyDataLoader14get_statistics
FNDA:0,_RNvMs0_NtNtCs1yu0zy1SNdm_13self_sensored8handlers11data_loaderNtB5_14LazyDataLoader16load_static_data
FNDA:0,_RNvMs0_NtNtCs1yu0zy1SNdm_13self_sensored8handlers11data_loaderNtB5_14LazyDataLoader17get_support_level
FNDA:0,_RNvMs0_NtNtCs1yu0zy1SNdm_13self_sensored8handlers11data_loaderNtB5_14LazyDataLoader18load_from_database
FNDA:0,_RNvMs0_NtNtCs1yu0zy1SNdm_13self_sensored8handlers11data_loaderNtB5_14LazyDataLoader19with_default_config
FNDA:0,_RNvMs0_NtNtCs1yu0zy1SNdm_13self_sensored8handlers11data_loaderNtB5_14LazyDataLoader21get_category_mappings
FNDA:0,_RNvMs0_NtNtCs1yu0zy1SNdm_13self_sensored8handlers11data_loaderNtB5_14LazyDataLoader25get_supported_identifiers
FNDA:0,_RNvMs0_NtNtCs1yu0zy1SNdm_13self_sensored8handlers11data_loaderNtB5_14LazyDataLoader3new
FNDA:0,_RNvMs0_NtNtCs1yu0zy1SNdm_13self_sensored8handlers11data_loaderNtB5_14LazyDataLoader6reload
FNDA:0,_RNvMs0_NtNtCs1yu0zy1SNdm_13self_sensored8handlers11data_loaderNtB5_14LazyDataLoader9load_data
FNDA:0,_RNvMs1_NtNtCs1yu0zy1SNdm_13self_sensored8handlers11data_loaderNtB5_16DataMappingStats22get_support_percentage
FNDA:0,_RNvNtNtCs1yu0zy1SNdm_13self_sensored8handlers11data_loader15get_data_loader
FNDA:0,_RNvNtNtCs1yu0zy1SNdm_13self_sensored8handlers11data_loader22initialize_data_loader
FNDA:0,_RNvXs2_NtNtCs1yu0zy1SNdm_13self_sensored8handlers11data_loaderNtB5_23DataLoaderMigrationPathNtNtCs1p5UDGgVI4d_4core7default7Default7default
FNDA:0,_RNvXs_NtNtCs1yu0zy1SNdm_13self_sensored8handlers11data_loaderNtB4_16DataLoaderConfigNtNtCs1p5UDGgVI4d_4core7default7Default7default
FNF:39
FNH:0
DA:25,0
DA:26,0
DA:27,0
DA:28,0
DA:29,0
DA:30,0
DA:32,0
DA:34,0
DA:35,0
DA:36,0
DA:37,0
DA:38,0
DA:40,0
DA:57,0
DA:58,0
DA:59,0
DA:60,0
DA:61,0
DA:62,0
DA:63,0
DA:64,0
DA:75,0
DA:76,0
DA:77,0
DA:78,0
DA:79,0
DA:80,0
DA:81,0
DA:83,0
DA:84,0
DA:85,0
DA:88,0
DA:90,0
DA:91,0
DA:92,0
DA:93,0
DA:94,0
DA:95,0
DA:98,0
DA:99,0
DA:100,0
DA:101,0
DA:102,0
DA:105,0
DA:106,0
DA:109,0
DA:110,0
DA:111,0
DA:112,0
DA:113,0
DA:114,0
DA:115,0
DA:117,0
DA:118,0
DA:119,0
DA:120,0
DA:121,0
DA:122,0
DA:123,0
DA:125,0
DA:128,0
DA:129,0
DA:130,0
DA:133,0
DA:136,0
DA:137,0
DA:138,0
DA:139,0
DA:140,0
DA:141,0
DA:142,0
DA:144,0
DA:145,0
DA:146,0
DA:147,0
DA:148,0
DA:149,0
DA:150,0
DA:152,0
DA:155,0
DA:156,0
DA:157,0
DA:160,0
DA:163,0
DA:164,0
DA:165,0
DA:166,0
DA:167,0
DA:170,0
DA:171,0
DA:172,0
DA:173,0
DA:174,0
DA:175,0
DA:176,0
DA:178,0
DA:179,0
DA:180,0
DA:181,0
DA:183,0
DA:184,0
DA:185,0
DA:186,0
DA:187,0
DA:188,0
DA:191,0
DA:192,0
DA:193,0
DA:194,0
DA:197,0
DA:199,0
DA:202,0
DA:203,0
DA:204,0
DA:207,0
DA:210,0
DA:211,0
DA:212,0
DA:215,0
DA:216,0
DA:217,0
DA:218,0
DA:220,0
DA:221,0
DA:222,0
DA:224,0
DA:225,0
DA:228,0
DA:229,0
DA:230,0
DA:231,0
DA:232,0
DA:233,0
DA:237,0
DA:238,0
DA:239,0
DA:240,0
DA:241,0
DA:243,0
DA:247,0
DA:250,0
DA:251,0
DA:253,0
DA:254,0
DA:256,0
DA:260,0
DA:261,0
DA:262,0
DA:263,0
DA:264,0
DA:269,0
DA:270,0
DA:271,0
DA:272,0
DA:273,0
DA:277,0
DA:278,0
DA:279,0
DA:282,0
DA:283,0
DA:284,0
DA:286,0
DA:287,0
DA:288,0
DA:291,0
DA:292,0
DA:293,0
DA:294,0
DA:297,0
DA:298,0
DA:299,0
DA:300,0
DA:301,0
DA:302,0
DA:303,0
DA:304,0
DA:305,0
DA:306,0
DA:307,0
DA:308,0
DA:309,0
DA:310,0
DA:311,0
DA:312,0
DA:313,0
DA:314,0
DA:315,0
DA:316,0
DA:317,0
DA:318,0
DA:319,0
DA:320,0
DA:321,0
DA:322,0
DA:323,0
DA:324,0
DA:325,0
DA:326,0
DA:327,0
DA:328,0
DA:329,0
DA:330,0
DA:331,0
DA:332,0
DA:333,0
DA:334,0
DA:335,0
DA:336,0
DA:337,0
DA:338,0
DA:339,0
DA:340,0
DA:341,0
DA:342,0
DA:343,0
DA:344,0
DA:345,0
DA:346,0
DA:347,0
DA:349,0
DA:350,0
DA:351,0
DA:352,0
DA:353,0
DA:354,0
DA:355,0
DA:356,0
DA:357,0
DA:358,0
DA:359,0
DA:360,0
DA:362,0
DA:363,0
DA:364,0
DA:378,0
DA:379,0
DA:380,0
DA:382,0
DA:384,0
DA:391,0
DA:392,0
DA:393,0
DA:394,0
DA:395,0
DA:396,0
DA:397,0
DA:398,0
DA:399,0
DA:400,0
DA:401,0
DA:402,0
DA:403,0
DA:406,0
DA:407,0
DA:408,0
DA:409,0
DA:410,0
DA:422,0
DA:423,0
DA:424,0
DA:425,0
DA:426,0
DA:427,0
DA:428,0
DA:429,0
DA:430,0
DA:431,0
DA:432,0
DA:433,0
DA:434,0
DA:435,0
DA:436,0
DA:437,0
DA:438,0
DA:439,0
DA:440,0
DA:441,0
DA:442,0
DA:443,0
DA:444,0
DA:445,0
BRF:0
BRH:0
LF:300
LH:0
end_of_record
SF:/mnt/datadrive_m2/self-sensored/src/handlers/environmental_handler.rs
FN:357,_RNCNCNCNvNtNtCs1yu0zy1SNdm_13self_sensored8handlers21environmental_handler30get_environmental_data_handler000Bb_
FN:406,_RNCNCNCNvNtNtCs1yu0zy1SNdm_13self_sensored8handlers21environmental_handler31get_audio_exposure_data_handler000Bb_
FN:576,_RNCNvNtNtCs1yu0zy1SNdm_13self_sensored8handlers21environmental_handler22get_environmental_data0B7_
FN:622,_RNCNvNtNtCs1yu0zy1SNdm_13self_sensored8handlers21environmental_handler23get_audio_exposure_data0B7_
FN:541,_RNCNvNtNtCs1yu0zy1SNdm_13self_sensored8handlers21environmental_handler25store_safety_event_metric0B7_
FN:442,_RNCNvNtNtCs1yu0zy1SNdm_13self_sensored8handlers21environmental_handler26store_environmental_metric0B7_
FN:489,_RNCNvNtNtCs1yu0zy1SNdm_13self_sensored8handlers21environmental_handler27store_audio_exposure_metric0B7_
FN:56,_RNCNvNtNtCs1yu0zy1SNdm_13self_sensored8handlers21environmental_handler28ingest_environmental_handler0B7_
FN:243,_RNCNvNtNtCs1yu0zy1SNdm_13self_sensored8handlers21environmental_handler28ingest_safety_events_handler0B7_
FN:144,_RNCNvNtNtCs1yu0zy1SNdm_13self_sensored8handlers21environmental_handler29ingest_audio_exposure_handler0B7_
FN:351,_RNCNvNtNtCs1yu0zy1SNdm_13self_sensored8handlers21environmental_handler30get_environmental_data_handler0B7_
FN:400,_RNCNvNtNtCs1yu0zy1SNdm_13self_sensored8handlers21environmental_handler31get_audio_exposure_data_handler0B7_
FN:569,_RNvNtNtCs1yu0zy1SNdm_13self_sensored8handlers21environmental_handler22get_environmental_data
FN:615,_RNvNtNtCs1yu0zy1SNdm_13self_sensored8handlers21environmental_handler23get_audio_exposure_data
FN:537,_RNvNtNtCs1yu0zy1SNdm_13self_sensored8handlers21environmental_handler25store_safety_event_metric
FN:438,_RNvNtNtCs1yu0zy1SNdm_13self_sensored8handlers21environmental_handler26store_environmental_metric
FN:485,_RNvNtNtCs1yu0zy1SNdm_13self_sensored8handlers21environmental_handler27store_audio_exposure_metric
FN:52,_RNvNtNtCs1yu0zy1SNdm_13self_sensored8handlers21environmental_handler28ingest_environmental_handler
FN:239,_RNvNtNtCs1yu0zy1SNdm_13self_sensored8handlers21environmental_handler28ingest_safety_events_handler
FN:140,_RNvNtNtCs1yu0zy1SNdm_13self_sensored8handlers21environmental_handler29ingest_audio_exposure_handler
FN:347,_RNvNtNtCs1yu0zy1SNdm_13self_sensored8handlers21environmental_handler30get_environmental_data_handler
FN:396,_RNvNtNtCs1yu0zy1SNdm_13self_sensored8handlers21environmental_handler31get_audio_exposure_data_handler
FNDA:0,_RNCNCNCNvNtNtCs1yu0zy1SNdm_13self_sensored8handlers21environmental_handler30get_environmental_data_handler000Bb_
FNDA:0,_RNCNCNCNvNtNtCs1yu0zy1SNdm_13self_sensored8handlers21environmental_handler31get_audio_exposure_data_handler000Bb_
FNDA:0,_RNCNvNtNtCs1yu0zy1SNdm_13self_sensored8handlers21environmental_handler22get_environmental_data0B7_
FNDA:0,_RNCNvNtNtCs1yu0zy1SNdm_13self_sensored8handlers21environmental_handler23get_audio_exposure_data0B7_
FNDA:0,_RNCNvNtNtCs1yu0zy1SNdm_13self_sensored8handlers21environmental_handler25store_safety_event_metric0B7_
FNDA:0,_RNCNvNtNtCs1yu0zy1SNdm_13self_sensored8handlers21environmental_handler26store_environmental_metric0B7_
FNDA:0,_RNCNvNtNtCs1yu0zy1SNdm_13self_sensored8handlers21environmental_handler27store_audio_exposure_metric0B7_
FNDA:0,_RNCNvNtNtCs1yu0zy1SNdm_13self_sensored8handlers21environmental_handler28ingest_environmental_handler0B7_
FNDA:0,_RNCNvNtNtCs1yu0zy1SNdm_13self_sensored8handlers21environmental_handler28ingest_safety_events_handler0B7_
FNDA:0,_RNCNvNtNtCs1yu0zy1SNdm_13self_sensored8handlers21environmental_handler29ingest_audio_exposure_handler0B7_
FNDA:0,_RNCNvNtNtCs1yu0zy1SNdm_13self_sensored8handlers21environmental_handler30get_environmental_data_handler0B7_
FNDA:0,_RNCNvNtNtCs1yu0zy1SNdm_13self_sensored8handlers21environmental_handler31get_audio_exposure_data_handler0B7_
FNDA:0,_RNvNtNtCs1yu0zy1SNdm_13self_sensored8handlers21environmental_handler22get_environmental_data
FNDA:0,_RNvNtNtCs1yu0zy1SNdm_13self_sensored8handlers21environmental_handler23get_audio_exposure_data
FNDA:0,_RNvNtNtCs1yu0zy1SNdm_13self_sensored8handlers21environmental_handler25store_safety_event_metric
FNDA:0,_RNvNtNtCs1yu0zy1SNdm_13self_sensored8handlers21environmental_handler26store_environmental_metric
FNDA:0,_RNvNtNtCs1yu0zy1SNdm_13self_sensored8handlers21environmental_handler27store_audio_exposure_metric
FNDA:0,_RNvNtNtCs1yu0zy1SNdm_13self_sensored8handlers21environmental_handler28ingest_environmental_handler
FNDA:0,_RNvNtNtCs1yu0zy1SNdm_13self_sensored8handlers21environmental_handler28ingest_safety_events_handler
FNDA:0,_RNvNtNtCs1yu0zy1SNdm_13self_sensored8handlers21environmental_handler29ingest_audio_exposure_handler
FNDA:0,_RNvNtNtCs1yu0zy1SNdm_13self_sensored8handlers21environmental_handler30get_environmental_data_handler
FNDA:0,_RNvNtNtCs1yu0zy1SNdm_13self_sensored8handlers21environmental_handler31get_audio_exposure_data_handler
FNF:22
FNH:0
DA:52,0
DA:53,0
DA:54,0
DA:55,0
DA:56,0
DA:136,0
DA:140,0
DA:141,0
DA:142,0
DA:143,0
DA:144,0
DA:235,0
DA:239,0
DA:240,0
DA:241,0
DA:242,0
DA:243,0
DA:343,0
DA:347,0
DA:348,0
DA:349,0
DA:350,0
DA:351,0
DA:357,0
DA:358,0
DA:359,0
DA:384,0
DA:396,0
DA:397,0
DA:398,0
DA:399,0
DA:400,0
DA:406,0
DA:407,0
DA:408,0
DA:433,0
DA:438,0
DA:439,0
DA:440,0
DA:441,0
DA:442,0
DA:443,0
DA:478,0
DA:479,0
DA:481,0
DA:482,0
DA:485,0
DA:486,0
DA:487,0
DA:488,0
DA:489,0
DA:490,0
DA:530,0
DA:531,0
DA:533,0
DA:534,0
DA:537,0
DA:538,0
DA:539,0
DA:540,0
DA:541,0
DA:544,0
DA:562,0
DA:563,0
DA:565,0
DA:566,0
DA:569,0
DA:570,0
DA:571,0
DA:572,0
DA:573,0
DA:574,0
DA:575,0
DA:576,0
DA:577,0
DA:594,0
DA:595,0
DA:597,0
DA:598,0
DA:600,0
DA:606,0
DA:607,0
DA:609,0
DA:611,0
DA:612,0
DA:615,0
DA:616,0
DA:617,0
DA:618,0
DA:619,0
DA:620,0
DA:621,0
DA:622,0
DA:623,0
DA:642,0
DA:643,0
DA:645,0
DA:646,0
DA:648,0
DA:654,0
DA:655,0
DA:657,0
DA:659,0
DA:660,0
BRF:0
BRH:0
LF:114
LH:0
end_of_record
SF:/mnt/datadrive_m2/self-sensored/src/handlers/export.rs
FN:49,_RNCNCNCNvNtNtCs1yu0zy1SNdm_13self_sensored8handlers6export18export_health_data000Bb_
FN:56,_RNCNCNCNvNtNtCs1yu0zy1SNdm_13self_sensored8handlers6export18export_health_data00s_0Bb_
FN:115,_RNCNCNCNvNtNtCs1yu0zy1SNdm_13self_sensored8handlers6export22export_heart_rate_data000Bb_
FN:138,_RNCNCNCNvNtNtCs1yu0zy1SNdm_13self_sensored8handlers6export23export_activity_summary000Bb_
FN:363,_RNCNCNvNtNtCs1yu0zy1SNdm_13self_sensored8handlers6export13export_as_csv0s0_0B9_
FN:390,_RNCNCNvNtNtCs1yu0zy1SNdm_13self_sensored8handlers6export13export_as_csv0s2_0B9_
FN:415,_RNCNCNvNtNtCs1yu0zy1SNdm_13self_sensored8handlers6export13export_as_csv0s4_0B9_
FN:418,_RNCNCNvNtNtCs1yu0zy1SNdm_13self_sensored8handlers6export13export_as_csv0s5_0B9_
FN:421,_RNCNCNvNtNtCs1yu0zy1SNdm_13self_sensored8handlers6export13export_as_csv0s6_0B9_
FN:424,_RNCNCNvNtNtCs1yu0zy1SNdm_13self_sensored8handlers6export13export_as_csv0s7_0B9_
FN:425,_RNCNCNvNtNtCs1yu0zy1SNdm_13self_sensored8handlers6export13export_as_csv0s8_0B9_
FN:360,_RNCNCNvNtNtCs1yu0zy1SNdm_13self_sensored8handlers6export13export_as_csv0s_0B9_
FN:448,_RNCNCNvNtNtCs1yu0zy1SNdm_13self_sensored8handlers6export13export_as_csv0sa_0B9_
FN:451,_RNCNCNvNtNtCs1yu0zy1SNdm_13self_sensored8handlers6export13export_as_csv0sb_0B9_
FN:454,_RNCNCNvNtNtCs1yu0zy1SNdm_13self_sensored8handlers6export13export_as_csv0sc_0B9_
FN:457,_RNCNCNvNtNtCs1yu0zy1SNdm_13self_sensored8handlers6export13export_as_csv0sd_0B9_
FN:485,_RNCNCNvNtNtCs1yu0zy1SNdm_13self_sensored8handlers6export13export_as_csv0sf_0B9_
FN:489,_RNCNCNvNtNtCs1yu0zy1SNdm_13self_sensored8handlers6export13export_as_csv0sg_0B9_
FN:492,_RNCNCNvNtNtCs1yu0zy1SNdm_13self_sensored8handlers6export13export_as_csv0sh_0B9_
FN:626,_RNCNCNvNtNtCs1yu0zy1SNdm_13self_sensored8handlers6export21export_heart_rate_csv0s0_0B9_
FN:623,_RNCNCNvNtNtCs1yu0zy1SNdm_13self_sensored8handlers6export21export_heart_rate_csv0s_0B9_
FN:714,_RNCNCNvNtNtCs1yu0zy1SNdm_13self_sensored8handlers6export25export_activity_analytics00B9_
FN:331,_RNCNvNtNtCs1yu0zy1SNdm_13self_sensored8handlers6export13export_as_csv0B7_
FN:175,_RNCNvNtNtCs1yu0zy1SNdm_13self_sensored8handlers6export14export_as_json0B7_
FN:790,_RNCNvNtNtCs1yu0zy1SNdm_13self_sensored8handlers6export16fetch_sleep_data0B7_
FN:45,_RNCNvNtNtCs1yu0zy1SNdm_13self_sensored8handlers6export18export_health_data0B7_
FN:840,_RNCNvNtNtCs1yu0zy1SNdm_13self_sensored8handlers6export18fetch_workout_data0B7_
FN:815,_RNCNvNtNtCs1yu0zy1SNdm_13self_sensored8handlers6export19fetch_activity_data0B7_
FN:602,_RNCNvNtNtCs1yu0zy1SNdm_13self_sensored8handlers6export21export_heart_rate_csv0B7_
FN:744,_RNCNvNtNtCs1yu0zy1SNdm_13self_sensored8handlers6export21fetch_heart_rate_data0B7_
FN:111,_RNCNvNtNtCs1yu0zy1SNdm_13self_sensored8handlers6export22export_heart_rate_data0B7_
FN:543,_RNCNvNtNtCs1yu0zy1SNdm_13self_sensored8handlers6export22export_heart_rate_json0B7_
FN:135,_RNCNvNtNtCs1yu0zy1SNdm_13self_sensored8handlers6export23export_activity_summary0B7_
FN:694,_RNCNvNtNtCs1yu0zy1SNdm_13self_sensored8handlers6export25export_activity_analytics0B7_
FN:767,_RNCNvNtNtCs1yu0zy1SNdm_13self_sensored8handlers6export25fetch_blood_pressure_data0B7_
FN:324,_RNvNtNtCs1yu0zy1SNdm_13self_sensored8handlers6export13export_as_csv
FN:168,_RNvNtNtCs1yu0zy1SNdm_13self_sensored8handlers6export14export_as_json
FN:784,_RNvNtNtCs1yu0zy1SNdm_13self_sensored8handlers6export16fetch_sleep_data
FN:41,_RNvNtNtCs1yu0zy1SNdm_13self_sensored8handlers6export18export_health_data
FN:834,_RNvNtNtCs1yu0zy1SNdm_13self_sensored8handlers6export18fetch_workout_data
FN:809,_RNvNtNtCs1yu0zy1SNdm_13self_sensored8handlers6export19fetch_activity_data
FN:596,_RNvNtNtCs1yu0zy1SNdm_13self_sensored8handlers6export21export_heart_rate_csv
FN:738,_RNvNtNtCs1yu0zy1SNdm_13self_sensored8handlers6export21fetch_heart_rate_data
FN:107,_RNvNtNtCs1yu0zy1SNdm_13self_sensored8handlers6export22export_heart_rate_data
FN:537,_RNvNtNtCs1yu0zy1SNdm_13self_sensored8handlers6export22export_heart_rate_json
FN:131,_RNvNtNtCs1yu0zy1SNdm_13self_sensored8handlers6export23export_activity_summary
FN:689,_RNvNtNtCs1yu0zy1SNdm_13self_sensored8handlers6export25export_activity_analytics
FN:761,_RNvNtNtCs1yu0zy1SNdm_13self_sensored8handlers6export25fetch_blood_pressure_data
FNDA:0,_RNCNCNCNvNtNtCs1yu0zy1SNdm_13self_sensored8handlers6export18export_health_data000Bb_
FNDA:0,_RNCNCNCNvNtNtCs1yu0zy1SNdm_13self_sensored8handlers6export18export_health_data00s_0Bb_
FNDA:0,_RNCNCNCNvNtNtCs1yu0zy1SNdm_13self_sensored8handlers6export22export_heart_rate_data000Bb_
FNDA:0,_RNCNCNCNvNtNtCs1yu0zy1SNdm_13self_sensored8handlers6export23export_activity_summary000Bb_
FNDA:0,_RNCNCNvNtNtCs1yu0zy1SNdm_13self_sensored8handlers6export13export_as_csv0s0_0B9_
FNDA:0,_RNCNCNvNtNtCs1yu0zy1SNdm_13self_sensored8handlers6export13export_as_csv0s2_0B9_
FNDA:0,_RNCNCNvNtNtCs1yu0zy1SNdm_13self_sensored8handlers6export13export_as_csv0s4_0B9_
FNDA:0,_RNCNCNvNtNtCs1yu0zy1SNdm_13self_sensored8handlers6export13export_as_csv0s5_0B9_
FNDA:0,_RNCNCNvNtNtCs1yu0zy1SNdm_13self_sensored8handlers6export13export_as_csv0s6_0B9_
FNDA:0,_RNCNCNvNtNtCs1yu0zy1SNdm_13self_sensored8handlers6export13export_as_csv0s7_0B9_
FNDA:0,_RNCNCNvNtNtCs1yu0zy1SNdm_13self_sensored8handlers6export13export_as_csv0s8_0B9_
FNDA:0,_RNCNCNvNtNtCs1yu0zy1SNdm_13self_sensored8handlers6export13export_as_csv0s_0B9_
FNDA:0,_RNCNCNvNtNtCs1yu0zy1SNdm_13self_sensored8handlers6export13export_as_csv0sa_0B9_
FNDA:0,_RNCNCNvNtNtCs1yu0zy1SNdm_13self_sensored8handlers6export13export_as_csv0sb_0B9_
FNDA:0,_RNCNCNvNtNtCs1yu0zy1SNdm_13self_sensored8handlers6export13export_as_csv0sc_0B9_
FNDA:0,_RNCNCNvNtNtCs1yu0zy1SNdm_13self_sensored8handlers6export13export_as_csv0sd_0B9_
FNDA:0,_RNCNCNvNtNtCs1yu0zy1SNdm_13self_sensored8handlers6export13export_as_csv0sf_0B9_
FNDA:0,_RNCNCNvNtNtCs1yu0zy1SNdm_13self_sensored8handlers6export13export_as_csv0sg_0B9_
FNDA:0,_RNCNCNvNtNtCs1yu0zy1SNdm_13self_sensored8handlers6export13export_as_csv0sh_0B9_
FNDA:0,_RNCNCNvNtNtCs1yu0zy1SNdm_13self_sensored8handlers6export21export_heart_rate_csv0s0_0B9_
FNDA:0,_RNCNCNvNtNtCs1yu0zy1SNdm_13self_sensored8handlers6export21export_heart_rate_csv0s_0B9_
FNDA:0,_RNCNCNvNtNtCs1yu0zy1SNdm_13self_sensored8handlers6export25export_activity_analytics00B9_
FNDA:0,_RNCNvNtNtCs1yu0zy1SNdm_13self_sensored8handlers6export13export_as_csv0B7_
FNDA:0,_RNCNvNtNtCs1yu0zy1SNdm_13self_sensored8handlers6export14export_as_json0B7_
FNDA:0,_RNCNvNtNtCs1yu0zy1SNdm_13self_sensored8handlers6export16fetch_sleep_data0B7_
FNDA:0,_RNCNvNtNtCs1yu0zy1SNdm_13self_sensored8handlers6export18export_health_data0B7_
FNDA:0,_RNCNvNtNtCs1yu0zy1SNdm_13self_sensored8handlers6export18fetch_workout_data0B7_
FNDA:0,_RNCNvNtNtCs1yu0zy1SNdm_13self_sensored8handlers6export19fetch_activity_data0B7_
FNDA:0,_RNCNvNtNtCs1yu0zy1SNdm_13self_sensored8handlers6export21export_heart_rate_csv0B7_
FNDA:0,_RNCNvNtNtCs1yu0zy1SNdm_13self_sensored8handlers6export21fetch_heart_rate_data0B7_
FNDA:0,_RNCNvNtNtCs1yu0zy1SNdm_13self_sensored8handlers6export22export_heart_rate_data0B7_
FNDA:0,_RNCNvNtNtCs1yu0zy1SNdm_13self_sensored8handlers6export22export_heart_rate_json0B7_
FNDA:0,_RNCNvNtNtCs1yu0zy1SNdm_13self_sensored8handlers6export23export_activity_summary0B7_
FNDA:0,_RNCNvNtNtCs1yu0zy1SNdm_13self_sensored8handlers6export25export_activity_analytics0B7_
FNDA:0,_RNCNvNtNtCs1yu0zy1SNdm_13self_sensored8handlers6export25fetch_blood_pressure_data0B7_
FNDA:0,_RNvNtNtCs1yu0zy1SNdm_13self_sensored8handlers6export13export_as_csv
FNDA:0,_RNvNtNtCs1yu0zy1SNdm_13self_sensored8handlers6export14export_as_json
FNDA:0,_RNvNtNtCs1yu0zy1SNdm_13self_sensored8handlers6export16fetch_sleep_data
FNDA:0,_RNvNtNtCs1yu0zy1SNdm_13self_sensored8handlers6export18export_health_data
FNDA:0,_RNvNtNtCs1yu0zy1SNdm_13self_sensored8handlers6export18fetch_workout_data
FNDA:0,_RNvNtNtCs1yu0zy1SNdm_13self_sensored8handlers6export19fetch_activity_data
FNDA:0,_RNvNtNtCs1yu0zy1SNdm_13self_sensored8handlers6export21export_heart_rate_csv
FNDA:0,_RNvNtNtCs1yu0zy1SNdm_13self_sensored8handlers6export21fetch_heart_rate_data
FNDA:0,_RNvNtNtCs1yu0zy1SNdm_13self_sensored8handlers6export22export_heart_rate_data
FNDA:0,_RNvNtNtCs1yu0zy1SNdm_13self_sensored8handlers6export22export_heart_rate_json
FNDA:0,_RNvNtNtCs1yu0zy1SNdm_13self_sensored8handlers6export23export_activity_summary
FNDA:0,_RNvNtNtCs1yu0zy1SNdm_13self_sensored8handlers6export25export_activity_analytics
FNDA:0,_RNvNtNtCs1yu0zy1SNdm_13self_sensored8handlers6export25fetch_blood_pressure_data
FNF:48
FNH:0
DA:41,0
DA:42,0
DA:43,0
DA:44,0
DA:45,0
DA:49,0
DA:50,0
DA:51,0
DA:56,0
DA:103,0
DA:107,0
DA:108,0
DA:109,0
DA:110,0
DA:111,0
DA:115,0
DA:116,0
DA:117,0
DA:127,0
DA:131,0
DA:132,0
DA:133,0
DA:134,0
DA:135,0
DA:138,0
DA:141,0
DA:164,0
DA:168,0
DA:169,0
DA:170,0
DA:171,0
DA:172,0
DA:173,0
DA:174,0
DA:175,0
DA:176,0
DA:177,0
DA:180,0
DA:181,0
DA:182,0
DA:183,0
DA:184,0
DA:185,0
DA:187,0
DA:188,0
DA:189,0
DA:190,0
DA:191,0
DA:192,0
DA:193,0
DA:194,0
DA:195,0
DA:196,0
DA:197,0
DA:198,0
DA:201,0
DA:203,0
DA:204,0
DA:205,0
DA:206,0
DA:208,0
DA:209,0
DA:210,0
DA:211,0
DA:212,0
DA:213,0
DA:214,0
DA:215,0
DA:216,0
DA:217,0
DA:218,0
DA:219,0
DA:222,0
DA:224,0
DA:225,0
DA:226,0
DA:228,0
DA:229,0
DA:230,0
DA:231,0
DA:232,0
DA:233,0
DA:234,0
DA:235,0
DA:236,0
DA:237,0
DA:238,0
DA:239,0
DA:242,0
DA:244,0
DA:245,0
DA:246,0
DA:248,0
DA:249,0
DA:250,0
DA:251,0
DA:252,0
DA:253,0
DA:254,0
DA:255,0
DA:256,0
DA:257,0
DA:258,0
DA:259,0
DA:262,0
DA:264,0
DA:265,0
DA:266,0
DA:268,0
DA:269,0
DA:270,0
DA:271,0
DA:272,0
DA:273,0
DA:274,0
DA:275,0
DA:276,0
DA:277,0
DA:278,0
DA:279,0
DA:282,0
DA:284,0
DA:288,0
DA:289,0
DA:290,0
DA:291,0
DA:292,0
DA:293,0
DA:294,0
DA:296,0
DA:297,0
DA:298,0
DA:299,0
DA:300,0
DA:301,0
DA:302,0
DA:303,0
DA:304,0
DA:305,0
DA:306,0
DA:307,0
DA:312,0
DA:313,0
DA:314,0
DA:315,0
DA:316,0
DA:317,0
DA:318,0
DA:319,0
DA:320,0
DA:321,0
DA:322,0
DA:324,0
DA:325,0
DA:326,0
DA:327,0
DA:328,0
DA:329,0
DA:330,0
DA:331,0
DA:332,0
DA:333,0
DA:336,0
DA:337,0
DA:338,0
DA:340,0
DA:341,0
DA:342,0
DA:343,0
DA:344,0
DA:345,0
DA:346,0
DA:348,0
DA:349,0
DA:350,0
DA:351,0
DA:352,0
DA:353,0
DA:355,0
DA:356,0
DA:357,0
DA:358,0
DA:359,0
DA:360,0
DA:361,0
DA:362,0
DA:363,0
DA:364,0
DA:365,0
DA:367,0
DA:368,0
DA:369,0
DA:370,0
DA:371,0
DA:372,0
DA:373,0
DA:375,0
DA:376,0
DA:378,0
DA:379,0
DA:380,0
DA:381,0
DA:383,0
DA:384,0
DA:385,0
DA:386,0
DA:387,0
DA:390,0
DA:391,0
DA:393,0
DA:394,0
DA:395,0
DA:396,0
DA:397,0
DA:398,0
DA:399,0
DA:401,0
DA:402,0
DA:404,0
DA:405,0
DA:406,0
DA:408,0
DA:409,0
DA:410,0
DA:411,0
DA:412,0
DA:413,0
DA:414,0
DA:415,0
DA:416,0
DA:417,0
DA:418,0
DA:419,0
DA:420,0
DA:421,0
DA:422,0
DA:423,0
DA:424,0
DA:425,0
DA:426,0
DA:428,0
DA:429,0
DA:430,0
DA:431,0
DA:432,0
DA:433,0
DA:434,0
DA:436,0
DA:437,0
DA:439,0
DA:440,0
DA:441,0
DA:443,0
DA:444,0
DA:445,0
DA:446,0
DA:447,0
DA:448,0
DA:449,0
DA:450,0
DA:451,0
DA:452,0
DA:453,0
DA:454,0
DA:455,0
DA:456,0
DA:457,0
DA:458,0
DA:460,0
DA:461,0
DA:462,0
DA:463,0
DA:464,0
DA:465,0
DA:466,0
DA:468,0
DA:469,0
DA:471,0
DA:472,0
DA:473,0
DA:475,0
DA:476,0
DA:477,0
DA:478,0
DA:479,0
DA:481,0
DA:482,0
DA:483,0
DA:484,0
DA:485,0
DA:486,0
DA:487,0
DA:488,0
DA:489,0
DA:490,0
DA:491,0
DA:492,0
DA:493,0
DA:496,0
DA:497,0
DA:498,0
DA:499,0
DA:500,0
DA:501,0
DA:502,0
DA:504,0
DA:505,0
DA:507,0
DA:511,0
DA:512,0
DA:513,0
DA:514,0
DA:515,0
DA:516,0
DA:517,0
DA:518,0
DA:519,0
DA:520,0
DA:521,0
DA:522,0
DA:523,0
DA:525,0
DA:526,0
DA:527,0
DA:528,0
DA:529,0
DA:530,0
DA:531,0
DA:532,0
DA:533,0
DA:534,0
DA:535,0
DA:537,0
DA:538,0
DA:539,0
DA:540,0
DA:541,0
DA:542,0
DA:543,0
DA:544,0
DA:545,0
DA:546,0
DA:547,0
DA:548,0
DA:549,0
DA:550,0
DA:551,0
DA:552,0
DA:554,0
DA:555,0
DA:556,0
DA:557,0
DA:558,0
DA:559,0
DA:560,0
DA:561,0
DA:562,0
DA:563,0
DA:564,0
DA:565,0
DA:570,0
DA:571,0
DA:572,0
DA:573,0
DA:574,0
DA:575,0
DA:576,0
DA:577,0
DA:578,0
DA:579,0
DA:581,0
DA:582,0
DA:585,0
DA:587,0
DA:588,0
DA:589,0
DA:590,0
DA:591,0
DA:594,0
DA:596,0
DA:597,0
DA:598,0
DA:599,0
DA:600,0
DA:601,0
DA:602,0
DA:603,0
DA:604,0
DA:605,0
DA:606,0
DA:607,0
DA:608,0
DA:610,0
DA:611,0
DA:612,0
DA:613,0
DA:614,0
DA:615,0
DA:616,0
DA:618,0
DA:619,0
DA:620,0
DA:621,0
DA:622,0
DA:623,0
DA:624,0
DA:625,0
DA:626,0
DA:627,0
DA:628,0
DA:630,0
DA:631,0
DA:632,0
DA:633,0
DA:634,0
DA:635,0
DA:636,0
DA:639,0
DA:640,0
DA:641,0
DA:642,0
DA:643,0
DA:644,0
DA:645,0
DA:646,0
DA:647,0
DA:648,0
DA:649,0
DA:650,0
DA:651,0
DA:653,0
DA:654,0
DA:655,0
DA:656,0
DA:657,0
DA:658,0
DA:659,0
DA:660,0
DA:661,0
DA:662,0
DA:664,0
DA:665,0
DA:668,0
DA:670,0
DA:671,0
DA:672,0
DA:673,0
DA:674,0
DA:677,0
DA:689,0
DA:690,0
DA:691,0
DA:692,0
DA:693,0
DA:694,0
DA:695,0
DA:709,0
DA:710,0
DA:712,0
DA:713,0
DA:714,0
DA:715,0
DA:716,0
DA:717,0
DA:719,0
DA:722,0
DA:723,0
DA:724,0
DA:725,0
DA:726,0
DA:727,0
DA:728,0
DA:729,0
DA:730,0
DA:731,0
DA:733,0
DA:734,0
DA:738,0
DA:739,0
DA:740,0
DA:741,0
DA:742,0
DA:743,0
DA:744,0
DA:745,0
DA:757,0
DA:758,0
DA:759,0
DA:761,0
DA:762,0
DA:763,0
DA:764,0
DA:765,0
DA:766,0
DA:767,0
DA:768,0
DA:780,0
DA:781,0
DA:782,0
DA:784,0
DA:785,0
DA:786,0
DA:787,0
DA:788,0
DA:789,0
DA:790,0
DA:791,0
DA:805,0
DA:806,0
DA:807,0
DA:809,0
DA:810,0
DA:811,0
DA:812,0
DA:813,0
DA:814,0
DA:815,0
DA:816,0
DA:830,0
DA:831,0
DA:832,0
DA:834,0
DA:835,0
DA:836,0
DA:837,0
DA:838,0
DA:839,0
DA:840,0
DA:841,0
DA:855,0
DA:856,0
DA:857,0
BRF:0
BRH:0
LF:563
LH:0
end_of_record
SF:/mnt/datadrive_m2/self-sensored/src/handlers/health.rs
FN:112,_RNCNCNvNtNtCs1yu0zy1SNdm_13self_sensored8handlers6health10api_status0s0_0B9_
FN:90,_RNCNCNvNtNtCs1yu0zy1SNdm_13self_sensored8handlers6health10api_status0s_0B9_
FN:29,_RNCNCNvNtNtCs1yu0zy1SNdm_13self_sensored8handlers6health12health_check00B9_
FN:42,_RNCNCNvNtNtCs1yu0zy1SNdm_13self_sensored8handlers6health12health_check0s0_0B9_
FN:44,_RNCNCNvNtNtCs1yu0zy1SNdm_13self_sensored8handlers6health12health_check0s1_0B9_
FN:45,_RNCNCNvNtNtCs1yu0zy1SNdm_13self_sensored8handlers6health12health_check0s2_0B9_
FN:46,_RNCNCNvNtNtCs1yu0zy1SNdm_13self_sensored8handlers6health12health_check0s3_0B9_
FN:49,_RNCNCNvNtNtCs1yu0zy1SNdm_13self_sensored8handlers6health12health_check0s4_0B9_
FN:50,_RNCNCNvNtNtCs1yu0zy1SNdm_13self_sensored8handlers6health12health_check0s5_0B9_
FN:51,_RNCNCNvNtNtCs1yu0zy1SNdm_13self_sensored8handlers6health12health_check0s6_0B9_
FN:231,_RNCNCNvNtNtCs1yu0zy1SNdm_13self_sensored8handlers6health18check_redis_health00B9_
FN:71,_RNCNvNtNtCs1yu0zy1SNdm_13self_sensored8handlers6health10api_status0B7_
FN:16,_RNCNvNtNtCs1yu0zy1SNdm_13self_sensored8handlers6health12health_check0B7_
FN:149,_RNCNvNtNtCs1yu0zy1SNdm_13self_sensored8handlers6health14liveness_probe0B7_
FN:159,_RNCNvNtNtCs1yu0zy1SNdm_13self_sensored8handlers6health15readiness_probe0B7_
FN:229,_RNCNvNtNtCs1yu0zy1SNdm_13self_sensored8handlers6health18check_redis_health0B7_
FN:203,_RNCNvNtNtCs1yu0zy1SNdm_13self_sensored8handlers6health21check_database_health0B7_
FN:71,_RNvNtNtCs1yu0zy1SNdm_13self_sensored8handlers6health10api_status
FN:16,_RNvNtNtCs1yu0zy1SNdm_13self_sensored8handlers6health12health_check
FN:149,_RNvNtNtCs1yu0zy1SNdm_13self_sensored8handlers6health14liveness_probe
FN:159,_RNvNtNtCs1yu0zy1SNdm_13self_sensored8handlers6health15readiness_probe
FN:229,_RNvNtNtCs1yu0zy1SNdm_13self_sensored8handlers6health18check_redis_health
FN:203,_RNvNtNtCs1yu0zy1SNdm_13self_sensored8handlers6health21check_database_health
FNDA:0,_RNCNCNvNtNtCs1yu0zy1SNdm_13self_sensored8handlers6health10api_status0s0_0B9_
FNDA:0,_RNCNCNvNtNtCs1yu0zy1SNdm_13self_sensored8handlers6health10api_status0s_0B9_
FNDA:0,_RNCNCNvNtNtCs1yu0zy1SNdm_13self_sensored8handlers6health12health_check00B9_
FNDA:0,_RNCNCNvNtNtCs1yu0zy1SNdm_13self_sensored8handlers6health12health_check0s0_0B9_
FNDA:0,_RNCNCNvNtNtCs1yu0zy1SNdm_13self_sensored8handlers6health12health_check0s1_0B9_
FNDA:0,_RNCNCNvNtNtCs1yu0zy1SNdm_13self_sensored8handlers6health12health_check0s2_0B9_
FNDA:0,_RNCNCNvNtNtCs1yu0zy1SNdm_13self_sensored8handlers6health12health_check0s3_0B9_
FNDA:0,_RNCNCNvNtNtCs1yu0zy1SNdm_13self_sensored8handlers6health12health_check0s4_0B9_
FNDA:0,_RNCNCNvNtNtCs1yu0zy1SNdm_13self_sensored8handlers6health12health_check0s5_0B9_
FNDA:0,_RNCNCNvNtNtCs1yu0zy1SNdm_13self_sensored8handlers6health12health_check0s6_0B9_
FNDA:0,_RNCNCNvNtNtCs1yu0zy1SNdm_13self_sensored8handlers6health18check_redis_health00B9_
FNDA:0,_RNCNvNtNtCs1yu0zy1SNdm_13self_sensored8handlers6health10api_status0B7_
FNDA:0,_RNCNvNtNtCs1yu0zy1SNdm_13self_sensored8handlers6health12health_check0B7_
FNDA:0,_RNCNvNtNtCs1yu0zy1SNdm_13self_sensored8handlers6health14liveness_probe0B7_
FNDA:0,_RNCNvNtNtCs1yu0zy1SNdm_13self_sensored8handlers6health15readiness_probe0B7_
FNDA:0,_RNCNvNtNtCs1yu0zy1SNdm_13self_sensored8handlers6health18check_redis_health0B7_
FNDA:0,_RNCNvNtNtCs1yu0zy1SNdm_13self_sensored8handlers6health21check_database_health0B7_
FNDA:0,_RNvNtNtCs1yu0zy1SNdm_13self_sensored8handlers6health10api_status
FNDA:0,_RNvNtNtCs1yu0zy1SNdm_13self_sensored8handlers6health12health_check
FNDA:0,_RNvNtNtCs1yu0zy1SNdm_13self_sensored8handlers6health14liveness_probe
FNDA:0,_RNvNtNtCs1yu0zy1SNdm_13self_sensored8handlers6health15readiness_probe
FNDA:0,_RNvNtNtCs1yu0zy1SNdm_13self_sensored8handlers6health18check_redis_health
FNDA:0,_RNvNtNtCs1yu0zy1SNdm_13self_sensored8handlers6health21check_database_health
FNF:23
FNH:0
DA:16,0
DA:17,0
DA:18,0
DA:20,0
DA:23,0
DA:24,0
DA:27,0
DA:28,0
DA:29,0
DA:30,0
DA:33,0
DA:34,0
DA:35,0
DA:36,0
DA:37,0
DA:38,0
DA:39,0
DA:40,0
DA:41,0
DA:42,0
DA:43,0
DA:44,0
DA:45,0
DA:46,0
DA:48,0
DA:49,0
DA:50,0
DA:51,0
DA:53,0
DA:54,0
DA:55,0
DA:56,0
DA:57,0
DA:62,0
DA:63,0
DA:64,0
DA:65,0
DA:66,0
DA:67,0
DA:68,0
DA:71,0
DA:72,0
DA:73,0
DA:75,0
DA:78,0
DA:81,0
DA:83,0
DA:85,0
DA:86,0
DA:87,0
DA:88,0
DA:89,0
DA:90,0
DA:91,0
DA:92,0
DA:93,0
DA:94,0
DA:96,0
DA:97,0
DA:98,0
DA:100,0
DA:101,0
DA:102,0
DA:104,0
DA:105,0
DA:106,0
DA:107,0
DA:109,0
DA:110,0
DA:111,0
DA:112,0
DA:113,0
DA:115,0
DA:116,0
DA:117,0
DA:118,0
DA:123,0
DA:124,0
DA:126,0
DA:128,0
DA:131,0
DA:132,0
DA:134,0
DA:137,0
DA:138,0
DA:139,0
DA:140,0
DA:141,0
DA:142,0
DA:143,0
DA:144,0
DA:145,0
DA:146,0
DA:149,0
DA:150,0
DA:151,0
DA:152,0
DA:153,0
DA:154,0
DA:155,0
DA:156,0
DA:159,0
DA:160,0
DA:163,0
DA:164,0
DA:166,0
DA:169,0
DA:170,0
DA:171,0
DA:173,0
DA:174,0
DA:175,0
DA:176,0
DA:177,0
DA:178,0
DA:180,0
DA:181,0
DA:182,0
DA:184,0
DA:185,0
DA:188,0
DA:189,0
DA:191,0
DA:194,0
DA:195,0
DA:196,0
DA:197,0
DA:198,0
DA:199,0
DA:200,0
DA:203,0
DA:204,0
DA:206,0
DA:207,0
DA:208,0
DA:211,0
DA:212,0
DA:213,0
DA:215,0
DA:216,0
DA:217,0
DA:218,0
DA:219,0
DA:222,0
DA:223,0
DA:226,0
DA:229,0
DA:230,0
DA:231,0
DA:234,0
DA:235,0
DA:236,0
DA:238,0
DA:240,0
DA:241,0
DA:242,0
DA:244,0
DA:245,0
DA:246,0
DA:248,0
DA:249,0
DA:250,0
DA:251,0
DA:254,0
DA:255,0
DA:256,0
DA:257,0
DA:258,0
DA:261,0
DA:264,0
DA:265,0
DA:266,0
DA:267,0
DA:268,0
DA:271,0
DA:274,0
BRF:0
BRH:0
LF:193
LH:0
end_of_record
SF:/mnt/datadrive_m2/self-sensored/src/handlers/hygiene_handler.rs
FN:338,_RNCNCNCNvNtNtCs1yu0zy1SNdm_13self_sensored8handlers15hygiene_handler16get_hygiene_data000Bb_
FN:428,_RNCNCNCNvNtNtCs1yu0zy1SNdm_13self_sensored8handlers15hygiene_handler16get_hygiene_data00s_0Bb_
FN:619,_RNCNCNCNvNtNtCs1yu0zy1SNdm_13self_sensored8handlers15hygiene_handler31generate_habit_strength_summary000Bb_
FN:523,_RNCNCNvNtNtCs1yu0zy1SNdm_13self_sensored8handlers15hygiene_handler25generate_hygiene_analysis00B9_
FN:539,_RNCNCNvNtNtCs1yu0zy1SNdm_13self_sensored8handlers15hygiene_handler25generate_hygiene_analysis0s0_0B9_
FN:544,_RNCNCNvNtNtCs1yu0zy1SNdm_13self_sensored8handlers15hygiene_handler25generate_hygiene_analysis0s1_0B9_
FN:549,_RNCNCNvNtNtCs1yu0zy1SNdm_13self_sensored8handlers15hygiene_handler25generate_hygiene_analysis0s2_0B9_
FN:528,_RNCNCNvNtNtCs1yu0zy1SNdm_13self_sensored8handlers15hygiene_handler25generate_hygiene_analysis0s_0B9_
FN:616,_RNCNCNvNtNtCs1yu0zy1SNdm_13self_sensored8handlers15hygiene_handler31generate_habit_strength_summary00B9_
FN:624,_RNCNCNvNtNtCs1yu0zy1SNdm_13self_sensored8handlers15hygiene_handler31generate_habit_strength_summary0s0_0B9_
FN:628,_RNCNCNvNtNtCs1yu0zy1SNdm_13self_sensored8handlers15hygiene_handler31generate_habit_strength_summary0s1_0B9_
FN:629,_RNCNCNvNtNtCs1yu0zy1SNdm_13self_sensored8handlers15hygiene_handler31generate_habit_strength_summary0s2_0B9_
FN:634,_RNCNCNvNtNtCs1yu0zy1SNdm_13self_sensored8handlers15hygiene_handler31generate_habit_strength_summary0s3_0B9_
FN:621,_RNCNCNvNtNtCs1yu0zy1SNdm_13self_sensored8handlers15hygiene_handler31generate_habit_strength_summary0s_0B9_
FN:200,_RNCNvNtNtCs1yu0zy1SNdm_13self_sensored8handlers15hygiene_handler14ingest_hygiene0B7_
FN:323,_RNCNvNtNtCs1yu0zy1SNdm_13self_sensored8handlers15hygiene_handler16get_hygiene_data0B7_
FN:703,_RNCNvNtNtCs1yu0zy1SNdm_13self_sensored8handlers15hygiene_handler24get_hygiene_events_count0B7_
FN:519,_RNCNvNtNtCs1yu0zy1SNdm_13self_sensored8handlers15hygiene_handler25generate_hygiene_analysis0B7_
FN:840,_RNCNvNtNtCs1yu0zy1SNdm_13self_sensored8handlers15hygiene_handler26generate_hygiene_analytics0B7_
FN:858,_RNCNvNtNtCs1yu0zy1SNdm_13self_sensored8handlers15hygiene_handler26generate_hygiene_analyticss0_0B7_
FN:845,_RNCNvNtNtCs1yu0zy1SNdm_13self_sensored8handlers15hygiene_handler26generate_hygiene_analyticss_0B7_
FN:754,_RNCNvNtNtCs1yu0zy1SNdm_13self_sensored8handlers15hygiene_handler27generate_compliance_summary0B7_
FN:765,_RNCNvNtNtCs1yu0zy1SNdm_13self_sensored8handlers15hygiene_handler27generate_compliance_summarys0_0B7_
FN:776,_RNCNvNtNtCs1yu0zy1SNdm_13self_sensored8handlers15hygiene_handler27generate_compliance_summarys1_0B7_
FN:786,_RNCNvNtNtCs1yu0zy1SNdm_13self_sensored8handlers15hygiene_handler27generate_compliance_summarys2_0B7_
FN:792,_RNCNvNtNtCs1yu0zy1SNdm_13self_sensored8handlers15hygiene_handler27generate_compliance_summarys3_0B7_
FN:759,_RNCNvNtNtCs1yu0zy1SNdm_13self_sensored8handlers15hygiene_handler27generate_compliance_summarys_0B7_
FN:583,_RNCNvNtNtCs1yu0zy1SNdm_13self_sensored8handlers15hygiene_handler30calculate_guideline_compliance0B7_
FN:593,_RNCNvNtNtCs1yu0zy1SNdm_13self_sensored8handlers15hygiene_handler31generate_habit_strength_summary0B7_
FN:480,_RNCNvNtNtCs1yu0zy1SNdm_13self_sensored8handlers15hygiene_handler33convert_hygiene_request_to_metric0B7_
FN:194,_RNvNtNtCs1yu0zy1SNdm_13self_sensored8handlers15hygiene_handler14ingest_hygiene
FN:319,_RNvNtNtCs1yu0zy1SNdm_13self_sensored8handlers15hygiene_handler16get_hygiene_data
FN:697,_RNvNtNtCs1yu0zy1SNdm_13self_sensored8handlers15hygiene_handler24get_hygiene_events_count
FN:515,_RNvNtNtCs1yu0zy1SNdm_13self_sensored8handlers15hygiene_handler25generate_hygiene_analysis
FN:822,_RNvNtNtCs1yu0zy1SNdm_13self_sensored8handlers15hygiene_handler26generate_hygiene_analytics
FN:751,_RNvNtNtCs1yu0zy1SNdm_13self_sensored8handlers15hygiene_handler27generate_compliance_summary
FN:576,_RNvNtNtCs1yu0zy1SNdm_13self_sensored8handlers15hygiene_handler30calculate_guideline_compliance
FN:590,_RNvNtNtCs1yu0zy1SNdm_13self_sensored8handlers15hygiene_handler31generate_habit_strength_summary
FN:646,_RNvNtNtCs1yu0zy1SNdm_13self_sensored8handlers15hygiene_handler31generate_public_health_insights
FN:473,_RNvNtNtCs1yu0zy1SNdm_13self_sensored8handlers15hygiene_handler33convert_hygiene_request_to_metric
FNDA:0,_RNCNCNCNvNtNtCs1yu0zy1SNdm_13self_sensored8handlers15hygiene_handler16get_hygiene_data000Bb_
FNDA:0,_RNCNCNCNvNtNtCs1yu0zy1SNdm_13self_sensored8handlers15hygiene_handler16get_hygiene_data00s_0Bb_
FNDA:0,_RNCNCNCNvNtNtCs1yu0zy1SNdm_13self_sensored8handlers15hygiene_handler31generate_habit_strength_summary000Bb_
FNDA:0,_RNCNCNvNtNtCs1yu0zy1SNdm_13self_sensored8handlers15hygiene_handler25generate_hygiene_analysis00B9_
FNDA:0,_RNCNCNvNtNtCs1yu0zy1SNdm_13self_sensored8handlers15hygiene_handler25generate_hygiene_analysis0s0_0B9_
FNDA:0,_RNCNCNvNtNtCs1yu0zy1SNdm_13self_sensored8handlers15hygiene_handler25generate_hygiene_analysis0s1_0B9_
FNDA:0,_RNCNCNvNtNtCs1yu0zy1SNdm_13self_sensored8handlers15hygiene_handler25generate_hygiene_analysis0s2_0B9_
FNDA:0,_RNCNCNvNtNtCs1yu0zy1SNdm_13self_sensored8handlers15hygiene_handler25generate_hygiene_analysis0s_0B9_
FNDA:0,_RNCNCNvNtNtCs1yu0zy1SNdm_13self_sensored8handlers15hygiene_handler31generate_habit_strength_summary00B9_
FNDA:0,_RNCNCNvNtNtCs1yu0zy1SNdm_13self_sensored8handlers15hygiene_handler31generate_habit_strength_summary0s0_0B9_
FNDA:0,_RNCNCNvNtNtCs1yu0zy1SNdm_13self_sensored8handlers15hygiene_handler31generate_habit_strength_summary0s1_0B9_
FNDA:0,_RNCNCNvNtNtCs1yu0zy1SNdm_13self_sensored8handlers15hygiene_handler31generate_habit_strength_summary0s2_0B9_
FNDA:0,_RNCNCNvNtNtCs1yu0zy1SNdm_13self_sensored8handlers15hygiene_handler31generate_habit_strength_summary0s3_0B9_
FNDA:0,_RNCNCNvNtNtCs1yu0zy1SNdm_13self_sensored8handlers15hygiene_handler31generate_habit_strength_summary0s_0B9_
FNDA:0,_RNCNvNtNtCs1yu0zy1SNdm_13self_sensored8handlers15hygiene_handler14ingest_hygiene0B7_
FNDA:0,_RNCNvNtNtCs1yu0zy1SNdm_13self_sensored8handlers15hygiene_handler16get_hygiene_data0B7_
FNDA:0,_RNCNvNtNtCs1yu0zy1SNdm_13self_sensored8handlers15hygiene_handler24get_hygiene_events_count0B7_
FNDA:0,_RNCNvNtNtCs1yu0zy1SNdm_13self_sensored8handlers15hygiene_handler25generate_hygiene_analysis0B7_
FNDA:0,_RNCNvNtNtCs1yu0zy1SNdm_13self_sensored8handlers15hygiene_handler26generate_hygiene_analytics0B7_
FNDA:0,_RNCNvNtNtCs1yu0zy1SNdm_13self_sensored8handlers15hygiene_handler26generate_hygiene_analyticss0_0B7_
FNDA:0,_RNCNvNtNtCs1yu0zy1SNdm_13self_sensored8handlers15hygiene_handler26generate_hygiene_analyticss_0B7_
FNDA:0,_RNCNvNtNtCs1yu0zy1SNdm_13self_sensored8handlers15hygiene_handler27generate_compliance_summary0B7_
FNDA:0,_RNCNvNtNtCs1yu0zy1SNdm_13self_sensored8handlers15hygiene_handler27generate_compliance_summarys0_0B7_
FNDA:0,_RNCNvNtNtCs1yu0zy1SNdm_13self_sensored8handlers15hygiene_handler27generate_compliance_summarys1_0B7_
FNDA:0,_RNCNvNtNtCs1yu0zy1SNdm_13self_sensored8handlers15hygiene_handler27generate_compliance_summarys2_0B7_
FNDA:0,_RNCNvNtNtCs1yu0zy1SNdm_13self_sensored8handlers15hygiene_handler27generate_compliance_summarys3_0B7_
FNDA:0,_RNCNvNtNtCs1yu0zy1SNdm_13self_sensored8handlers15hygiene_handler27generate_compliance_summarys_0B7_
FNDA:0,_RNCNvNtNtCs1yu0zy1SNdm_13self_sensored8handlers15hygiene_handler30calculate_guideline_compliance0B7_
FNDA:0,_RNCNvNtNtCs1yu0zy1SNdm_13self_sensored8handlers15hygiene_handler31generate_habit_strength_summary0B7_
FNDA:0,_RNCNvNtNtCs1yu0zy1SNdm_13self_sensored8handlers15hygiene_handler33convert_hygiene_request_to_metric0B7_
FNDA:0,_RNvNtNtCs1yu0zy1SNdm_13self_sensored8handlers15hygiene_handler14ingest_hygiene
FNDA:0,_RNvNtNtCs1yu0zy1SNdm_13self_sensored8handlers15hygiene_handler16get_hygiene_data
FNDA:0,_RNvNtNtCs1yu0zy1SNdm_13self_sensored8handlers15hygiene_handler24get_hygiene_events_count
FNDA:0,_RNvNtNtCs1yu0zy1SNdm_13self_sensored8handlers15hygiene_handler25generate_hygiene_analysis
FNDA:0,_RNvNtNtCs1yu0zy1SNdm_13self_sensored8handlers15hygiene_handler26generate_hygiene_analytics
FNDA:0,_RNvNtNtCs1yu0zy1SNdm_13self_sensored8handlers15hygiene_handler27generate_compliance_summary
FNDA:0,_RNvNtNtCs1yu0zy1SNdm_13self_sensored8handlers15hygiene_handler30calculate_guideline_compliance
FNDA:0,_RNvNtNtCs1yu0zy1SNdm_13self_sensored8handlers15hygiene_handler31generate_habit_strength_summary
FNDA:0,_RNvNtNtCs1yu0zy1SNdm_13self_sensored8handlers15hygiene_handler31generate_public_health_insights
FNDA:0,_RNvNtNtCs1yu0zy1SNdm_13self_sensored8handlers15hygiene_handler33convert_hygiene_request_to_metric
FNF:40
FNH:0
DA:194,0
DA:195,0
DA:196,0
DA:197,0
DA:198,0
DA:199,0
DA:200,0
DA:202,0
DA:315,0
DA:319,0
DA:320,0
DA:321,0
DA:322,0
DA:323,0
DA:324,0
DA:338,0
DA:428,0
DA:429,0
DA:430,0
DA:431,0
DA:432,0
DA:433,0
DA:434,0
DA:435,0
DA:436,0
DA:437,0
DA:438,0
DA:439,0
DA:440,0
DA:441,0
DA:470,0
DA:473,0
DA:474,0
DA:475,0
DA:476,0
DA:477,0
DA:479,0
DA:480,0
DA:482,0
DA:483,0
DA:484,0
DA:485,0
DA:486,0
DA:487,0
DA:488,0
DA:489,0
DA:490,0
DA:491,0
DA:492,0
DA:493,0
DA:494,0
DA:495,0
DA:496,0
DA:497,0
DA:498,0
DA:499,0
DA:500,0
DA:501,0
DA:502,0
DA:503,0
DA:504,0
DA:505,0
DA:506,0
DA:509,0
DA:511,0
DA:512,0
DA:515,0
DA:516,0
DA:517,0
DA:518,0
DA:519,0
DA:521,0
DA:522,0
DA:523,0
DA:524,0
DA:526,0
DA:527,0
DA:528,0
DA:529,0
DA:531,0
DA:532,0
DA:534,0
DA:537,0
DA:538,0
DA:539,0
DA:540,0
DA:542,0
DA:543,0
DA:544,0
DA:545,0
DA:547,0
DA:548,0
DA:549,0
DA:550,0
DA:553,0
DA:556,0
DA:557,0
DA:558,0
DA:559,0
DA:560,0
DA:563,0
DA:564,0
DA:565,0
DA:566,0
DA:567,0
DA:568,0
DA:569,0
DA:570,0
DA:571,0
DA:572,0
DA:573,0
DA:576,0
DA:577,0
DA:578,0
DA:579,0
DA:581,0
DA:582,0
DA:583,0
DA:584,0
DA:586,0
DA:587,0
DA:590,0
DA:591,0
DA:592,0
DA:593,0
DA:595,0
DA:611,0
DA:612,0
DA:614,0
DA:615,0
DA:616,0
DA:617,0
DA:618,0
DA:619,0
DA:620,0
DA:621,0
DA:622,0
DA:624,0
DA:626,0
DA:627,0
DA:628,0
DA:629,0
DA:630,0
DA:632,0
DA:633,0
DA:634,0
DA:635,0
DA:637,0
DA:638,0
DA:639,0
DA:640,0
DA:641,0
DA:642,0
DA:643,0
DA:646,0
DA:647,0
DA:648,0
DA:649,0
DA:650,0
DA:651,0
DA:652,0
DA:653,0
DA:655,0
DA:658,0
DA:659,0
DA:661,0
DA:664,0
DA:666,0
DA:667,0
DA:668,0
DA:669,0
DA:671,0
DA:672,0
DA:673,0
DA:674,0
DA:675,0
DA:677,0
DA:678,0
DA:679,0
DA:681,0
DA:682,0
DA:683,0
DA:684,0
DA:686,0
DA:688,0
DA:689,0
DA:690,0
DA:691,0
DA:692,0
DA:693,0
DA:694,0
DA:697,0
DA:698,0
DA:699,0
DA:700,0
DA:701,0
DA:702,0
DA:703,0
DA:704,0
DA:705,0
DA:706,0
DA:707,0
DA:708,0
DA:709,0
DA:711,0
DA:712,0
DA:713,0
DA:715,0
DA:716,0
DA:717,0
DA:718,0
DA:719,0
DA:721,0
DA:722,0
DA:723,0
DA:724,0
DA:725,0
DA:727,0
DA:728,0
DA:729,0
DA:730,0
DA:731,0
DA:732,0
DA:733,0
DA:734,0
DA:735,0
DA:738,0
DA:739,0
DA:740,0
DA:741,0
DA:742,0
DA:743,0
DA:747,0
DA:748,0
DA:751,0
DA:752,0
DA:753,0
DA:754,0
DA:755,0
DA:757,0
DA:758,0
DA:759,0
DA:760,0
DA:762,0
DA:763,0
DA:764,0
DA:765,0
DA:766,0
DA:767,0
DA:770,0
DA:773,0
DA:774,0
DA:775,0
DA:776,0
DA:777,0
DA:778,0
DA:781,0
DA:784,0
DA:785,0
DA:786,0
DA:787,0
DA:789,0
DA:790,0
DA:791,0
DA:792,0
DA:793,0
DA:794,0
DA:797,0
DA:800,0
DA:801,0
DA:802,0
DA:803,0
DA:804,0
DA:805,0
DA:807,0
DA:810,0
DA:811,0
DA:812,0
DA:813,0
DA:814,0
DA:815,0
DA:816,0
DA:817,0
DA:818,0
DA:819,0
DA:822,0
DA:823,0
DA:824,0
DA:825,0
DA:826,0
DA:827,0
DA:828,0
DA:831,0
DA:832,0
DA:833,0
DA:834,0
DA:835,0
DA:838,0
DA:839,0
DA:840,0
DA:841,0
DA:843,0
DA:844,0
DA:845,0
DA:846,0
DA:848,0
DA:849,0
DA:850,0
DA:852,0
DA:856,0
DA:857,0
DA:858,0
DA:859,0
DA:861,0
DA:862,0
DA:864,0
DA:868,0
DA:869,0
DA:870,0
DA:871,0
DA:872,0
DA:873,0
DA:875,0
DA:876,0
DA:877,0
DA:878,0
DA:879,0
DA:880,0
DA:881,0
DA:882,0
BRF:0
BRH:0
LF:358
LH:0
end_of_record
SF:/mnt/datadrive_m2/self-sensored/src/handlers/ingest.rs
FN:947,_RINvNtNtCs1yu0zy1SNdm_13self_sensored8handlers6ingest24parse_with_error_contextpEB6_
FN:79,_RNCNCNCNvNtNtCs1yu0zy1SNdm_13self_sensored8handlers6ingest14ingest_handler000Bb_
FN:259,_RNCNCNCNvNtNtCs1yu0zy1SNdm_13self_sensored8handlers6ingest14ingest_handler00s0_0Bb_
FN:332,_RNCNCNCNvNtNtCs1yu0zy1SNdm_13self_sensored8handlers6ingest14ingest_handler00s1_0Bb_
FN:346,_RNCNCNCNvNtNtCs1yu0zy1SNdm_13self_sensored8handlers6ingest14ingest_handler00s2_0Bb_
FN:80,_RNCNCNCNvNtNtCs1yu0zy1SNdm_13self_sensored8handlers6ingest14ingest_handler00s_0Bb_
FN:617,_RNCNCNvNtNtCs1yu0zy1SNdm_13self_sensored8handlers6ingest17store_raw_payload00B9_
FN:838,_RNCNCNvNtNtCs1yu0zy1SNdm_13self_sensored8handlers6ingest24update_processing_status00B9_
FN:1128,_RNCNCNvNtNtCs1yu0zy1SNdm_13self_sensored8handlers6ingest30spawn_complete_processing_task00B9_
FN:1145,_RNCNCNvNtNtCs1yu0zy1SNdm_13self_sensored8handlers6ingest30spawn_complete_processing_task0s_0B9_
FN:70,_RNCNvNtNtCs1yu0zy1SNdm_13self_sensored8handlers6ingest14ingest_handler0B7_
FN:602,_RNCNvNtNtCs1yu0zy1SNdm_13self_sensored8handlers6ingest17store_raw_payload0B7_
FN:679,_RNCNvNtNtCs1yu0zy1SNdm_13self_sensored8handlers6ingest22save_corrupted_payload0B7_
FN:576,_RNCNvNtNtCs1yu0zy1SNdm_13self_sensored8handlers6ingest23check_duplicate_payload0B7_
FN:631,_RNCNvNtNtCs1yu0zy1SNdm_13self_sensored8handlers6ingest23store_raw_payload_bytes0B7_
FN:1249,_RNCNvNtNtCs1yu0zy1SNdm_13self_sensored8handlers6ingest23update_processing_stage0B7_
FN:733,_RNCNvNtNtCs1yu0zy1SNdm_13self_sensored8handlers6ingest24update_processing_status0B7_
FN:1272,_RNCNvNtNtCs1yu0zy1SNdm_13self_sensored8handlers6ingest25update_processing_failure0B7_
FN:886,_RNCNvNtNtCs1yu0zy1SNdm_13self_sensored8handlers6ingest26parse_ios_payload_enhanced0B7_
FN:1057,_RNCNvNtNtCs1yu0zy1SNdm_13self_sensored8handlers6ingest30spawn_complete_processing_task0B7_
FN:34,_RNCNvXININtNtCs1yu0zy1SNdm_13self_sensored8handlers6ingest0pEINtB7_10LoggedJsonpENtNtCs1IdqjQepwc8_9actix_web7extract11FromRequest12from_request0Bb_
FN:65,_RNvNtNtCs1yu0zy1SNdm_13self_sensored8handlers6ingest14ingest_handler
FN:490,_RNvNtNtCs1yu0zy1SNdm_13self_sensored8handlers6ingest16validate_metrics
FN:597,_RNvNtNtCs1yu0zy1SNdm_13self_sensored8handlers6ingest17store_raw_payload
FN:507,_RNvNtNtCs1yu0zy1SNdm_13self_sensored8handlers6ingest17validate_workouts
FN:674,_RNvNtNtCs1yu0zy1SNdm_13self_sensored8handlers6ingest22save_corrupted_payload
FN:572,_RNvNtNtCs1yu0zy1SNdm_13self_sensored8handlers6ingest23check_duplicate_payload
FN:626,_RNvNtNtCs1yu0zy1SNdm_13self_sensored8handlers6ingest23store_raw_payload_bytes
FN:1245,_RNvNtNtCs1yu0zy1SNdm_13self_sensored8handlers6ingest23update_processing_stage
FN:526,_RNvNtNtCs1yu0zy1SNdm_13self_sensored8handlers6ingest23validate_single_workout
FN:728,_RNvNtNtCs1yu0zy1SNdm_13self_sensored8handlers6ingest24update_processing_status
FN:1267,_RNvNtNtCs1yu0zy1SNdm_13self_sensored8handlers6ingest25update_processing_failure
FN:883,_RNvNtNtCs1yu0zy1SNdm_13self_sensored8handlers6ingest26parse_ios_payload_enhanced
FN:963,_RNvNtNtCs1yu0zy1SNdm_13self_sensored8handlers6ingest28sanitize_payload_for_logging
FN:993,_RNvNtNtCs1yu0zy1SNdm_13self_sensored8handlers6ingest29validate_json_structure_basic
FN:1051,_RNvNtNtCs1yu0zy1SNdm_13self_sensored8handlers6ingest30spawn_complete_processing_task
FN:30,_RNvXININtNtCs1yu0zy1SNdm_13self_sensored8handlers6ingest0pEINtB5_10LoggedJsonpENtNtCs1IdqjQepwc8_9actix_web7extract11FromRequest12from_requestB9_
FNDA:0,_RINvNtNtCs1yu0zy1SNdm_13self_sensored8handlers6ingest24parse_with_error_contextpEB6_
FNDA:0,_RNCNCNCNvNtNtCs1yu0zy1SNdm_13self_sensored8handlers6ingest14ingest_handler000Bb_
FNDA:0,_RNCNCNCNvNtNtCs1yu0zy1SNdm_13self_sensored8handlers6ingest14ingest_handler00s0_0Bb_
FNDA:0,_RNCNCNCNvNtNtCs1yu0zy1SNdm_13self_sensored8handlers6ingest14ingest_handler00s1_0Bb_
FNDA:0,_RNCNCNCNvNtNtCs1yu0zy1SNdm_13self_sensored8handlers6ingest14ingest_handler00s2_0Bb_
FNDA:0,_RNCNCNCNvNtNtCs1yu0zy1SNdm_13self_sensored8handlers6ingest14ingest_handler00s_0Bb_
FNDA:0,_RNCNCNvNtNtCs1yu0zy1SNdm_13self_sensored8handlers6ingest17store_raw_payload00B9_
FNDA:0,_RNCNCNvNtNtCs1yu0zy1SNdm_13self_sensored8handlers6ingest24update_processing_status00B9_
FNDA:0,_RNCNCNvNtNtCs1yu0zy1SNdm_13self_sensored8handlers6ingest30spawn_complete_processing_task00B9_
FNDA:0,_RNCNCNvNtNtCs1yu0zy1SNdm_13self_sensored8handlers6ingest30spawn_complete_processing_task0s_0B9_
FNDA:0,_RNCNvNtNtCs1yu0zy1SNdm_13self_sensored8handlers6ingest14ingest_handler0B7_
FNDA:0,_RNCNvNtNtCs1yu0zy1SNdm_13self_sensored8handlers6ingest17store_raw_payload0B7_
FNDA:0,_RNCNvNtNtCs1yu0zy1SNdm_13self_sensored8handlers6ingest22save_corrupted_payload0B7_
FNDA:0,_RNCNvNtNtCs1yu0zy1SNdm_13self_sensored8handlers6ingest23check_duplicate_payload0B7_
FNDA:0,_RNCNvNtNtCs1yu0zy1SNdm_13self_sensored8handlers6ingest23store_raw_payload_bytes0B7_
FNDA:0,_RNCNvNtNtCs1yu0zy1SNdm_13self_sensored8handlers6ingest23update_processing_stage0B7_
FNDA:0,_RNCNvNtNtCs1yu0zy1SNdm_13self_sensored8handlers6ingest24update_processing_status0B7_
FNDA:0,_RNCNvNtNtCs1yu0zy1SNdm_13self_sensored8handlers6ingest25update_processing_failure0B7_
FNDA:0,_RNCNvNtNtCs1yu0zy1SNdm_13self_sensored8handlers6ingest26parse_ios_payload_enhanced0B7_
FNDA:0,_RNCNvNtNtCs1yu0zy1SNdm_13self_sensored8handlers6ingest30spawn_complete_processing_task0B7_
FNDA:0,_RNCNvXININtNtCs1yu0zy1SNdm_13self_sensored8handlers6ingest0pEINtB7_10LoggedJsonpENtNtCs1IdqjQepwc8_9actix_web7extract11FromRequest12from_request0Bb_
FNDA:0,_RNvNtNtCs1yu0zy1SNdm_13self_sensored8handlers6ingest14ingest_handler
FNDA:0,_RNvNtNtCs1yu0zy1SNdm_13self_sensored8handlers6ingest16validate_metrics
FNDA:0,_RNvNtNtCs1yu0zy1SNdm_13self_sensored8handlers6ingest17store_raw_payload
FNDA:0,_RNvNtNtCs1yu0zy1SNdm_13self_sensored8handlers6ingest17validate_workouts
FNDA:0,_RNvNtNtCs1yu0zy1SNdm_13self_sensored8handlers6ingest22save_corrupted_payload
FNDA:0,_RNvNtNtCs1yu0zy1SNdm_13self_sensored8handlers6ingest23check_duplicate_payload
FNDA:0,_RNvNtNtCs1yu0zy1SNdm_13self_sensored8handlers6ingest23store_raw_payload_bytes
FNDA:0,_RNvNtNtCs1yu0zy1SNdm_13self_sensored8handlers6ingest23update_processing_stage
FNDA:0,_RNvNtNtCs1yu0zy1SNdm_13self_sensored8handlers6ingest23validate_single_workout
FNDA:0,_RNvNtNtCs1yu0zy1SNdm_13self_sensored8handlers6ingest24update_processing_status
FNDA:0,_RNvNtNtCs1yu0zy1SNdm_13self_sensored8handlers6ingest25update_processing_failure
FNDA:0,_RNvNtNtCs1yu0zy1SNdm_13self_sensored8handlers6ingest26parse_ios_payload_enhanced
FNDA:0,_RNvNtNtCs1yu0zy1SNdm_13self_sensored8handlers6ingest28sanitize_payload_for_logging
FNDA:0,_RNvNtNtCs1yu0zy1SNdm_13self_sensored8handlers6ingest29validate_json_structure_basic
FNDA:0,_RNvNtNtCs1yu0zy1SNdm_13self_sensored8handlers6ingest30spawn_complete_processing_task
FNDA:0,_RNvXININtNtCs1yu0zy1SNdm_13self_sensored8handlers6ingest0pEINtB5_10LoggedJsonpENtNtCs1IdqjQepwc8_9actix_web7extract11FromRequest12from_requestB9_
FNF:37
FNH:0
DA:30,0
DA:31,0
DA:32,0
DA:34,0
DA:35,0
DA:36,0
DA:37,0
DA:39,0
DA:42,0
DA:43,0
DA:44,0
DA:45,0
DA:47,0
DA:48,0
DA:49,0
DA:50,0
DA:51,0
DA:52,0
DA:53,0
DA:54,0
DA:55,0
DA:58,0
DA:59,0
DA:65,0
DA:66,0
DA:67,0
DA:68,0
DA:69,0
DA:70,0
DA:79,0
DA:80,0
DA:259,0
DA:260,0
DA:261,0
DA:262,0
DA:332,0
DA:333,0
DA:335,0
DA:336,0
DA:338,0
DA:346,0
DA:347,0
DA:349,0
DA:350,0
DA:352,0
DA:487,0
DA:490,0
DA:491,0
DA:493,0
DA:494,0
DA:495,0
DA:496,0
DA:497,0
DA:498,0
DA:499,0
DA:500,0
DA:503,0
DA:504,0
DA:507,0
DA:508,0
DA:509,0
DA:510,0
DA:512,0
DA:513,0
DA:514,0
DA:515,0
DA:516,0
DA:517,0
DA:518,0
DA:519,0
DA:522,0
DA:523,0
DA:526,0
DA:527,0
DA:528,0
DA:529,0
DA:531,0
DA:532,0
DA:533,0
DA:534,0
DA:536,0
DA:537,0
DA:538,0
DA:539,0
DA:540,0
DA:541,0
DA:542,0
DA:544,0
DA:545,0
DA:547,0
DA:548,0
DA:549,0
DA:550,0
DA:551,0
DA:553,0
DA:554,0
DA:555,0
DA:556,0
DA:557,0
DA:559,0
DA:560,0
DA:561,0
DA:562,0
DA:563,0
DA:567,0
DA:568,0
DA:572,0
DA:573,0
DA:574,0
DA:575,0
DA:576,0
DA:577,0
DA:590,0
DA:591,0
DA:593,0
DA:594,0
DA:597,0
DA:598,0
DA:599,0
DA:600,0
DA:601,0
DA:602,0
DA:604,0
DA:605,0
DA:606,0
DA:608,0
DA:617,0
DA:619,0
DA:620,0
DA:622,0
DA:623,0
DA:626,0
DA:627,0
DA:628,0
DA:629,0
DA:630,0
DA:631,0
DA:633,0
DA:634,0
DA:638,0
DA:640,0
DA:641,0
DA:642,0
DA:643,0
DA:644,0
DA:645,0
DA:648,0
DA:649,0
DA:650,0
DA:651,0
DA:652,0
DA:656,0
DA:667,0
DA:668,0
DA:670,0
DA:671,0
DA:674,0
DA:675,0
DA:676,0
DA:677,0
DA:678,0
DA:679,0
DA:681,0
DA:682,0
DA:685,0
DA:686,0
DA:687,0
DA:688,0
DA:689,0
DA:692,0
DA:710,0
DA:711,0
DA:712,0
DA:713,0
DA:716,0
DA:717,0
DA:719,0
DA:720,0
DA:724,0
DA:725,0
DA:728,0
DA:729,0
DA:730,0
DA:731,0
DA:732,0
DA:733,0
DA:736,0
DA:737,0
DA:738,0
DA:739,0
DA:742,0
DA:743,0
DA:744,0
DA:745,0
DA:748,0
DA:749,0
DA:751,0
DA:755,0
DA:756,0
DA:757,0
DA:758,0
DA:761,0
DA:762,0
DA:763,0
DA:765,0
DA:766,0
DA:768,0
DA:769,0
DA:771,0
DA:772,0
DA:773,0
DA:774,0
DA:775,0
DA:777,0
DA:781,0
DA:782,0
DA:783,0
DA:784,0
DA:785,0
DA:786,0
DA:787,0
DA:788,0
DA:789,0
DA:790,0
DA:791,0
DA:792,0
DA:793,0
DA:794,0
DA:795,0
DA:796,0
DA:797,0
DA:802,0
DA:803,0
DA:811,0
DA:813,0
DA:815,0
DA:823,0
DA:824,0
DA:827,0
DA:829,0
DA:830,0
DA:831,0
DA:832,0
DA:835,0
DA:836,0
DA:837,0
DA:838,0
DA:839,0
DA:840,0
DA:841,0
DA:843,0
DA:844,0
DA:846,0
DA:847,0
DA:848,0
DA:849,0
DA:850,0
DA:851,0
DA:852,0
DA:853,0
DA:854,0
DA:855,0
DA:856,0
DA:857,0
DA:858,0
DA:860,0
DA:866,0
DA:876,0
DA:877,0
DA:879,0
DA:880,0
DA:883,0
DA:884,0
DA:885,0
DA:886,0
DA:888,0
DA:889,0
DA:891,0
DA:892,0
DA:893,0
DA:895,0
DA:907,0
DA:908,0
DA:909,0
DA:910,0
DA:913,0
DA:915,0
DA:916,0
DA:919,0
DA:920,0
DA:921,0
DA:922,0
DA:925,0
DA:927,0
DA:928,0
DA:929,0
DA:930,0
DA:933,0
DA:934,0
DA:935,0
DA:937,0
DA:938,0
DA:939,0
DA:944,0
DA:947,0
DA:948,0
DA:949,0
DA:950,0
DA:951,0
DA:952,0
DA:953,0
DA:954,0
DA:955,0
DA:956,0
DA:957,0
DA:960,0
DA:963,0
DA:965,0
DA:968,0
DA:969,0
DA:970,0
DA:971,0
DA:972,0
DA:973,0
DA:974,0
DA:975,0
DA:976,0
DA:977,0
DA:978,0
DA:979,0
DA:980,0
DA:981,0
DA:982,0
DA:985,0
DA:986,0
DA:988,0
DA:990,0
DA:993,0
DA:994,0
DA:995,0
DA:996,0
DA:999,0
DA:1000,0
DA:1001,0
DA:1002,0
DA:1003,0
DA:1005,0
DA:1006,0
DA:1007,0
DA:1008,0
DA:1009,0
DA:1011,0
DA:1012,0
DA:1013,0
DA:1014,0
DA:1015,0
DA:1016,0
DA:1017,0
DA:1018,0
DA:1019,0
DA:1020,0
DA:1021,0
DA:1025,0
DA:1026,0
DA:1027,0
DA:1030,0
DA:1031,0
DA:1032,0
DA:1033,0
DA:1034,0
DA:1036,0
DA:1037,0
DA:1038,0
DA:1040,0
DA:1041,0
DA:1042,0
DA:1044,0
DA:1045,0
DA:1051,0
DA:1052,0
DA:1053,0
DA:1054,0
DA:1055,0
DA:1056,0
DA:1057,0
DA:1058,0
DA:1061,0
DA:1062,0
DA:1066,0
DA:1067,0
DA:1071,0
DA:1073,0
DA:1076,0
DA:1077,0
DA:1078,0
DA:1079,0
DA:1083,0
DA:1086,0
DA:1087,0
DA:1088,0
DA:1089,0
DA:1092,0
DA:1094,0
DA:1095,0
DA:1096,0
DA:1100,0
DA:1103,0
DA:1104,0
DA:1105,0
DA:1109,0
DA:1110,0
DA:1114,0
DA:1116,0
DA:1119,0
DA:1120,0
DA:1123,0
DA:1124,0
DA:1125,0
DA:1126,0
DA:1127,0
DA:1128,0
DA:1129,0
DA:1131,0
DA:1132,0
DA:1135,0
DA:1137,0
DA:1138,0
DA:1140,0
DA:1141,0
DA:1142,0
DA:1143,0
DA:1144,0
DA:1145,0
DA:1146,0
DA:1148,0
DA:1149,0
DA:1152,0
DA:1154,0
DA:1155,0
DA:1158,0
DA:1159,0
DA:1162,0
DA:1163,0
DA:1166,0
DA:1167,0
DA:1168,0
DA:1169,0
DA:1170,0
DA:1173,0
DA:1174,0
DA:1175,0
DA:1176,0
DA:1177,0
DA:1179,0
DA:1180,0
DA:1181,0
DA:1182,0
DA:1183,0
DA:1184,0
DA:1186,0
DA:1189,0
DA:1190,0
DA:1191,0
DA:1192,0
DA:1196,0
DA:1197,0
DA:1201,0
DA:1203,0
DA:1206,0
DA:1209,0
DA:1210,0
DA:1212,0
DA:1213,0
DA:1214,0
DA:1217,0
DA:1218,0
DA:1219,0
DA:1220,0
DA:1223,0
DA:1224,0
DA:1226,0
DA:1230,0
DA:1233,0
DA:1238,0
DA:1241,0
DA:1242,0
DA:1245,0
DA:1246,0
DA:1247,0
DA:1248,0
DA:1249,0
DA:1250,0
DA:1260,0
DA:1261,0
DA:1263,0
DA:1264,0
DA:1267,0
DA:1268,0
DA:1269,0
DA:1270,0
DA:1271,0
DA:1272,0
DA:1273,0
DA:1285,0
DA:1286,0
DA:1288,0
DA:1289,0
BRF:0
BRH:0
LF:522
LH:0
end_of_record
SF:/mnt/datadrive_m2/self-sensored/src/handlers/ingest_async_simple.rs
FN:60,_RNCNCNCNvNtNtCs1yu0zy1SNdm_13self_sensored8handlers19ingest_async_simple30ingest_async_optimized_handler000Bb_
FN:61,_RNCNCNCNvNtNtCs1yu0zy1SNdm_13self_sensored8handlers19ingest_async_simple30ingest_async_optimized_handler00s_0Bb_
FN:358,_RNCNCNvNtNtCs1yu0zy1SNdm_13self_sensored8handlers19ingest_async_simple24update_processing_status00B9_
FN:344,_RNCNvNtNtCs1yu0zy1SNdm_13self_sensored8handlers19ingest_async_simple24update_processing_status0B7_
FN:33,_RNCNvNtNtCs1yu0zy1SNdm_13self_sensored8handlers19ingest_async_simple30ingest_async_optimized_handler0B7_
FN:340,_RNvNtNtCs1yu0zy1SNdm_13self_sensored8handlers19ingest_async_simple24update_processing_status
FN:28,_RNvNtNtCs1yu0zy1SNdm_13self_sensored8handlers19ingest_async_simple30ingest_async_optimized_handler
FNDA:0,_RNCNCNCNvNtNtCs1yu0zy1SNdm_13self_sensored8handlers19ingest_async_simple30ingest_async_optimized_handler000Bb_
FNDA:0,_RNCNCNCNvNtNtCs1yu0zy1SNdm_13self_sensored8handlers19ingest_async_simple30ingest_async_optimized_handler00s_0Bb_
FNDA:0,_RNCNCNvNtNtCs1yu0zy1SNdm_13self_sensored8handlers19ingest_async_simple24update_processing_status00B9_
FNDA:0,_RNCNvNtNtCs1yu0zy1SNdm_13self_sensored8handlers19ingest_async_simple24update_processing_status0B7_
FNDA:0,_RNCNvNtNtCs1yu0zy1SNdm_13self_sensored8handlers19ingest_async_simple30ingest_async_optimized_handler0B7_
FNDA:0,_RNvNtNtCs1yu0zy1SNdm_13self_sensored8handlers19ingest_async_simple24update_processing_status
FNDA:0,_RNvNtNtCs1yu0zy1SNdm_13self_sensored8handlers19ingest_async_simple30ingest_async_optimized_handler
FNF:7
FNH:0
DA:28,0
DA:29,0
DA:30,0
DA:31,0
DA:32,0
DA:33,0
DA:60,0
DA:61,0
DA:335,0
DA:340,0
DA:341,0
DA:342,0
DA:343,0
DA:344,0
DA:345,0
DA:346,0
DA:348,0
DA:350,0
DA:351,0
DA:354,0
DA:355,0
DA:356,0
DA:357,0
DA:358,0
DA:359,0
DA:360,0
DA:361,0
DA:363,0
DA:364,0
DA:366,0
DA:370,0
DA:380,0
DA:381,0
DA:383,0
DA:384,0
BRF:0
BRH:0
LF:38
LH:0
end_of_record
SF:/mnt/datadrive_m2/self-sensored/src/handlers/metabolic_handler.rs
FN:834,_RNCNCNvNtNtCs1yu0zy1SNdm_13self_sensored8handlers17metabolic_handler25generate_glucose_analysiss1_00B9_
FN:644,_RNCNvNtNtCs1yu0zy1SNdm_13self_sensored8handlers17metabolic_handler22store_metabolic_metric0B7_
FN:711,_RNCNvNtNtCs1yu0zy1SNdm_13self_sensored8handlers17metabolic_handler23retrieve_metabolic_data0B7_
FN:292,_RNCNvNtNtCs1yu0zy1SNdm_13self_sensored8handlers17metabolic_handler24ingest_metabolic_handler0B7_
FN:773,_RNCNvNtNtCs1yu0zy1SNdm_13self_sensored8handlers17metabolic_handler25generate_glucose_analysis0B7_
FN:789,_RNCNvNtNtCs1yu0zy1SNdm_13self_sensored8handlers17metabolic_handler25generate_glucose_analysiss0_0B7_
FN:831,_RNCNvNtNtCs1yu0zy1SNdm_13self_sensored8handlers17metabolic_handler25generate_glucose_analysiss1_0B7_
FN:780,_RNCNvNtNtCs1yu0zy1SNdm_13self_sensored8handlers17metabolic_handler25generate_glucose_analysiss_0B7_
FN:456,_RNCNvNtNtCs1yu0zy1SNdm_13self_sensored8handlers17metabolic_handler26get_metabolic_data_handler0B7_
FN:608,_RNCNvNtNtCs1yu0zy1SNdm_13self_sensored8handlers17metabolic_handler26store_blood_glucose_metric0B7_
FN:678,_RNCNvNtNtCs1yu0zy1SNdm_13self_sensored8handlers17metabolic_handler27retrieve_blood_glucose_data0B7_
FN:180,_RNCNvNtNtCs1yu0zy1SNdm_13self_sensored8handlers17metabolic_handler28ingest_blood_glucose_handler0B7_
FN:398,_RNCNvNtNtCs1yu0zy1SNdm_13self_sensored8handlers17metabolic_handler30get_blood_glucose_data_handler0B7_
FN:641,_RNvNtNtCs1yu0zy1SNdm_13self_sensored8handlers17metabolic_handler22store_metabolic_metric
FN:707,_RNvNtNtCs1yu0zy1SNdm_13self_sensored8handlers17metabolic_handler23retrieve_metabolic_data
FN:287,_RNvNtNtCs1yu0zy1SNdm_13self_sensored8handlers17metabolic_handler24ingest_metabolic_handler
FN:743,_RNvNtNtCs1yu0zy1SNdm_13self_sensored8handlers17metabolic_handler25generate_glucose_analysis
FN:738,_RNvNtNtCs1yu0zy1SNdm_13self_sensored8handlers17metabolic_handler25is_critical_glucose_level
FN:451,_RNvNtNtCs1yu0zy1SNdm_13self_sensored8handlers17metabolic_handler26get_metabolic_data_handler
FN:605,_RNvNtNtCs1yu0zy1SNdm_13self_sensored8handlers17metabolic_handler26store_blood_glucose_metric
FN:674,_RNvNtNtCs1yu0zy1SNdm_13self_sensored8handlers17metabolic_handler27retrieve_blood_glucose_data
FN:175,_RNvNtNtCs1yu0zy1SNdm_13self_sensored8handlers17metabolic_handler28ingest_blood_glucose_handler
FN:393,_RNvNtNtCs1yu0zy1SNdm_13self_sensored8handlers17metabolic_handler30get_blood_glucose_data_handler
FN:507,_RNvNtNtCs1yu0zy1SNdm_13self_sensored8handlers17metabolic_handler36validate_and_convert_glucose_request
FN:560,_RNvNtNtCs1yu0zy1SNdm_13self_sensored8handlers17metabolic_handler38validate_and_convert_metabolic_request
FNDA:0,_RNCNCNvNtNtCs1yu0zy1SNdm_13self_sensored8handlers17metabolic_handler25generate_glucose_analysiss1_00B9_
FNDA:0,_RNCNvNtNtCs1yu0zy1SNdm_13self_sensored8handlers17metabolic_handler22store_metabolic_metric0B7_
FNDA:0,_RNCNvNtNtCs1yu0zy1SNdm_13self_sensored8handlers17metabolic_handler23retrieve_metabolic_data0B7_
FNDA:0,_RNCNvNtNtCs1yu0zy1SNdm_13self_sensored8handlers17metabolic_handler24ingest_metabolic_handler0B7_
FNDA:0,_RNCNvNtNtCs1yu0zy1SNdm_13self_sensored8handlers17metabolic_handler25generate_glucose_analysis0B7_
FNDA:0,_RNCNvNtNtCs1yu0zy1SNdm_13self_sensored8handlers17metabolic_handler25generate_glucose_analysiss0_0B7_
FNDA:0,_RNCNvNtNtCs1yu0zy1SNdm_13self_sensored8handlers17metabolic_handler25generate_glucose_analysiss1_0B7_
FNDA:0,_RNCNvNtNtCs1yu0zy1SNdm_13self_sensored8handlers17metabolic_handler25generate_glucose_analysiss_0B7_
FNDA:0,_RNCNvNtNtCs1yu0zy1SNdm_13self_sensored8handlers17metabolic_handler26get_metabolic_data_handler0B7_
FNDA:0,_RNCNvNtNtCs1yu0zy1SNdm_13self_sensored8handlers17metabolic_handler26store_blood_glucose_metric0B7_
FNDA:0,_RNCNvNtNtCs1yu0zy1SNdm_13self_sensored8handlers17metabolic_handler27retrieve_blood_glucose_data0B7_
FNDA:0,_RNCNvNtNtCs1yu0zy1SNdm_13self_sensored8handlers17metabolic_handler28ingest_blood_glucose_handler0B7_
FNDA:0,_RNCNvNtNtCs1yu0zy1SNdm_13self_sensored8handlers17metabolic_handler30get_blood_glucose_data_handler0B7_
FNDA:0,_RNvNtNtCs1yu0zy1SNdm_13self_sensored8handlers17metabolic_handler22store_metabolic_metric
FNDA:0,_RNvNtNtCs1yu0zy1SNdm_13self_sensored8handlers17metabolic_handler23retrieve_metabolic_data
FNDA:0,_RNvNtNtCs1yu0zy1SNdm_13self_sensored8handlers17metabolic_handler24ingest_metabolic_handler
FNDA:0,_RNvNtNtCs1yu0zy1SNdm_13self_sensored8handlers17metabolic_handler25generate_glucose_analysis
FNDA:0,_RNvNtNtCs1yu0zy1SNdm_13self_sensored8handlers17metabolic_handler25is_critical_glucose_level
FNDA:0,_RNvNtNtCs1yu0zy1SNdm_13self_sensored8handlers17metabolic_handler26get_metabolic_data_handler
FNDA:0,_RNvNtNtCs1yu0zy1SNdm_13self_sensored8handlers17metabolic_handler26store_blood_glucose_metric
FNDA:0,_RNvNtNtCs1yu0zy1SNdm_13self_sensored8handlers17metabolic_handler27retrieve_blood_glucose_data
FNDA:0,_RNvNtNtCs1yu0zy1SNdm_13self_sensored8handlers17metabolic_handler28ingest_blood_glucose_handler
FNDA:0,_RNvNtNtCs1yu0zy1SNdm_13self_sensored8handlers17metabolic_handler30get_blood_glucose_data_handler
FNDA:0,_RNvNtNtCs1yu0zy1SNdm_13self_sensored8handlers17metabolic_handler36validate_and_convert_glucose_request
FNDA:0,_RNvNtNtCs1yu0zy1SNdm_13self_sensored8handlers17metabolic_handler38validate_and_convert_metabolic_request
FNF:25
FNH:0
DA:175,0
DA:176,0
DA:177,0
DA:178,0
DA:179,0
DA:180,0
DA:182,0
DA:282,0
DA:287,0
DA:288,0
DA:289,0
DA:290,0
DA:291,0
DA:292,0
DA:294,0
DA:388,0
DA:393,0
DA:394,0
DA:395,0
DA:396,0
DA:397,0
DA:398,0
DA:399,0
DA:446,0
DA:451,0
DA:452,0
DA:453,0
DA:454,0
DA:455,0
DA:456,0
DA:457,0
DA:502,0
DA:507,0
DA:508,0
DA:509,0
DA:510,0
DA:512,0
DA:513,0
DA:514,0
DA:515,0
DA:516,0
DA:517,0
DA:520,0
DA:521,0
DA:522,0
DA:523,0
DA:524,0
DA:525,0
DA:526,0
DA:529,0
DA:530,0
DA:531,0
DA:532,0
DA:533,0
DA:534,0
DA:535,0
DA:536,0
DA:537,0
DA:538,0
DA:539,0
DA:540,0
DA:541,0
DA:542,0
DA:543,0
DA:545,0
DA:546,0
DA:547,0
DA:548,0
DA:549,0
DA:550,0
DA:551,0
DA:552,0
DA:553,0
DA:554,0
DA:555,0
DA:556,0
DA:557,0
DA:560,0
DA:561,0
DA:562,0
DA:563,0
DA:565,0
DA:566,0
DA:567,0
DA:568,0
DA:569,0
DA:570,0
DA:571,0
DA:574,0
DA:575,0
DA:576,0
DA:577,0
DA:578,0
DA:579,0
DA:580,0
DA:583,0
DA:584,0
DA:585,0
DA:586,0
DA:587,0
DA:588,0
DA:589,0
DA:590,0
DA:592,0
DA:593,0
DA:594,0
DA:595,0
DA:596,0
DA:597,0
DA:598,0
DA:599,0
DA:600,0
DA:601,0
DA:602,0
DA:605,0
DA:606,0
DA:607,0
DA:608,0
DA:609,0
DA:634,0
DA:635,0
DA:637,0
DA:638,0
DA:641,0
DA:642,0
DA:643,0
DA:644,0
DA:645,0
DA:667,0
DA:668,0
DA:670,0
DA:671,0
DA:674,0
DA:675,0
DA:676,0
DA:677,0
DA:678,0
DA:679,0
DA:681,0
DA:700,0
DA:701,0
DA:703,0
DA:704,0
DA:707,0
DA:708,0
DA:709,0
DA:710,0
DA:711,0
DA:712,0
DA:714,0
DA:731,0
DA:732,0
DA:734,0
DA:735,0
DA:738,0
DA:739,0
DA:740,0
DA:743,0
DA:744,0
DA:745,0
DA:746,0
DA:747,0
DA:749,0
DA:750,0
DA:751,0
DA:752,0
DA:753,0
DA:754,0
DA:755,0
DA:756,0
DA:757,0
DA:758,0
DA:759,0
DA:762,0
DA:763,0
DA:764,0
DA:765,0
DA:766,0
DA:767,0
DA:768,0
DA:771,0
DA:772,0
DA:773,0
DA:774,0
DA:775,0
DA:778,0
DA:779,0
DA:780,0
DA:781,0
DA:782,0
DA:783,0
DA:784,0
DA:787,0
DA:788,0
DA:789,0
DA:790,0
DA:791,0
DA:792,0
DA:793,0
DA:794,0
DA:795,0
DA:796,0
DA:797,0
DA:798,0
DA:799,0
DA:800,0
DA:801,0
DA:802,0
DA:803,0
DA:804,0
DA:805,0
DA:806,0
DA:807,0
DA:808,0
DA:809,0
DA:810,0
DA:811,0
DA:812,0
DA:813,0
DA:814,0
DA:815,0
DA:816,0
DA:817,0
DA:818,0
DA:819,0
DA:820,0
DA:821,0
DA:823,0
DA:825,0
DA:826,0
DA:829,0
DA:830,0
DA:831,0
DA:832,0
DA:833,0
DA:834,0
DA:835,0
DA:836,0
DA:837,0
DA:839,0
DA:840,0
DA:841,0
DA:842,0
DA:843,0
DA:844,0
DA:845,0
DA:846,0
DA:848,0
DA:850,0
DA:851,0
DA:852,0
DA:853,0
DA:855,0
DA:858,0
DA:859,0
DA:860,0
DA:861,0
DA:862,0
DA:863,0
DA:864,0
DA:865,0
DA:866,0
DA:867,0
DA:868,0
DA:869,0
DA:870,0
DA:871,0
DA:872,0
BRF:0
BRH:0
LF:281
LH:0
end_of_record
SF:/mnt/datadrive_m2/self-sensored/src/handlers/mindfulness_handler.rs
FN:754,_RNCNCNvNtNtCs1yu0zy1SNdm_13self_sensored8handlers19mindfulness_handler24fetch_mental_health_data00B9_
FN:621,_RNCNCNvNtNtCs1yu0zy1SNdm_13self_sensored8handlers19mindfulness_handler26process_mental_health_data00B9_
FN:676,_RNCNCNvNtNtCs1yu0zy1SNdm_13self_sensored8handlers19mindfulness_handler26process_mental_health_data0s_0B9_
FN:517,_RNCNCNvNtNtCs1yu0zy1SNdm_13self_sensored8handlers19mindfulness_handler27process_mindfulness_session00B9_
FN:569,_RNCNCNvNtNtCs1yu0zy1SNdm_13self_sensored8handlers19mindfulness_handler27process_mindfulness_session0s_0B9_
FN:921,_RNCNCNvNtNtCs1yu0zy1SNdm_13self_sensored8handlers19mindfulness_handler34fetch_mental_health_data_optimized00B9_
FN:128,_RNCNvNtNtCs1yu0zy1SNdm_13self_sensored8handlers19mindfulness_handler18ingest_mindfulness0B7_
FN:318,_RNCNvNtNtCs1yu0zy1SNdm_13self_sensored8handlers19mindfulness_handler20get_mindfulness_data0B7_
FN:222,_RNCNvNtNtCs1yu0zy1SNdm_13self_sensored8handlers19mindfulness_handler20ingest_mental_health0B7_
FN:403,_RNCNvNtNtCs1yu0zy1SNdm_13self_sensored8handlers19mindfulness_handler22get_mental_health_data0B7_
FN:982,_RNCNvNtNtCs1yu0zy1SNdm_13self_sensored8handlers19mindfulness_handler22warm_mindfulness_cache0B7_
FN:727,_RNCNvNtNtCs1yu0zy1SNdm_13self_sensored8handlers19mindfulness_handler24fetch_mental_health_data0B7_
FN:802,_RNCNvNtNtCs1yu0zy1SNdm_13self_sensored8handlers19mindfulness_handler26audit_mental_health_access0B7_
FN:687,_RNCNvNtNtCs1yu0zy1SNdm_13self_sensored8handlers19mindfulness_handler26fetch_mindfulness_sessions0B7_
FN:579,_RNCNvNtNtCs1yu0zy1SNdm_13self_sensored8handlers19mindfulness_handler26process_mental_health_data0B7_
FN:491,_RNCNvNtNtCs1yu0zy1SNdm_13self_sensored8handlers19mindfulness_handler27process_mindfulness_session0B7_
FN:1043,_RNCNvNtNtCs1yu0zy1SNdm_13self_sensored8handlers19mindfulness_handler28invalidate_mindfulness_cache0B7_
FN:1059,_RNCNvNtNtCs1yu0zy1SNdm_13self_sensored8handlers19mindfulness_handler30invalidate_mental_health_cache0B7_
FN:888,_RNCNvNtNtCs1yu0zy1SNdm_13self_sensored8handlers19mindfulness_handler34fetch_mental_health_data_optimized0B7_
FN:841,_RNCNvNtNtCs1yu0zy1SNdm_13self_sensored8handlers19mindfulness_handler36fetch_mindfulness_sessions_optimized0B7_
FN:123,_RNvNtNtCs1yu0zy1SNdm_13self_sensored8handlers19mindfulness_handler18ingest_mindfulness
FN:313,_RNvNtNtCs1yu0zy1SNdm_13self_sensored8handlers19mindfulness_handler20get_mindfulness_data
FN:217,_RNvNtNtCs1yu0zy1SNdm_13self_sensored8handlers19mindfulness_handler20ingest_mental_health
FN:398,_RNvNtNtCs1yu0zy1SNdm_13self_sensored8handlers19mindfulness_handler22get_mental_health_data
FN:982,_RNvNtNtCs1yu0zy1SNdm_13self_sensored8handlers19mindfulness_handler22warm_mindfulness_cache
FN:1020,_RNvNtNtCs1yu0zy1SNdm_13self_sensored8handlers19mindfulness_handler23log_performance_metrics
FN:723,_RNvNtNtCs1yu0zy1SNdm_13self_sensored8handlers19mindfulness_handler24fetch_mental_health_data
FN:797,_RNvNtNtCs1yu0zy1SNdm_13self_sensored8handlers19mindfulness_handler26audit_mental_health_access
FN:683,_RNvNtNtCs1yu0zy1SNdm_13self_sensored8handlers19mindfulness_handler26fetch_mindfulness_sessions
FN:575,_RNvNtNtCs1yu0zy1SNdm_13self_sensored8handlers19mindfulness_handler26process_mental_health_data
FN:487,_RNvNtNtCs1yu0zy1SNdm_13self_sensored8handlers19mindfulness_handler27process_mindfulness_session
FN:1043,_RNvNtNtCs1yu0zy1SNdm_13self_sensored8handlers19mindfulness_handler28invalidate_mindfulness_cache
FN:1059,_RNvNtNtCs1yu0zy1SNdm_13self_sensored8handlers19mindfulness_handler30invalidate_mental_health_cache
FN:964,_RNvNtNtCs1yu0zy1SNdm_13self_sensored8handlers19mindfulness_handler31generate_mindfulness_query_hash
FN:973,_RNvNtNtCs1yu0zy1SNdm_13self_sensored8handlers19mindfulness_handler33generate_mental_health_query_hash
FN:884,_RNvNtNtCs1yu0zy1SNdm_13self_sensored8handlers19mindfulness_handler34fetch_mental_health_data_optimized
FN:837,_RNvNtNtCs1yu0zy1SNdm_13self_sensored8handlers19mindfulness_handler36fetch_mindfulness_sessions_optimized
FNDA:0,_RNCNCNvNtNtCs1yu0zy1SNdm_13self_sensored8handlers19mindfulness_handler24fetch_mental_health_data00B9_
FNDA:0,_RNCNCNvNtNtCs1yu0zy1SNdm_13self_sensored8handlers19mindfulness_handler26process_mental_health_data00B9_
FNDA:0,_RNCNCNvNtNtCs1yu0zy1SNdm_13self_sensored8handlers19mindfulness_handler26process_mental_health_data0s_0B9_
FNDA:0,_RNCNCNvNtNtCs1yu0zy1SNdm_13self_sensored8handlers19mindfulness_handler27process_mindfulness_session00B9_
FNDA:0,_RNCNCNvNtNtCs1yu0zy1SNdm_13self_sensored8handlers19mindfulness_handler27process_mindfulness_session0s_0B9_
FNDA:0,_RNCNCNvNtNtCs1yu0zy1SNdm_13self_sensored8handlers19mindfulness_handler34fetch_mental_health_data_optimized00B9_
FNDA:0,_RNCNvNtNtCs1yu0zy1SNdm_13self_sensored8handlers19mindfulness_handler18ingest_mindfulness0B7_
FNDA:0,_RNCNvNtNtCs1yu0zy1SNdm_13self_sensored8handlers19mindfulness_handler20get_mindfulness_data0B7_
FNDA:0,_RNCNvNtNtCs1yu0zy1SNdm_13self_sensored8handlers19mindfulness_handler20ingest_mental_health0B7_
FNDA:0,_RNCNvNtNtCs1yu0zy1SNdm_13self_sensored8handlers19mindfulness_handler22get_mental_health_data0B7_
FNDA:0,_RNCNvNtNtCs1yu0zy1SNdm_13self_sensored8handlers19mindfulness_handler22warm_mindfulness_cache0B7_
FNDA:0,_RNCNvNtNtCs1yu0zy1SNdm_13self_sensored8handlers19mindfulness_handler24fetch_mental_health_data0B7_
FNDA:0,_RNCNvNtNtCs1yu0zy1SNdm_13self_sensored8handlers19mindfulness_handler26audit_mental_health_access0B7_
FNDA:0,_RNCNvNtNtCs1yu0zy1SNdm_13self_sensored8handlers19mindfulness_handler26fetch_mindfulness_sessions0B7_
FNDA:0,_RNCNvNtNtCs1yu0zy1SNdm_13self_sensored8handlers19mindfulness_handler26process_mental_health_data0B7_
FNDA:0,_RNCNvNtNtCs1yu0zy1SNdm_13self_sensored8handlers19mindfulness_handler27process_mindfulness_session0B7_
FNDA:0,_RNCNvNtNtCs1yu0zy1SNdm_13self_sensored8handlers19mindfulness_handler28invalidate_mindfulness_cache0B7_
FNDA:0,_RNCNvNtNtCs1yu0zy1SNdm_13self_sensored8handlers19mindfulness_handler30invalidate_mental_health_cache0B7_
FNDA:0,_RNCNvNtNtCs1yu0zy1SNdm_13self_sensored8handlers19mindfulness_handler34fetch_mental_health_data_optimized0B7_
FNDA:0,_RNCNvNtNtCs1yu0zy1SNdm_13self_sensored8handlers19mindfulness_handler36fetch_mindfulness_sessions_optimized0B7_
FNDA:0,_RNvNtNtCs1yu0zy1SNdm_13self_sensored8handlers19mindfulness_handler18ingest_mindfulness
FNDA:0,_RNvNtNtCs1yu0zy1SNdm_13self_sensored8handlers19mindfulness_handler20get_mindfulness_data
FNDA:0,_RNvNtNtCs1yu0zy1SNdm_13self_sensored8handlers19mindfulness_handler20ingest_mental_health
FNDA:0,_RNvNtNtCs1yu0zy1SNdm_13self_sensored8handlers19mindfulness_handler22get_mental_health_data
FNDA:0,_RNvNtNtCs1yu0zy1SNdm_13self_sensored8handlers19mindfulness_handler22warm_mindfulness_cache
FNDA:0,_RNvNtNtCs1yu0zy1SNdm_13self_sensored8handlers19mindfulness_handler23log_performance_metrics
FNDA:0,_RNvNtNtCs1yu0zy1SNdm_13self_sensored8handlers19mindfulness_handler24fetch_mental_health_data
FNDA:0,_RNvNtNtCs1yu0zy1SNdm_13self_sensored8handlers19mindfulness_handler26audit_mental_health_access
FNDA:0,_RNvNtNtCs1yu0zy1SNdm_13self_sensored8handlers19mindfulness_handler26fetch_mindfulness_sessions
FNDA:0,_RNvNtNtCs1yu0zy1SNdm_13self_sensored8handlers19mindfulness_handler26process_mental_health_data
FNDA:0,_RNvNtNtCs1yu0zy1SNdm_13self_sensored8handlers19mindfulness_handler27process_mindfulness_session
FNDA:0,_RNvNtNtCs1yu0zy1SNdm_13self_sensored8handlers19mindfulness_handler28invalidate_mindfulness_cache
FNDA:0,_RNvNtNtCs1yu0zy1SNdm_13self_sensored8handlers19mindfulness_handler30invalidate_mental_health_cache
FNDA:0,_RNvNtNtCs1yu0zy1SNdm_13self_sensored8handlers19mindfulness_handler31generate_mindfulness_query_hash
FNDA:0,_RNvNtNtCs1yu0zy1SNdm_13self_sensored8handlers19mindfulness_handler33generate_mental_health_query_hash
FNDA:0,_RNvNtNtCs1yu0zy1SNdm_13self_sensored8handlers19mindfulness_handler34fetch_mental_health_data_optimized
FNDA:0,_RNvNtNtCs1yu0zy1SNdm_13self_sensored8handlers19mindfulness_handler36fetch_mindfulness_sessions_optimized
FNF:37
FNH:0
DA:123,0
DA:124,0
DA:125,0
DA:126,0
DA:127,0
DA:128,0
DA:212,0
DA:217,0
DA:218,0
DA:219,0
DA:220,0
DA:221,0
DA:222,0
DA:308,0
DA:313,0
DA:314,0
DA:315,0
DA:316,0
DA:317,0
DA:318,0
DA:393,0
DA:398,0
DA:399,0
DA:400,0
DA:401,0
DA:402,0
DA:403,0
DA:484,0
DA:487,0
DA:488,0
DA:489,0
DA:490,0
DA:491,0
DA:493,0
DA:494,0
DA:495,0
DA:496,0
DA:497,0
DA:498,0
DA:499,0
DA:500,0
DA:501,0
DA:502,0
DA:503,0
DA:504,0
DA:505,0
DA:506,0
DA:507,0
DA:508,0
DA:509,0
DA:510,0
DA:511,0
DA:512,0
DA:515,0
DA:516,0
DA:517,0
DA:520,0
DA:554,0
DA:557,0
DA:567,0
DA:568,0
DA:569,0
DA:571,0
DA:572,0
DA:575,0
DA:576,0
DA:577,0
DA:578,0
DA:579,0
DA:581,0
DA:582,0
DA:585,0
DA:586,0
DA:587,0
DA:589,0
DA:593,0
DA:594,0
DA:595,0
DA:596,0
DA:597,0
DA:598,0
DA:599,0
DA:600,0
DA:601,0
DA:602,0
DA:603,0
DA:604,0
DA:605,0
DA:606,0
DA:607,0
DA:608,0
DA:609,0
DA:610,0
DA:611,0
DA:612,0
DA:613,0
DA:614,0
DA:615,0
DA:616,0
DA:619,0
DA:620,0
DA:621,0
DA:624,0
DA:654,0
DA:655,0
DA:674,0
DA:675,0
DA:676,0
DA:678,0
DA:679,0
DA:683,0
DA:684,0
DA:685,0
DA:686,0
DA:687,0
DA:688,0
DA:690,0
DA:691,0
DA:692,0
DA:694,0
DA:695,0
DA:696,0
DA:697,0
DA:699,0
DA:700,0
DA:701,0
DA:702,0
DA:704,0
DA:705,0
DA:706,0
DA:707,0
DA:709,0
DA:710,0
DA:711,0
DA:712,0
DA:714,0
DA:715,0
DA:717,0
DA:718,0
DA:719,0
DA:723,0
DA:724,0
DA:725,0
DA:726,0
DA:727,0
DA:728,0
DA:729,0
DA:731,0
DA:732,0
DA:733,0
DA:735,0
DA:736,0
DA:737,0
DA:738,0
DA:740,0
DA:741,0
DA:742,0
DA:743,0
DA:745,0
DA:746,0
DA:748,0
DA:749,0
DA:752,0
DA:753,0
DA:754,0
DA:755,0
DA:757,0
DA:758,0
DA:759,0
DA:760,0
DA:762,0
DA:764,0
DA:765,0
DA:767,0
DA:769,0
DA:770,0
DA:772,0
DA:774,0
DA:775,0
DA:776,0
DA:777,0
DA:779,0
DA:780,0
DA:782,0
DA:783,0
DA:785,0
DA:787,0
DA:789,0
DA:790,0
DA:791,0
DA:792,0
DA:793,0
DA:794,0
DA:797,0
DA:798,0
DA:799,0
DA:800,0
DA:801,0
DA:802,0
DA:804,0
DA:808,0
DA:809,0
DA:814,0
DA:821,0
DA:824,0
DA:825,0
DA:827,0
DA:828,0
DA:831,0
DA:833,0
DA:834,0
DA:837,0
DA:838,0
DA:839,0
DA:840,0
DA:841,0
DA:842,0
DA:845,0
DA:853,0
DA:855,0
DA:856,0
DA:857,0
DA:858,0
DA:860,0
DA:861,0
DA:862,0
DA:863,0
DA:865,0
DA:866,0
DA:867,0
DA:868,0
DA:870,0
DA:871,0
DA:872,0
DA:873,0
DA:876,0
DA:877,0
DA:879,0
DA:880,0
DA:881,0
DA:884,0
DA:885,0
DA:886,0
DA:887,0
DA:888,0
DA:889,0
DA:890,0
DA:893,0
DA:899,0
DA:901,0
DA:902,0
DA:903,0
DA:904,0
DA:906,0
DA:907,0
DA:908,0
DA:909,0
DA:912,0
DA:913,0
DA:915,0
DA:916,0
DA:919,0
DA:920,0
DA:921,0
DA:922,0
DA:924,0
DA:925,0
DA:926,0
DA:927,0
DA:929,0
DA:931,0
DA:932,0
DA:934,0
DA:936,0
DA:937,0
DA:939,0
DA:941,0
DA:942,0
DA:943,0
DA:944,0
DA:946,0
DA:947,0
DA:949,0
DA:950,0
DA:952,0
DA:954,0
DA:956,0
DA:957,0
DA:958,0
DA:959,0
DA:960,0
DA:961,0
DA:964,0
DA:967,0
DA:968,0
DA:969,0
DA:970,0
DA:973,0
DA:976,0
DA:977,0
DA:978,0
DA:979,0
DA:982,0
DA:984,0
DA:985,0
DA:986,0
DA:987,0
DA:988,0
DA:989,0
DA:990,0
DA:992,0
DA:993,0
DA:994,0
DA:995,0
DA:996,0
DA:997,0
DA:999,0
DA:1000,0
DA:1001,0
DA:1002,0
DA:1003,0
DA:1004,0
DA:1005,0
DA:1006,0
DA:1008,0
DA:1009,0
DA:1012,0
DA:1014,0
DA:1017,0
DA:1020,0
DA:1021,0
DA:1022,0
DA:1023,0
DA:1024,0
DA:1025,0
DA:1026,0
DA:1027,0
DA:1033,0
DA:1034,0
DA:1040,0
DA:1043,0
DA:1045,0
DA:1047,0
DA:1050,0
DA:1055,0
DA:1056,0
DA:1059,0
DA:1061,0
DA:1063,0
DA:1066,0
DA:1071,0
DA:1072,0
BRF:0
BRH:0
LF:372
LH:0
end_of_record
SF:/mnt/datadrive_m2/self-sensored/src/handlers/nutrition_handler.rs
FN:580,_RNCNCNCNvNtNtCs1yu0zy1SNdm_13self_sensored8handlers17nutrition_handler18get_hydration_data000Bb_
FN:654,_RNCNCNvNtNtCs1yu0zy1SNdm_13self_sensored8handlers17nutrition_handler30insert_nutrition_metrics_batch00B9_
FN:539,_RNCNvNtNtCs1yu0zy1SNdm_13self_sensored8handlers17nutrition_handler18get_hydration_data0B7_
FN:432,_RNCNvNtNtCs1yu0zy1SNdm_13self_sensored8handlers17nutrition_handler18get_nutrition_data0B7_
FN:293,_RNCNvNtNtCs1yu0zy1SNdm_13self_sensored8handlers17nutrition_handler21ingest_nutrition_data0B7_
FN:1141,_RNCNvNtNtCs1yu0zy1SNdm_13self_sensored8handlers17nutrition_handler25identify_dietary_concerns0B7_
FN:1181,_RNCNvNtNtCs1yu0zy1SNdm_13self_sensored8handlers17nutrition_handler25identify_dietary_patterns0B7_
FN:1202,_RNCNvNtNtCs1yu0zy1SNdm_13self_sensored8handlers17nutrition_handler25identify_dietary_patternss_0B7_
FN:976,_RNCNvNtNtCs1yu0zy1SNdm_13self_sensored8handlers17nutrition_handler26generate_hydration_summarys0_0B7_
FN:980,_RNCNvNtNtCs1yu0zy1SNdm_13self_sensored8handlers17nutrition_handler26generate_hydration_summarys1_0B7_
FN:984,_RNCNvNtNtCs1yu0zy1SNdm_13self_sensored8handlers17nutrition_handler26generate_hydration_summarys2_0B7_
FN:1012,_RNCNvNtNtCs1yu0zy1SNdm_13self_sensored8handlers17nutrition_handler27generate_daily_aggregations0B7_
FN:837,_RNCNvNtNtCs1yu0zy1SNdm_13self_sensored8handlers17nutrition_handler27generate_nutrition_analysissd_0B7_
FN:838,_RNCNvNtNtCs1yu0zy1SNdm_13self_sensored8handlers17nutrition_handler27generate_nutrition_analysisse_0B7_
FN:841,_RNCNvNtNtCs1yu0zy1SNdm_13self_sensored8handlers17nutrition_handler27generate_nutrition_analysissf_0B7_
FN:630,_RNCNvNtNtCs1yu0zy1SNdm_13self_sensored8handlers17nutrition_handler30insert_nutrition_metrics_batch0B7_
FN:868,_RNCNvNtNtCs1yu0zy1SNdm_13self_sensored8handlers17nutrition_handler32generate_daily_nutrition_summarys_0B7_
FN:1077,_RNCNvNtNtCs1yu0zy1SNdm_13self_sensored8handlers17nutrition_handler44calculate_average_macronutrient_distribution0B7_
FN:1091,_RNCNvNtNtCs1yu0zy1SNdm_13self_sensored8handlers17nutrition_handler44calculate_average_macronutrient_distributions0_0B7_
FN:1096,_RNCNvNtNtCs1yu0zy1SNdm_13self_sensored8handlers17nutrition_handler44calculate_average_macronutrient_distributions1_0B7_
FN:1086,_RNCNvNtNtCs1yu0zy1SNdm_13self_sensored8handlers17nutrition_handler44calculate_average_macronutrient_distributions_0B7_
FN:535,_RNvNtNtCs1yu0zy1SNdm_13self_sensored8handlers17nutrition_handler18get_hydration_data
FN:428,_RNvNtNtCs1yu0zy1SNdm_13self_sensored8handlers17nutrition_handler18get_nutrition_data
FN:288,_RNvNtNtCs1yu0zy1SNdm_13self_sensored8handlers17nutrition_handler21ingest_nutrition_data
FN:1125,_RNvNtNtCs1yu0zy1SNdm_13self_sensored8handlers17nutrition_handler24identify_excess_warnings
FN:1107,_RNvNtNtCs1yu0zy1SNdm_13self_sensored8handlers17nutrition_handler25identify_deficiency_risks
FN:1137,_RNvNtNtCs1yu0zy1SNdm_13self_sensored8handlers17nutrition_handler25identify_dietary_concerns
FN:1175,_RNvNtNtCs1yu0zy1SNdm_13self_sensored8handlers17nutrition_handler25identify_dietary_patterns
FN:963,_RNvNtNtCs1yu0zy1SNdm_13self_sensored8handlers17nutrition_handler26generate_hydration_summary
FN:913,_RNvNtNtCs1yu0zy1SNdm_13self_sensored8handlers17nutrition_handler26generate_nutrition_summary
FN:998,_RNvNtNtCs1yu0zy1SNdm_13self_sensored8handlers17nutrition_handler27generate_daily_aggregations
FN:751,_RNvNtNtCs1yu0zy1SNdm_13self_sensored8handlers17nutrition_handler27generate_nutrition_analysis
FN:627,_RNvNtNtCs1yu0zy1SNdm_13self_sensored8handlers17nutrition_handler30insert_nutrition_metrics_batch
FN:1061,_RNvNtNtCs1yu0zy1SNdm_13self_sensored8handlers17nutrition_handler31get_hydration_status_from_value
FN:856,_RNvNtNtCs1yu0zy1SNdm_13self_sensored8handlers17nutrition_handler32generate_daily_nutrition_summary
FN:1072,_RNvNtNtCs1yu0zy1SNdm_13self_sensored8handlers17nutrition_handler44calculate_average_macronutrient_distribution
FNDA:0,_RNCNCNCNvNtNtCs1yu0zy1SNdm_13self_sensored8handlers17nutrition_handler18get_hydration_data000Bb_
FNDA:0,_RNCNCNvNtNtCs1yu0zy1SNdm_13self_sensored8handlers17nutrition_handler30insert_nutrition_metrics_batch00B9_
FNDA:0,_RNCNvNtNtCs1yu0zy1SNdm_13self_sensored8handlers17nutrition_handler18get_hydration_data0B7_
FNDA:0,_RNCNvNtNtCs1yu0zy1SNdm_13self_sensored8handlers17nutrition_handler18get_nutrition_data0B7_
FNDA:0,_RNCNvNtNtCs1yu0zy1SNdm_13self_sensored8handlers17nutrition_handler21ingest_nutrition_data0B7_
FNDA:0,_RNCNvNtNtCs1yu0zy1SNdm_13self_sensored8handlers17nutrition_handler25identify_dietary_concerns0B7_
FNDA:0,_RNCNvNtNtCs1yu0zy1SNdm_13self_sensored8handlers17nutrition_handler25identify_dietary_patterns0B7_
FNDA:0,_RNCNvNtNtCs1yu0zy1SNdm_13self_sensored8handlers17nutrition_handler25identify_dietary_patternss_0B7_
FNDA:0,_RNCNvNtNtCs1yu0zy1SNdm_13self_sensored8handlers17nutrition_handler26generate_hydration_summarys0_0B7_
FNDA:0,_RNCNvNtNtCs1yu0zy1SNdm_13self_sensored8handlers17nutrition_handler26generate_hydration_summarys1_0B7_
FNDA:0,_RNCNvNtNtCs1yu0zy1SNdm_13self_sensored8handlers17nutrition_handler26generate_hydration_summarys2_0B7_
FNDA:0,_RNCNvNtNtCs1yu0zy1SNdm_13self_sensored8handlers17nutrition_handler27generate_daily_aggregations0B7_
FNDA:0,_RNCNvNtNtCs1yu0zy1SNdm_13self_sensored8handlers17nutrition_handler27generate_nutrition_analysissd_0B7_
FNDA:0,_RNCNvNtNtCs1yu0zy1SNdm_13self_sensored8handlers17nutrition_handler27generate_nutrition_analysisse_0B7_
FNDA:0,_RNCNvNtNtCs1yu0zy1SNdm_13self_sensored8handlers17nutrition_handler27generate_nutrition_analysissf_0B7_
FNDA:0,_RNCNvNtNtCs1yu0zy1SNdm_13self_sensored8handlers17nutrition_handler30insert_nutrition_metrics_batch0B7_
FNDA:0,_RNCNvNtNtCs1yu0zy1SNdm_13self_sensored8handlers17nutrition_handler32generate_daily_nutrition_summarys_0B7_
FNDA:0,_RNCNvNtNtCs1yu0zy1SNdm_13self_sensored8handlers17nutrition_handler44calculate_average_macronutrient_distribution0B7_
FNDA:0,_RNCNvNtNtCs1yu0zy1SNdm_13self_sensored8handlers17nutrition_handler44calculate_average_macronutrient_distributions0_0B7_
FNDA:0,_RNCNvNtNtCs1yu0zy1SNdm_13self_sensored8handlers17nutrition_handler44calculate_average_macronutrient_distributions1_0B7_
FNDA:0,_RNCNvNtNtCs1yu0zy1SNdm_13self_sensored8handlers17nutrition_handler44calculate_average_macronutrient_distributions_0B7_
FNDA:0,_RNvNtNtCs1yu0zy1SNdm_13self_sensored8handlers17nutrition_handler18get_hydration_data
FNDA:0,_RNvNtNtCs1yu0zy1SNdm_13self_sensored8handlers17nutrition_handler18get_nutrition_data
FNDA:0,_RNvNtNtCs1yu0zy1SNdm_13self_sensored8handlers17nutrition_handler21ingest_nutrition_data
FNDA:0,_RNvNtNtCs1yu0zy1SNdm_13self_sensored8handlers17nutrition_handler24identify_excess_warnings
FNDA:0,_RNvNtNtCs1yu0zy1SNdm_13self_sensored8handlers17nutrition_handler25identify_deficiency_risks
FNDA:0,_RNvNtNtCs1yu0zy1SNdm_13self_sensored8handlers17nutrition_handler25identify_dietary_concerns
FNDA:0,_RNvNtNtCs1yu0zy1SNdm_13self_sensored8handlers17nutrition_handler25identify_dietary_patterns
FNDA:0,_RNvNtNtCs1yu0zy1SNdm_13self_sensored8handlers17nutrition_handler26generate_hydration_summary
FNDA:0,_RNvNtNtCs1yu0zy1SNdm_13self_sensored8handlers17nutrition_handler26generate_nutrition_summary
FNDA:0,_RNvNtNtCs1yu0zy1SNdm_13self_sensored8handlers17nutrition_handler27generate_daily_aggregations
FNDA:0,_RNvNtNtCs1yu0zy1SNdm_13self_sensored8handlers17nutrition_handler27generate_nutrition_analysis
FNDA:0,_RNvNtNtCs1yu0zy1SNdm_13self_sensored8handlers17nutrition_handler30insert_nutrition_metrics_batch
FNDA:0,_RNvNtNtCs1yu0zy1SNdm_13self_sensored8handlers17nutrition_handler31get_hydration_status_from_value
FNDA:0,_RNvNtNtCs1yu0zy1SNdm_13self_sensored8handlers17nutrition_handler32generate_daily_nutrition_summary
FNDA:0,_RNvNtNtCs1yu0zy1SNdm_13self_sensored8handlers17nutrition_handler44calculate_average_macronutrient_distribution
FNF:36
FNH:0
DA:288,0
DA:289,0
DA:290,0
DA:291,0
DA:292,0
DA:293,0
DA:295,0
DA:424,0
DA:428,0
DA:429,0
DA:430,0
DA:431,0
DA:432,0
DA:433,0
DA:531,0
DA:535,0
DA:536,0
DA:537,0
DA:538,0
DA:539,0
DA:540,0
DA:580,0
DA:581,0
DA:582,0
DA:583,0
DA:584,0
DA:585,0
DA:622,0
DA:627,0
DA:628,0
DA:629,0
DA:630,0
DA:631,0
DA:632,0
DA:633,0
DA:635,0
DA:636,0
DA:638,0
DA:639,0
DA:654,0
DA:655,0
DA:656,0
DA:657,0
DA:658,0
DA:659,0
DA:660,0
DA:661,0
DA:662,0
DA:663,0
DA:664,0
DA:665,0
DA:666,0
DA:667,0
DA:668,0
DA:669,0
DA:670,0
DA:671,0
DA:672,0
DA:673,0
DA:674,0
DA:675,0
DA:676,0
DA:677,0
DA:678,0
DA:679,0
DA:680,0
DA:681,0
DA:682,0
DA:683,0
DA:684,0
DA:685,0
DA:686,0
DA:687,0
DA:688,0
DA:689,0
DA:690,0
DA:691,0
DA:692,0
DA:693,0
DA:694,0
DA:695,0
DA:696,0
DA:697,0
DA:698,0
DA:699,0
DA:700,0
DA:701,0
DA:704,0
DA:742,0
DA:743,0
DA:746,0
DA:747,0
DA:751,0
DA:752,0
DA:753,0
DA:754,0
DA:756,0
DA:759,0
DA:760,0
DA:761,0
DA:763,0
DA:764,0
DA:765,0
DA:766,0
DA:767,0
DA:768,0
DA:769,0
DA:772,0
DA:773,0
DA:774,0
DA:775,0
DA:776,0
DA:777,0
DA:778,0
DA:780,0
DA:781,0
DA:782,0
DA:783,0
DA:784,0
DA:785,0
DA:786,0
DA:787,0
DA:788,0
DA:789,0
DA:790,0
DA:791,0
DA:792,0
DA:794,0
DA:795,0
DA:796,0
DA:797,0
DA:798,0
DA:801,0
DA:802,0
DA:803,0
DA:804,0
DA:805,0
DA:806,0
DA:807,0
DA:808,0
DA:809,0
DA:812,0
DA:813,0
DA:814,0
DA:815,0
DA:818,0
DA:819,0
DA:820,0
DA:821,0
DA:822,0
DA:823,0
DA:826,0
DA:827,0
DA:828,0
DA:829,0
DA:830,0
DA:831,0
DA:834,0
DA:837,0
DA:838,0
DA:839,0
DA:840,0
DA:841,0
DA:842,0
DA:844,0
DA:845,0
DA:846,0
DA:847,0
DA:848,0
DA:849,0
DA:850,0
DA:851,0
DA:852,0
DA:853,0
DA:854,0
DA:856,0
DA:857,0
DA:858,0
DA:859,0
DA:862,0
DA:863,0
DA:864,0
DA:866,0
DA:867,0
DA:868,0
DA:869,0
DA:871,0
DA:872,0
DA:873,0
DA:875,0
DA:876,0
DA:877,0
DA:878,0
DA:879,0
DA:880,0
DA:881,0
DA:882,0
DA:883,0
DA:884,0
DA:885,0
DA:886,0
DA:887,0
DA:889,0
DA:890,0
DA:891,0
DA:892,0
DA:893,0
DA:894,0
DA:896,0
DA:899,0
DA:900,0
DA:901,0
DA:902,0
DA:903,0
DA:904,0
DA:905,0
DA:906,0
DA:907,0
DA:908,0
DA:909,0
DA:910,0
DA:911,0
DA:913,0
DA:914,0
DA:916,0
DA:918,0
DA:919,0
DA:922,0
DA:923,0
DA:924,0
DA:925,0
DA:928,0
DA:929,0
DA:930,0
DA:931,0
DA:932,0
DA:934,0
DA:936,0
DA:937,0
DA:938,0
DA:939,0
DA:940,0
DA:941,0
DA:942,0
DA:943,0
DA:944,0
DA:945,0
DA:946,0
DA:947,0
DA:948,0
DA:951,0
DA:953,0
DA:954,0
DA:955,0
DA:956,0
DA:957,0
DA:958,0
DA:959,0
DA:960,0
DA:961,0
DA:963,0
DA:964,0
DA:965,0
DA:967,0
DA:968,0
DA:969,0
DA:971,0
DA:974,0
DA:975,0
DA:976,0
DA:977,0
DA:978,0
DA:979,0
DA:980,0
DA:981,0
DA:982,0
DA:983,0
DA:984,0
DA:985,0
DA:987,0
DA:988,0
DA:989,0
DA:990,0
DA:991,0
DA:992,0
DA:993,0
DA:994,0
DA:995,0
DA:996,0
DA:998,0
DA:1002,0
DA:1004,0
DA:1005,0
DA:1006,0
DA:1007,0
DA:1010,0
DA:1011,0
DA:1012,0
DA:1013,0
DA:1014,0
DA:1015,0
DA:1016,0
DA:1017,0
DA:1019,0
DA:1020,0
DA:1021,0
DA:1022,0
DA:1023,0
DA:1024,0
DA:1025,0
DA:1026,0
DA:1027,0
DA:1028,0
DA:1029,0
DA:1030,0
DA:1031,0
DA:1033,0
DA:1034,0
DA:1035,0
DA:1036,0
DA:1037,0
DA:1038,0
DA:1040,0
DA:1043,0
DA:1044,0
DA:1045,0
DA:1046,0
DA:1047,0
DA:1048,0
DA:1049,0
DA:1050,0
DA:1051,0
DA:1052,0
DA:1053,0
DA:1054,0
DA:1055,0
DA:1056,0
DA:1057,0
DA:1061,0
DA:1062,0
DA:1063,0
DA:1064,0
DA:1065,0
DA:1066,0
DA:1067,0
DA:1068,0
DA:1070,0
DA:1072,0
DA:1073,0
DA:1074,0
DA:1075,0
DA:1076,0
DA:1077,0
DA:1078,0
DA:1080,0
DA:1081,0
DA:1082,0
DA:1084,0
DA:1085,0
DA:1086,0
DA:1087,0
DA:1088,0
DA:1089,0
DA:1090,0
DA:1091,0
DA:1092,0
DA:1093,0
DA:1094,0
DA:1095,0
DA:1096,0
DA:1097,0
DA:1098,0
DA:1100,0
DA:1101,0
DA:1102,0
DA:1103,0
DA:1104,0
DA:1105,0
DA:1107,0
DA:1108,0
DA:1110,0
DA:1111,0
DA:1112,0
DA:1113,0
DA:1114,0
DA:1116,0
DA:1117,0
DA:1118,0
DA:1119,0
DA:1120,0
DA:1122,0
DA:1123,0
DA:1125,0
DA:1126,0
DA:1128,0
DA:1129,0
DA:1130,0
DA:1131,0
DA:1132,0
DA:1134,0
DA:1135,0
DA:1137,0
DA:1138,0
DA:1141,0
DA:1142,0
DA:1143,0
DA:1144,0
DA:1145,0
DA:1146,0
DA:1147,0
DA:1148,0
DA:1149,0
DA:1150,0
DA:1151,0
DA:1152,0
DA:1153,0
DA:1156,0
DA:1157,0
DA:1158,0
DA:1159,0
DA:1160,0
DA:1161,0
DA:1162,0
DA:1163,0
DA:1164,0
DA:1165,0
DA:1166,0
DA:1167,0
DA:1168,0
DA:1169,0
DA:1170,0
DA:1172,0
DA:1173,0
DA:1175,0
DA:1176,0
DA:1179,0
DA:1180,0
DA:1181,0
DA:1182,0
DA:1183,0
DA:1185,0
DA:1187,0
DA:1188,0
DA:1190,0
DA:1191,0
DA:1192,0
DA:1193,0
DA:1194,0
DA:1195,0
DA:1196,0
DA:1197,0
DA:1200,0
DA:1201,0
DA:1202,0
DA:1203,0
DA:1204,0
DA:1206,0
DA:1208,0
DA:1209,0
DA:1211,0
DA:1212,0
DA:1213,0
DA:1214,0
DA:1215,0
DA:1216,0
DA:1217,0
DA:1218,0
DA:1220,0
DA:1221,0
BRF:0
BRH:0
LF:489
LH:0
end_of_record
SF:/mnt/datadrive_m2/self-sensored/src/handlers/optimized_ingest.rs
FN:95,_RNCNCNCNvNtNtCs1yu0zy1SNdm_13self_sensored8handlers16optimized_ingest24optimized_ingest_handler000Bb_
FN:118,_RNCNCNCNvNtNtCs1yu0zy1SNdm_13self_sensored8handlers16optimized_ingest24optimized_ingest_handler00s_0Bb_
FN:166,_RNCNCNvNtNtCs1yu0zy1SNdm_13self_sensored8handlers16optimized_ingest23parse_payload_optimized00B9_
FN:182,_RNCNCNvNtNtCs1yu0zy1SNdm_13self_sensored8handlers16optimized_ingest23parse_payload_optimized0s_0B9_
FN:388,_RNCNCNvNtNtCs1yu0zy1SNdm_13self_sensored8handlers16optimized_ingest24update_processing_status00B9_
FN:193,_RNCNCNvNtNtCs1yu0zy1SNdm_13self_sensored8handlers16optimized_ingest25validate_payload_parallel00B9_
FN:201,_RNCNCNvNtNtCs1yu0zy1SNdm_13self_sensored8handlers16optimized_ingest25validate_payload_parallel0s0_0B9_
FN:209,_RNCNCNvNtNtCs1yu0zy1SNdm_13self_sensored8handlers16optimized_ingest25validate_payload_parallel0s1_0B9_
FN:228,_RNCNCNvNtNtCs1yu0zy1SNdm_13self_sensored8handlers16optimized_ingest25validate_payload_parallel0s2_0B9_
FN:236,_RNCNCNvNtNtCs1yu0zy1SNdm_13self_sensored8handlers16optimized_ingest25validate_payload_parallel0s3_0B9_
FN:196,_RNCNCNvNtNtCs1yu0zy1SNdm_13self_sensored8handlers16optimized_ingest25validate_payload_parallel0s_0B9_
FN:360,_RNCNCNvNtNtCs1yu0zy1SNdm_13self_sensored8handlers16optimized_ingest27store_raw_payload_optimized00B9_
FN:481,_RNCNvMs0_NtNtCs1yu0zy1SNdm_13self_sensored8handlers16optimized_ingestINtB7_10BatchQueuepE4push0Bb_
FN:487,_RNCNvMs0_NtNtCs1yu0zy1SNdm_13self_sensored8handlers16optimized_ingestINtB7_10BatchQueuepE5flush0Bb_
FN:260,_RNCNvNtNtCs1yu0zy1SNdm_13self_sensored8handlers16optimized_ingest22validate_metrics_batch0B7_
FN:162,_RNCNvNtNtCs1yu0zy1SNdm_13self_sensored8handlers16optimized_ingest23parse_payload_optimized0B7_
FN:279,_RNCNvNtNtCs1yu0zy1SNdm_13self_sensored8handlers16optimized_ingest23validate_workouts_batch0B7_
FN:29,_RNCNvNtNtCs1yu0zy1SNdm_13self_sensored8handlers16optimized_ingest24optimized_ingest_handler0B7_
FN:373,_RNCNvNtNtCs1yu0zy1SNdm_13self_sensored8handlers16optimized_ingest24update_processing_status0B7_
FN:188,_RNCNvNtNtCs1yu0zy1SNdm_13self_sensored8handlers16optimized_ingest25validate_payload_parallel0B7_
FN:344,_RNCNvNtNtCs1yu0zy1SNdm_13self_sensored8handlers16optimized_ingest27store_raw_payload_optimized0B7_
FN:473,_RNvMs0_NtNtCs1yu0zy1SNdm_13self_sensored8handlers16optimized_ingestINtB5_10BatchQueuepE3newB9_
FN:481,_RNvMs0_NtNtCs1yu0zy1SNdm_13self_sensored8handlers16optimized_ingestINtB5_10BatchQueuepE4pushB9_
FN:487,_RNvMs0_NtNtCs1yu0zy1SNdm_13self_sensored8handlers16optimized_ingestINtB5_10BatchQueuepE5flushB9_
FN:442,_RNvMs_NtNtCs1yu0zy1SNdm_13self_sensored8handlers16optimized_ingestNtB4_12MetricsArena3new
FN:459,_RNvMs_NtNtCs1yu0zy1SNdm_13self_sensored8handlers16optimized_ingestNtB4_12MetricsArena5reset
FN:449,_RNvMs_NtNtCs1yu0zy1SNdm_13self_sensored8handlers16optimized_ingestNtB4_12MetricsArena8allocate
FN:256,_RNvNtNtCs1yu0zy1SNdm_13self_sensored8handlers16optimized_ingest22validate_metrics_batch
FN:159,_RNvNtNtCs1yu0zy1SNdm_13self_sensored8handlers16optimized_ingest23parse_payload_optimized
FN:272,_RNvNtNtCs1yu0zy1SNdm_13self_sensored8handlers16optimized_ingest23validate_workouts_batch
FN:419,_RNvNtNtCs1yu0zy1SNdm_13self_sensored8handlers16optimized_ingest24configure_optimized_pool
FN:25,_RNvNtNtCs1yu0zy1SNdm_13self_sensored8handlers16optimized_ingest24optimized_ingest_handler
FN:369,_RNvNtNtCs1yu0zy1SNdm_13self_sensored8handlers16optimized_ingest24update_processing_status
FN:186,_RNvNtNtCs1yu0zy1SNdm_13self_sensored8handlers16optimized_ingest25validate_payload_parallel
FN:340,_RNvNtNtCs1yu0zy1SNdm_13self_sensored8handlers16optimized_ingest27store_raw_payload_optimized
FN:292,_RNvNtNtCs1yu0zy1SNdm_13self_sensored8handlers16optimized_ingest33validate_single_workout_optimized
FN:436,_RNvXNtNtCs1yu0zy1SNdm_13self_sensored8handlers16optimized_ingestNtB2_12MetricsArenaNtNtCs1p5UDGgVI4d_4core7default7Default7default
FNDA:0,_RNCNCNCNvNtNtCs1yu0zy1SNdm_13self_sensored8handlers16optimized_ingest24optimized_ingest_handler000Bb_
FNDA:0,_RNCNCNCNvNtNtCs1yu0zy1SNdm_13self_sensored8handlers16optimized_ingest24optimized_ingest_handler00s_0Bb_
FNDA:0,_RNCNCNvNtNtCs1yu0zy1SNdm_13self_sensored8handlers16optimized_ingest23parse_payload_optimized00B9_
FNDA:0,_RNCNCNvNtNtCs1yu0zy1SNdm_13self_sensored8handlers16optimized_ingest23parse_payload_optimized0s_0B9_
FNDA:0,_RNCNCNvNtNtCs1yu0zy1SNdm_13self_sensored8handlers16optimized_ingest24update_processing_status00B9_
FNDA:0,_RNCNCNvNtNtCs1yu0zy1SNdm_13self_sensored8handlers16optimized_ingest25validate_payload_parallel00B9_
FNDA:0,_RNCNCNvNtNtCs1yu0zy1SNdm_13self_sensored8handlers16optimized_ingest25validate_payload_parallel0s0_0B9_
FNDA:0,_RNCNCNvNtNtCs1yu0zy1SNdm_13self_sensored8handlers16optimized_ingest25validate_payload_parallel0s1_0B9_
FNDA:0,_RNCNCNvNtNtCs1yu0zy1SNdm_13self_sensored8handlers16optimized_ingest25validate_payload_parallel0s2_0B9_
FNDA:0,_RNCNCNvNtNtCs1yu0zy1SNdm_13self_sensored8handlers16optimized_ingest25validate_payload_parallel0s3_0B9_
FNDA:0,_RNCNCNvNtNtCs1yu0zy1SNdm_13self_sensored8handlers16optimized_ingest25validate_payload_parallel0s_0B9_
FNDA:0,_RNCNCNvNtNtCs1yu0zy1SNdm_13self_sensored8handlers16optimized_ingest27store_raw_payload_optimized00B9_
FNDA:0,_RNCNvMs0_NtNtCs1yu0zy1SNdm_13self_sensored8handlers16optimized_ingestINtB7_10BatchQueuepE4push0Bb_
FNDA:0,_RNCNvMs0_NtNtCs1yu0zy1SNdm_13self_sensored8handlers16optimized_ingestINtB7_10BatchQueuepE5flush0Bb_
FNDA:0,_RNCNvNtNtCs1yu0zy1SNdm_13self_sensored8handlers16optimized_ingest22validate_metrics_batch0B7_
FNDA:0,_RNCNvNtNtCs1yu0zy1SNdm_13self_sensored8handlers16optimized_ingest23parse_payload_optimized0B7_
FNDA:0,_RNCNvNtNtCs1yu0zy1SNdm_13self_sensored8handlers16optimized_ingest23validate_workouts_batch0B7_
FNDA:0,_RNCNvNtNtCs1yu0zy1SNdm_13self_sensored8handlers16optimized_ingest24optimized_ingest_handler0B7_
FNDA:0,_RNCNvNtNtCs1yu0zy1SNdm_13self_sensored8handlers16optimized_ingest24update_processing_status0B7_
FNDA:0,_RNCNvNtNtCs1yu0zy1SNdm_13self_sensored8handlers16optimized_ingest25validate_payload_parallel0B7_
FNDA:0,_RNCNvNtNtCs1yu0zy1SNdm_13self_sensored8handlers16optimized_ingest27store_raw_payload_optimized0B7_
FNDA:0,_RNvMs0_NtNtCs1yu0zy1SNdm_13self_sensored8handlers16optimized_ingestINtB5_10BatchQueuepE3newB9_
FNDA:0,_RNvMs0_NtNtCs1yu0zy1SNdm_13self_sensored8handlers16optimized_ingestINtB5_10BatchQueuepE4pushB9_
FNDA:0,_RNvMs0_NtNtCs1yu0zy1SNdm_13self_sensored8handlers16optimized_ingestINtB5_10BatchQueuepE5flushB9_
FNDA:0,_RNvMs_NtNtCs1yu0zy1SNdm_13self_sensored8handlers16optimized_ingestNtB4_12MetricsArena3new
FNDA:0,_RNvMs_NtNtCs1yu0zy1SNdm_13self_sensored8handlers16optimized_ingestNtB4_12MetricsArena5reset
FNDA:0,_RNvMs_NtNtCs1yu0zy1SNdm_13self_sensored8handlers16optimized_ingestNtB4_12MetricsArena8allocate
FNDA:0,_RNvNtNtCs1yu0zy1SNdm_13self_sensored8handlers16optimized_ingest22validate_metrics_batch
FNDA:0,_RNvNtNtCs1yu0zy1SNdm_13self_sensored8handlers16optimized_ingest23parse_payload_optimized
FNDA:0,_RNvNtNtCs1yu0zy1SNdm_13self_sensored8handlers16optimized_ingest23validate_workouts_batch
FNDA:0,_RNvNtNtCs1yu0zy1SNdm_13self_sensored8handlers16optimized_ingest24configure_optimized_pool
FNDA:0,_RNvNtNtCs1yu0zy1SNdm_13self_sensored8handlers16optimized_ingest24optimized_ingest_handler
FNDA:0,_RNvNtNtCs1yu0zy1SNdm_13self_sensored8handlers16optimized_ingest24update_processing_status
FNDA:0,_RNvNtNtCs1yu0zy1SNdm_13self_sensored8handlers16optimized_ingest25validate_payload_parallel
FNDA:0,_RNvNtNtCs1yu0zy1SNdm_13self_sensored8handlers16optimized_ingest27store_raw_payload_optimized
FNDA:0,_RNvNtNtCs1yu0zy1SNdm_13self_sensored8handlers16optimized_ingest33validate_single_workout_optimized
FNDA:0,_RNvXNtNtCs1yu0zy1SNdm_13self_sensored8handlers16optimized_ingestNtB2_12MetricsArenaNtNtCs1p5UDGgVI4d_4core7default7Default7default
FNF:37
FNH:0
DA:25,0
DA:26,0
DA:27,0
DA:28,0
DA:29,0
DA:95,0
DA:96,0
DA:97,0
DA:118,0
DA:119,0
DA:120,0
DA:122,0
DA:123,0
DA:124,0
DA:156,0
DA:159,0
DA:160,0
DA:161,0
DA:162,0
DA:164,0
DA:166,0
DA:168,0
DA:169,0
DA:172,0
DA:173,0
DA:174,0
DA:175,0
DA:176,0
DA:180,0
DA:181,0
DA:182,0
DA:183,0
DA:186,0
DA:187,0
DA:188,0
DA:189,0
DA:190,0
DA:193,0
DA:195,0
DA:196,0
DA:199,0
DA:201,0
DA:202,0
DA:203,0
DA:204,0
DA:205,0
DA:206,0
DA:207,0
DA:209,0
DA:210,0
DA:211,0
DA:212,0
DA:213,0
DA:214,0
DA:215,0
DA:217,0
DA:218,0
DA:220,0
DA:221,0
DA:224,0
DA:225,0
DA:226,0
DA:227,0
DA:228,0
DA:229,0
DA:230,0
DA:232,0
DA:233,0
DA:234,0
DA:235,0
DA:236,0
DA:237,0
DA:238,0
DA:240,0
DA:241,0
DA:242,0
DA:243,0
DA:244,0
DA:245,0
DA:247,0
DA:248,0
DA:250,0
DA:253,0
DA:256,0
DA:257,0
DA:258,0
DA:259,0
DA:260,0
DA:261,0
DA:262,0
DA:263,0
DA:264,0
DA:265,0
DA:266,0
DA:267,0
DA:268,0
DA:269,0
DA:272,0
DA:273,0
DA:274,0
DA:275,0
DA:276,0
DA:277,0
DA:278,0
DA:279,0
DA:280,0
DA:281,0
DA:282,0
DA:283,0
DA:284,0
DA:285,0
DA:286,0
DA:288,0
DA:289,0
DA:292,0
DA:294,0
DA:295,0
DA:296,0
DA:298,0
DA:299,0
DA:300,0
DA:301,0
DA:304,0
DA:305,0
DA:306,0
DA:307,0
DA:308,0
DA:310,0
DA:313,0
DA:314,0
DA:315,0
DA:316,0
DA:317,0
DA:319,0
DA:322,0
DA:323,0
DA:324,0
DA:325,0
DA:326,0
DA:328,0
DA:329,0
DA:330,0
DA:331,0
DA:332,0
DA:336,0
DA:337,0
DA:340,0
DA:341,0
DA:342,0
DA:343,0
DA:344,0
DA:346,0
DA:347,0
DA:348,0
DA:351,0
DA:360,0
DA:362,0
DA:363,0
DA:365,0
DA:366,0
DA:369,0
DA:370,0
DA:371,0
DA:372,0
DA:373,0
DA:374,0
DA:375,0
DA:377,0
DA:380,0
DA:381,0
DA:384,0
DA:385,0
DA:386,0
DA:387,0
DA:388,0
DA:389,0
DA:390,0
DA:391,0
DA:393,0
DA:394,0
DA:396,0
DA:400,0
DA:410,0
DA:411,0
DA:413,0
DA:414,0
DA:419,0
DA:420,0
DA:421,0
DA:422,0
DA:423,0
DA:424,0
DA:425,0
DA:426,0
DA:427,0
DA:436,0
DA:437,0
DA:438,0
DA:442,0
DA:443,0
DA:444,0
DA:445,0
DA:446,0
DA:447,0
DA:449,0
DA:450,0
DA:451,0
DA:452,0
DA:454,0
DA:455,0
DA:456,0
DA:457,0
DA:459,0
DA:460,0
DA:461,0
DA:473,0
DA:474,0
DA:475,0
DA:476,0
DA:477,0
DA:478,0
DA:479,0
DA:481,0
DA:482,0
DA:483,0
DA:484,0
DA:485,0
DA:487,0
DA:488,0
DA:489,0
DA:490,0
BRF:0
BRH:0
LF:251
LH:0
end_of_record
SF:/mnt/datadrive_m2/self-sensored/src/handlers/payload_processor.rs
FN:181,_RINvMs_NtNtCs1yu0zy1SNdm_13self_sensored8handlers17payload_processorNtB5_16PayloadProcessor24parse_with_error_contextpEB9_
FN:319,_RNCNCNvNtNtCs1yu0zy1SNdm_13self_sensored8handlers17payload_processor17store_raw_payload00B9_
FN:134,_RNCNvMs_NtNtCs1yu0zy1SNdm_13self_sensored8handlers17payload_processorNtB6_16PayloadProcessor19parse_with_fallback0Ba_
FN:86,_RNCNvMs_NtNtCs1yu0zy1SNdm_13self_sensored8handlers17payload_processorNtB6_16PayloadProcessor26parse_payload_with_timeout0Ba_
FN:303,_RNCNvNtNtCs1yu0zy1SNdm_13self_sensored8handlers17payload_processor17store_raw_payload0B7_
FN:130,_RNvMs_NtNtCs1yu0zy1SNdm_13self_sensored8handlers17payload_processorNtB4_16PayloadProcessor19parse_with_fallback
FN:43,_RNvMs_NtNtCs1yu0zy1SNdm_13self_sensored8handlers17payload_processorNtB4_16PayloadProcessor19with_default_config
FN:48,_RNvMs_NtNtCs1yu0zy1SNdm_13self_sensored8handlers17payload_processorNtB4_16PayloadProcessor21validate_payload_size
FN:64,_RNvMs_NtNtCs1yu0zy1SNdm_13self_sensored8handlers17payload_processorNtB4_16PayloadProcessor22validate_json_security
FN:82,_RNvMs_NtNtCs1yu0zy1SNdm_13self_sensored8handlers17payload_processorNtB4_16PayloadProcessor26parse_payload_with_timeout
FN:198,_RNvMs_NtNtCs1yu0zy1SNdm_13self_sensored8handlers17payload_processorNtB4_16PayloadProcessor32validate_json_structure_security
FN:39,_RNvMs_NtNtCs1yu0zy1SNdm_13self_sensored8handlers17payload_processorNtB4_16PayloadProcessor3new
FN:298,_RNvNtNtCs1yu0zy1SNdm_13self_sensored8handlers17payload_processor17store_raw_payload
FN:22,_RNvXNtNtCs1yu0zy1SNdm_13self_sensored8handlers17payload_processorNtB2_22PayloadProcessorConfigNtNtCs1p5UDGgVI4d_4core7default7Default7default
FNDA:0,_RINvMs_NtNtCs1yu0zy1SNdm_13self_sensored8handlers17payload_processorNtB5_16PayloadProcessor24parse_with_error_contextpEB9_
FNDA:0,_RNCNCNvNtNtCs1yu0zy1SNdm_13self_sensored8handlers17payload_processor17store_raw_payload00B9_
FNDA:0,_RNCNvMs_NtNtCs1yu0zy1SNdm_13self_sensored8handlers17payload_processorNtB6_16PayloadProcessor19parse_with_fallback0Ba_
FNDA:0,_RNCNvMs_NtNtCs1yu0zy1SNdm_13self_sensored8handlers17payload_processorNtB6_16PayloadProcessor26parse_payload_with_timeout0Ba_
FNDA:0,_RNCNvNtNtCs1yu0zy1SNdm_13self_sensored8handlers17payload_processor17store_raw_payload0B7_
FNDA:0,_RNvMs_NtNtCs1yu0zy1SNdm_13self_sensored8handlers17payload_processorNtB4_16PayloadProcessor19parse_with_fallback
FNDA:0,_RNvMs_NtNtCs1yu0zy1SNdm_13self_sensored8handlers17payload_processorNtB4_16PayloadProcessor19with_default_config
FNDA:0,_RNvMs_NtNtCs1yu0zy1SNdm_13self_sensored8handlers17payload_processorNtB4_16PayloadProcessor21validate_payload_size
FNDA:0,_RNvMs_NtNtCs1yu0zy1SNdm_13self_sensored8handlers17payload_processorNtB4_16PayloadProcessor22validate_json_security
FNDA:0,_RNvMs_NtNtCs1yu0zy1SNdm_13self_sensored8handlers17payload_processorNtB4_16PayloadProcessor26parse_payload_with_timeout
FNDA:0,_RNvMs_NtNtCs1yu0zy1SNdm_13self_sensored8handlers17payload_processorNtB4_16PayloadProcessor32validate_json_structure_security
FNDA:0,_RNvMs_NtNtCs1yu0zy1SNdm_13self_sensored8handlers17payload_processorNtB4_16PayloadProcessor3new
FNDA:0,_RNvNtNtCs1yu0zy1SNdm_13self_sensored8handlers17payload_processor17store_raw_payload
FNDA:0,_RNvXNtNtCs1yu0zy1SNdm_13self_sensored8handlers17payload_processorNtB2_22PayloadProcessorConfigNtNtCs1p5UDGgVI4d_4core7default7Default7default
FNF:14
FNH:0
DA:22,0
DA:23,0
DA:24,0
DA:25,0
DA:26,0
DA:27,0
DA:28,0
DA:29,0
DA:30,0
DA:39,0
DA:40,0
DA:41,0
DA:43,0
DA:44,0
DA:45,0
DA:48,0
DA:49,0
DA:50,0
DA:51,0
DA:54,0
DA:55,0
DA:56,0
DA:57,0
DA:58,0
DA:59,0
DA:60,0
DA:61,0
DA:64,0
DA:65,0
DA:66,0
DA:67,0
DA:70,0
DA:71,0
DA:72,0
DA:73,0
DA:74,0
DA:75,0
DA:76,0
DA:78,0
DA:79,0
DA:82,0
DA:83,0
DA:84,0
DA:85,0
DA:86,0
DA:87,0
DA:90,0
DA:93,0
DA:95,0
DA:96,0
DA:97,0
DA:98,0
DA:100,0
DA:103,0
DA:104,0
DA:105,0
DA:106,0
DA:108,0
DA:110,0
DA:111,0
DA:112,0
DA:113,0
DA:114,0
DA:115,0
DA:118,0
DA:119,0
DA:122,0
DA:123,0
DA:124,0
DA:127,0
DA:130,0
DA:131,0
DA:132,0
DA:133,0
DA:134,0
DA:136,0
DA:137,0
DA:138,0
DA:139,0
DA:140,0
DA:142,0
DA:144,0
DA:145,0
DA:148,0
DA:150,0
DA:151,0
DA:152,0
DA:153,0
DA:155,0
DA:157,0
DA:158,0
DA:159,0
DA:160,0
DA:163,0
DA:164,0
DA:165,0
DA:167,0
DA:169,0
DA:171,0
DA:172,0
DA:173,0
DA:178,0
DA:181,0
DA:182,0
DA:183,0
DA:184,0
DA:185,0
DA:186,0
DA:187,0
DA:188,0
DA:189,0
DA:190,0
DA:191,0
DA:192,0
DA:195,0
DA:198,0
DA:199,0
DA:200,0
DA:201,0
DA:202,0
DA:203,0
DA:204,0
DA:205,0
DA:207,0
DA:208,0
DA:209,0
DA:210,0
DA:211,0
DA:213,0
DA:214,0
DA:215,0
DA:216,0
DA:217,0
DA:218,0
DA:219,0
DA:220,0
DA:221,0
DA:223,0
DA:224,0
DA:225,0
DA:226,0
DA:227,0
DA:230,0
DA:231,0
DA:232,0
DA:233,0
DA:234,0
DA:235,0
DA:237,0
DA:238,0
DA:239,0
DA:240,0
DA:241,0
DA:242,0
DA:244,0
DA:245,0
DA:246,0
DA:247,0
DA:248,0
DA:250,0
DA:251,0
DA:252,0
DA:253,0
DA:254,0
DA:256,0
DA:257,0
DA:258,0
DA:259,0
DA:260,0
DA:261,0
DA:262,0
DA:263,0
DA:265,0
DA:269,0
DA:270,0
DA:271,0
DA:274,0
DA:275,0
DA:276,0
DA:278,0
DA:279,0
DA:280,0
DA:282,0
DA:283,0
DA:284,0
DA:286,0
DA:287,0
DA:290,0
DA:293,0
DA:294,0
DA:298,0
DA:299,0
DA:300,0
DA:301,0
DA:302,0
DA:303,0
DA:306,0
DA:307,0
DA:308,0
DA:310,0
DA:319,0
DA:321,0
DA:322,0
DA:324,0
DA:325,0
BRF:0
BRH:0
LF:209
LH:0
end_of_record
SF:/mnt/datadrive_m2/self-sensored/src/handlers/query.rs
FN:578,_RNCNCNCNvNtNtCs1yu0zy1SNdm_13self_sensored8handlers5query18get_health_summary000Bb_
FN:850,_RNCNCNvNtNtCs1yu0zy1SNdm_13self_sensored8handlers5query17get_sleep_summary00B9_
FN:852,_RNCNCNvNtNtCs1yu0zy1SNdm_13self_sensored8handlers5query17get_sleep_summary0s0_0B9_
FN:851,_RNCNCNvNtNtCs1yu0zy1SNdm_13self_sensored8handlers5query17get_sleep_summary0s_0B9_
FN:917,_RNCNCNvNtNtCs1yu0zy1SNdm_13self_sensored8handlers5query19get_workout_summary00B9_
FN:918,_RNCNCNvNtNtCs1yu0zy1SNdm_13self_sensored8handlers5query19get_workout_summary0s_0B9_
FN:885,_RNCNCNvNtNtCs1yu0zy1SNdm_13self_sensored8handlers5query20get_activity_summary00B9_
FN:888,_RNCNCNvNtNtCs1yu0zy1SNdm_13self_sensored8handlers5query20get_activity_summary0s0_0B9_
FN:886,_RNCNCNvNtNtCs1yu0zy1SNdm_13self_sensored8handlers5query20get_activity_summary0s_0B9_
FN:779,_RNCNCNvNtNtCs1yu0zy1SNdm_13self_sensored8handlers5query22get_heart_rate_summary00B9_
FN:784,_RNCNCNvNtNtCs1yu0zy1SNdm_13self_sensored8handlers5query22get_heart_rate_summary0s0_0B9_
FN:789,_RNCNCNvNtNtCs1yu0zy1SNdm_13self_sensored8handlers5query22get_heart_rate_summary0s1_0B9_
FN:780,_RNCNCNvNtNtCs1yu0zy1SNdm_13self_sensored8handlers5query22get_heart_rate_summary0s_0B9_
FN:819,_RNCNCNvNtNtCs1yu0zy1SNdm_13self_sensored8handlers5query26get_blood_pressure_summary00B9_
FN:820,_RNCNCNvNtNtCs1yu0zy1SNdm_13self_sensored8handlers5query26get_blood_pressure_summary0s_0B9_
FN:297,_RNCNvNtNtCs1yu0zy1SNdm_13self_sensored8handlers5query14get_sleep_data0B7_
FN:675,_RNCNvNtNtCs1yu0zy1SNdm_13self_sensored8handlers5query15get_sleep_count0B7_
FN:483,_RNCNvNtNtCs1yu0zy1SNdm_13self_sensored8handlers5query16get_workout_data0B7_
FN:390,_RNCNvNtNtCs1yu0zy1SNdm_13self_sensored8handlers5query17get_activity_data0B7_
FN:830,_RNCNvNtNtCs1yu0zy1SNdm_13self_sensored8handlers5query17get_sleep_summary0B7_
FN:729,_RNCNvNtNtCs1yu0zy1SNdm_13self_sensored8handlers5query17get_workout_count0B7_
FN:702,_RNCNvNtNtCs1yu0zy1SNdm_13self_sensored8handlers5query18get_activity_count0B7_
FN:577,_RNCNvNtNtCs1yu0zy1SNdm_13self_sensored8handlers5query18get_health_summary0B7_
FN:112,_RNCNvNtNtCs1yu0zy1SNdm_13self_sensored8handlers5query19get_heart_rate_data0B7_
FN:897,_RNCNvNtNtCs1yu0zy1SNdm_13self_sensored8handlers5query19get_workout_summary0B7_
FN:861,_RNCNvNtNtCs1yu0zy1SNdm_13self_sensored8handlers5query20get_activity_summary0B7_
FN:621,_RNCNvNtNtCs1yu0zy1SNdm_13self_sensored8handlers5query20get_heart_rate_count0B7_
FN:758,_RNCNvNtNtCs1yu0zy1SNdm_13self_sensored8handlers5query22get_heart_rate_summary0B7_
FN:205,_RNCNvNtNtCs1yu0zy1SNdm_13self_sensored8handlers5query23get_blood_pressure_data0B7_
FN:648,_RNCNvNtNtCs1yu0zy1SNdm_13self_sensored8handlers5query24get_blood_pressure_count0B7_
FN:799,_RNCNvNtNtCs1yu0zy1SNdm_13self_sensored8handlers5query26get_blood_pressure_summary0B7_
FN:293,_RNvNtNtCs1yu0zy1SNdm_13self_sensored8handlers5query14get_sleep_data
FN:671,_RNvNtNtCs1yu0zy1SNdm_13self_sensored8handlers5query15get_sleep_count
FN:479,_RNvNtNtCs1yu0zy1SNdm_13self_sensored8handlers5query16get_workout_data
FN:386,_RNvNtNtCs1yu0zy1SNdm_13self_sensored8handlers5query17get_activity_data
FN:825,_RNvNtNtCs1yu0zy1SNdm_13self_sensored8handlers5query17get_sleep_summary
FN:725,_RNvNtNtCs1yu0zy1SNdm_13self_sensored8handlers5query17get_workout_count
FN:698,_RNvNtNtCs1yu0zy1SNdm_13self_sensored8handlers5query18get_activity_count
FN:573,_RNvNtNtCs1yu0zy1SNdm_13self_sensored8handlers5query18get_health_summary
FN:108,_RNvNtNtCs1yu0zy1SNdm_13self_sensored8handlers5query19get_heart_rate_data
FN:892,_RNvNtNtCs1yu0zy1SNdm_13self_sensored8handlers5query19get_workout_summary
FN:856,_RNvNtNtCs1yu0zy1SNdm_13self_sensored8handlers5query20get_activity_summary
FN:617,_RNvNtNtCs1yu0zy1SNdm_13self_sensored8handlers5query20get_heart_rate_count
FN:753,_RNvNtNtCs1yu0zy1SNdm_13self_sensored8handlers5query22get_heart_rate_summary
FN:201,_RNvNtNtCs1yu0zy1SNdm_13self_sensored8handlers5query23get_blood_pressure_data
FN:644,_RNvNtNtCs1yu0zy1SNdm_13self_sensored8handlers5query24get_blood_pressure_count
FN:794,_RNvNtNtCs1yu0zy1SNdm_13self_sensored8handlers5query26get_blood_pressure_summary
FNDA:0,_RNCNCNCNvNtNtCs1yu0zy1SNdm_13self_sensored8handlers5query18get_health_summary000Bb_
FNDA:0,_RNCNCNvNtNtCs1yu0zy1SNdm_13self_sensored8handlers5query17get_sleep_summary00B9_
FNDA:0,_RNCNCNvNtNtCs1yu0zy1SNdm_13self_sensored8handlers5query17get_sleep_summary0s0_0B9_
FNDA:0,_RNCNCNvNtNtCs1yu0zy1SNdm_13self_sensored8handlers5query17get_sleep_summary0s_0B9_
FNDA:0,_RNCNCNvNtNtCs1yu0zy1SNdm_13self_sensored8handlers5query19get_workout_summary00B9_
FNDA:0,_RNCNCNvNtNtCs1yu0zy1SNdm_13self_sensored8handlers5query19get_workout_summary0s_0B9_
FNDA:0,_RNCNCNvNtNtCs1yu0zy1SNdm_13self_sensored8handlers5query20get_activity_summary00B9_
FNDA:0,_RNCNCNvNtNtCs1yu0zy1SNdm_13self_sensored8handlers5query20get_activity_summary0s0_0B9_
FNDA:0,_RNCNCNvNtNtCs1yu0zy1SNdm_13self_sensored8handlers5query20get_activity_summary0s_0B9_
FNDA:0,_RNCNCNvNtNtCs1yu0zy1SNdm_13self_sensored8handlers5query22get_heart_rate_summary00B9_
FNDA:0,_RNCNCNvNtNtCs1yu0zy1SNdm_13self_sensored8handlers5query22get_heart_rate_summary0s0_0B9_
FNDA:0,_RNCNCNvNtNtCs1yu0zy1SNdm_13self_sensored8handlers5query22get_heart_rate_summary0s1_0B9_
FNDA:0,_RNCNCNvNtNtCs1yu0zy1SNdm_13self_sensored8handlers5query22get_heart_rate_summary0s_0B9_
FNDA:0,_RNCNCNvNtNtCs1yu0zy1SNdm_13self_sensored8handlers5query26get_blood_pressure_summary00B9_
FNDA:0,_RNCNCNvNtNtCs1yu0zy1SNdm_13self_sensored8handlers5query26get_blood_pressure_summary0s_0B9_
FNDA:0,_RNCNvNtNtCs1yu0zy1SNdm_13self_sensored8handlers5query14get_sleep_data0B7_
FNDA:0,_RNCNvNtNtCs1yu0zy1SNdm_13self_sensored8handlers5query15get_sleep_count0B7_
FNDA:0,_RNCNvNtNtCs1yu0zy1SNdm_13self_sensored8handlers5query16get_workout_data0B7_
FNDA:0,_RNCNvNtNtCs1yu0zy1SNdm_13self_sensored8handlers5query17get_activity_data0B7_
FNDA:0,_RNCNvNtNtCs1yu0zy1SNdm_13self_sensored8handlers5query17get_sleep_summary0B7_
FNDA:0,_RNCNvNtNtCs1yu0zy1SNdm_13self_sensored8handlers5query17get_workout_count0B7_
FNDA:0,_RNCNvNtNtCs1yu0zy1SNdm_13self_sensored8handlers5query18get_activity_count0B7_
FNDA:0,_RNCNvNtNtCs1yu0zy1SNdm_13self_sensored8handlers5query18get_health_summary0B7_
FNDA:0,_RNCNvNtNtCs1yu0zy1SNdm_13self_sensored8handlers5query19get_heart_rate_data0B7_
FNDA:0,_RNCNvNtNtCs1yu0zy1SNdm_13self_sensored8handlers5query19get_workout_summary0B7_
FNDA:0,_RNCNvNtNtCs1yu0zy1SNdm_13self_sensored8handlers5query20get_activity_summary0B7_
FNDA:0,_RNCNvNtNtCs1yu0zy1SNdm_13self_sensored8handlers5query20get_heart_rate_count0B7_
FNDA:0,_RNCNvNtNtCs1yu0zy1SNdm_13self_sensored8handlers5query22get_heart_rate_summary0B7_
FNDA:0,_RNCNvNtNtCs1yu0zy1SNdm_13self_sensored8handlers5query23get_blood_pressure_data0B7_
FNDA:0,_RNCNvNtNtCs1yu0zy1SNdm_13self_sensored8handlers5query24get_blood_pressure_count0B7_
FNDA:0,_RNCNvNtNtCs1yu0zy1SNdm_13self_sensored8handlers5query26get_blood_pressure_summary0B7_
FNDA:0,_RNvNtNtCs1yu0zy1SNdm_13self_sensored8handlers5query14get_sleep_data
FNDA:0,_RNvNtNtCs1yu0zy1SNdm_13self_sensored8handlers5query15get_sleep_count
FNDA:0,_RNvNtNtCs1yu0zy1SNdm_13self_sensored8handlers5query16get_workout_data
FNDA:0,_RNvNtNtCs1yu0zy1SNdm_13self_sensored8handlers5query17get_activity_data
FNDA:0,_RNvNtNtCs1yu0zy1SNdm_13self_sensored8handlers5query17get_sleep_summary
FNDA:0,_RNvNtNtCs1yu0zy1SNdm_13self_sensored8handlers5query17get_workout_count
FNDA:0,_RNvNtNtCs1yu0zy1SNdm_13self_sensored8handlers5query18get_activity_count
FNDA:0,_RNvNtNtCs1yu0zy1SNdm_13self_sensored8handlers5query18get_health_summary
FNDA:0,_RNvNtNtCs1yu0zy1SNdm_13self_sensored8handlers5query19get_heart_rate_data
FNDA:0,_RNvNtNtCs1yu0zy1SNdm_13self_sensored8handlers5query19get_workout_summary
FNDA:0,_RNvNtNtCs1yu0zy1SNdm_13self_sensored8handlers5query20get_activity_summary
FNDA:0,_RNvNtNtCs1yu0zy1SNdm_13self_sensored8handlers5query20get_heart_rate_count
FNDA:0,_RNvNtNtCs1yu0zy1SNdm_13self_sensored8handlers5query22get_heart_rate_summary
FNDA:0,_RNvNtNtCs1yu0zy1SNdm_13self_sensored8handlers5query23get_blood_pressure_data
FNDA:0,_RNvNtNtCs1yu0zy1SNdm_13self_sensored8handlers5query24get_blood_pressure_count
FNDA:0,_RNvNtNtCs1yu0zy1SNdm_13self_sensored8handlers5query26get_blood_pressure_summary
FNF:47
FNH:0
DA:108,0
DA:109,0
DA:110,0
DA:111,0
DA:112,0
DA:197,0
DA:201,0
DA:202,0
DA:203,0
DA:204,0
DA:205,0
DA:289,0
DA:293,0
DA:294,0
DA:295,0
DA:296,0
DA:297,0
DA:382,0
DA:386,0
DA:387,0
DA:388,0
DA:389,0
DA:390,0
DA:475,0
DA:479,0
DA:480,0
DA:481,0
DA:482,0
DA:483,0
DA:569,0
DA:573,0
DA:574,0
DA:575,0
DA:576,0
DA:577,0
DA:578,0
DA:579,0
DA:580,0
DA:614,0
DA:617,0
DA:618,0
DA:619,0
DA:620,0
DA:621,0
DA:622,0
DA:623,0
DA:625,0
DA:626,0
DA:627,0
DA:628,0
DA:629,0
DA:630,0
DA:631,0
DA:633,0
DA:634,0
DA:635,0
DA:636,0
DA:637,0
DA:638,0
DA:639,0
DA:641,0
DA:642,0
DA:644,0
DA:645,0
DA:646,0
DA:647,0
DA:648,0
DA:649,0
DA:650,0
DA:652,0
DA:653,0
DA:654,0
DA:655,0
DA:656,0
DA:657,0
DA:658,0
DA:660,0
DA:661,0
DA:662,0
DA:663,0
DA:664,0
DA:665,0
DA:666,0
DA:668,0
DA:669,0
DA:671,0
DA:672,0
DA:673,0
DA:674,0
DA:675,0
DA:676,0
DA:677,0
DA:679,0
DA:680,0
DA:681,0
DA:682,0
DA:683,0
DA:684,0
DA:685,0
DA:687,0
DA:688,0
DA:689,0
DA:690,0
DA:691,0
DA:692,0
DA:693,0
DA:695,0
DA:696,0
DA:698,0
DA:699,0
DA:700,0
DA:701,0
DA:702,0
DA:703,0
DA:704,0
DA:706,0
DA:707,0
DA:708,0
DA:709,0
DA:710,0
DA:711,0
DA:712,0
DA:714,0
DA:715,0
DA:716,0
DA:717,0
DA:718,0
DA:719,0
DA:720,0
DA:722,0
DA:723,0
DA:725,0
DA:726,0
DA:727,0
DA:728,0
DA:729,0
DA:730,0
DA:731,0
DA:733,0
DA:734,0
DA:735,0
DA:736,0
DA:737,0
DA:738,0
DA:739,0
DA:741,0
DA:742,0
DA:743,0
DA:744,0
DA:745,0
DA:746,0
DA:747,0
DA:749,0
DA:750,0
DA:753,0
DA:754,0
DA:755,0
DA:756,0
DA:757,0
DA:758,0
DA:759,0
DA:774,0
DA:775,0
DA:778,0
DA:779,0
DA:780,0
DA:781,0
DA:782,0
DA:784,0
DA:786,0
DA:787,0
DA:789,0
DA:792,0
DA:794,0
DA:795,0
DA:796,0
DA:797,0
DA:798,0
DA:799,0
DA:800,0
DA:814,0
DA:815,0
DA:818,0
DA:819,0
DA:820,0
DA:821,0
DA:823,0
DA:825,0
DA:826,0
DA:827,0
DA:828,0
DA:829,0
DA:830,0
DA:831,0
DA:845,0
DA:846,0
DA:849,0
DA:850,0
DA:851,0
DA:852,0
DA:854,0
DA:856,0
DA:857,0
DA:858,0
DA:859,0
DA:860,0
DA:861,0
DA:862,0
DA:877,0
DA:878,0
DA:881,0
DA:882,0
DA:883,0
DA:884,0
DA:885,0
DA:886,0
DA:887,0
DA:888,0
DA:890,0
DA:892,0
DA:893,0
DA:894,0
DA:895,0
DA:896,0
DA:897,0
DA:898,0
DA:912,0
DA:913,0
DA:916,0
DA:917,0
DA:918,0
DA:919,0
DA:921,0
BRF:0
BRH:0
LF:263
LH:0
end_of_record
SF:/mnt/datadrive_m2/self-sensored/src/handlers/reproductive_health_handler.rs
FN:465,_RNCNCNCNvNtNtCs1yu0zy1SNdm_13self_sensored8handlers27reproductive_health_handler18get_fertility_data000Bb_
FN:319,_RNCNCNCNvNtNtCs1yu0zy1SNdm_13self_sensored8handlers27reproductive_health_handler18get_menstrual_data000Bb_
FN:371,_RNCNCNCNvNtNtCs1yu0zy1SNdm_13self_sensored8handlers27reproductive_health_handler18get_menstrual_data00s_0Bb_
FN:199,_RNCNCNCNvNtNtCs1yu0zy1SNdm_13self_sensored8handlers27reproductive_health_handler26ingest_reproductive_health000Bb_
FN:252,_RNCNCNCNvNtNtCs1yu0zy1SNdm_13self_sensored8handlers27reproductive_health_handler26ingest_reproductive_health00s0_0Bb_
FN:234,_RNCNCNCNvNtNtCs1yu0zy1SNdm_13self_sensored8handlers27reproductive_health_handler26ingest_reproductive_health00s_0Bb_
FN:807,_RNCNCNvNtNtCs1yu0zy1SNdm_13self_sensored8handlers27reproductive_health_handler17extract_client_ips1_00B9_
FN:808,_RNCNCNvNtNtCs1yu0zy1SNdm_13self_sensored8handlers27reproductive_health_handler17extract_client_ips1_0s_0B9_
FN:810,_RNCNCNvNtNtCs1yu0zy1SNdm_13self_sensored8handlers27reproductive_health_handler17extract_client_ips2_00B9_
FN:706,_RNCNCNvNtNtCs1yu0zy1SNdm_13self_sensored8handlers27reproductive_health_handler22process_fertility_data00B9_
FN:739,_RNCNCNvNtNtCs1yu0zy1SNdm_13self_sensored8handlers27reproductive_health_handler22process_fertility_data0s0_0B9_
FN:740,_RNCNCNvNtNtCs1yu0zy1SNdm_13self_sensored8handlers27reproductive_health_handler22process_fertility_data0s1_0B9_
FN:748,_RNCNCNvNtNtCs1yu0zy1SNdm_13self_sensored8handlers27reproductive_health_handler22process_fertility_data0s_0B9_
FN:632,_RNCNCNvNtNtCs1yu0zy1SNdm_13self_sensored8handlers27reproductive_health_handler22process_menstrual_data00B9_
FN:657,_RNCNCNvNtNtCs1yu0zy1SNdm_13self_sensored8handlers27reproductive_health_handler22process_menstrual_data0s0_0B9_
FN:658,_RNCNCNvNtNtCs1yu0zy1SNdm_13self_sensored8handlers27reproductive_health_handler22process_menstrual_data0s1_0B9_
FN:659,_RNCNCNvNtNtCs1yu0zy1SNdm_13self_sensored8handlers27reproductive_health_handler22process_menstrual_data0s2_0B9_
FN:660,_RNCNCNvNtNtCs1yu0zy1SNdm_13self_sensored8handlers27reproductive_health_handler22process_menstrual_data0s3_0B9_
FN:667,_RNCNCNvNtNtCs1yu0zy1SNdm_13self_sensored8handlers27reproductive_health_handler22process_menstrual_data0s_0B9_
FN:766,_RNCNCNvNtNtCs1yu0zy1SNdm_13self_sensored8handlers27reproductive_health_handler29log_reproductive_health_audit00B9_
FN:801,_RNCNvNtNtCs1yu0zy1SNdm_13self_sensored8handlers27reproductive_health_handler17extract_client_ip0B7_
FN:803,_RNCNvNtNtCs1yu0zy1SNdm_13self_sensored8handlers27reproductive_health_handler17extract_client_ips0_0B7_
FN:804,_RNCNvNtNtCs1yu0zy1SNdm_13self_sensored8handlers27reproductive_health_handler17extract_client_ips1_0B7_
FN:810,_RNCNvNtNtCs1yu0zy1SNdm_13self_sensored8handlers27reproductive_health_handler17extract_client_ips2_0B7_
FN:811,_RNCNvNtNtCs1yu0zy1SNdm_13self_sensored8handlers27reproductive_health_handler17extract_client_ips3_0B7_
FN:802,_RNCNvNtNtCs1yu0zy1SNdm_13self_sensored8handlers27reproductive_health_handler17extract_client_ips_0B7_
FN:446,_RNCNvNtNtCs1yu0zy1SNdm_13self_sensored8handlers27reproductive_health_handler18get_fertility_data0B7_
FN:305,_RNCNvNtNtCs1yu0zy1SNdm_13self_sensored8handlers27reproductive_health_handler18get_menstrual_data0B7_
FN:677,_RNCNvNtNtCs1yu0zy1SNdm_13self_sensored8handlers27reproductive_health_handler22process_fertility_data0B7_
FN:612,_RNCNvNtNtCs1yu0zy1SNdm_13self_sensored8handlers27reproductive_health_handler22process_menstrual_data0B7_
FN:164,_RNCNvNtNtCs1yu0zy1SNdm_13self_sensored8handlers27reproductive_health_handler26ingest_reproductive_health0B7_
FN:765,_RNCNvNtNtCs1yu0zy1SNdm_13self_sensored8handlers27reproductive_health_handler29log_reproductive_health_audit0B7_
FN:798,_RNvNtNtCs1yu0zy1SNdm_13self_sensored8handlers27reproductive_health_handler17extract_client_ip
FN:441,_RNvNtNtCs1yu0zy1SNdm_13self_sensored8handlers27reproductive_health_handler18get_fertility_data
FN:300,_RNvNtNtCs1yu0zy1SNdm_13self_sensored8handlers27reproductive_health_handler18get_menstrual_data
FN:673,_RNvNtNtCs1yu0zy1SNdm_13self_sensored8handlers27reproductive_health_handler22process_fertility_data
FN:608,_RNvNtNtCs1yu0zy1SNdm_13self_sensored8handlers27reproductive_health_handler22process_menstrual_data
FN:159,_RNvNtNtCs1yu0zy1SNdm_13self_sensored8handlers27reproductive_health_handler26ingest_reproductive_health
FN:755,_RNvNtNtCs1yu0zy1SNdm_13self_sensored8handlers27reproductive_health_handler29log_reproductive_health_audit
FNDA:0,_RNCNCNCNvNtNtCs1yu0zy1SNdm_13self_sensored8handlers27reproductive_health_handler18get_fertility_data000Bb_
FNDA:0,_RNCNCNCNvNtNtCs1yu0zy1SNdm_13self_sensored8handlers27reproductive_health_handler18get_menstrual_data000Bb_
FNDA:0,_RNCNCNCNvNtNtCs1yu0zy1SNdm_13self_sensored8handlers27reproductive_health_handler18get_menstrual_data00s_0Bb_
FNDA:0,_RNCNCNCNvNtNtCs1yu0zy1SNdm_13self_sensored8handlers27reproductive_health_handler26ingest_reproductive_health000Bb_
FNDA:0,_RNCNCNCNvNtNtCs1yu0zy1SNdm_13self_sensored8handlers27reproductive_health_handler26ingest_reproductive_health00s0_0Bb_
FNDA:0,_RNCNCNCNvNtNtCs1yu0zy1SNdm_13self_sensored8handlers27reproductive_health_handler26ingest_reproductive_health00s_0Bb_
FNDA:0,_RNCNCNvNtNtCs1yu0zy1SNdm_13self_sensored8handlers27reproductive_health_handler17extract_client_ips1_00B9_
FNDA:0,_RNCNCNvNtNtCs1yu0zy1SNdm_13self_sensored8handlers27reproductive_health_handler17extract_client_ips1_0s_0B9_
FNDA:0,_RNCNCNvNtNtCs1yu0zy1SNdm_13self_sensored8handlers27reproductive_health_handler17extract_client_ips2_00B9_
FNDA:0,_RNCNCNvNtNtCs1yu0zy1SNdm_13self_sensored8handlers27reproductive_health_handler22process_fertility_data00B9_
FNDA:0,_RNCNCNvNtNtCs1yu0zy1SNdm_13self_sensored8handlers27reproductive_health_handler22process_fertility_data0s0_0B9_
FNDA:0,_RNCNCNvNtNtCs1yu0zy1SNdm_13self_sensored8handlers27reproductive_health_handler22process_fertility_data0s1_0B9_
FNDA:0,_RNCNCNvNtNtCs1yu0zy1SNdm_13self_sensored8handlers27reproductive_health_handler22process_fertility_data0s_0B9_
FNDA:0,_RNCNCNvNtNtCs1yu0zy1SNdm_13self_sensored8handlers27reproductive_health_handler22process_menstrual_data00B9_
FNDA:0,_RNCNCNvNtNtCs1yu0zy1SNdm_13self_sensored8handlers27reproductive_health_handler22process_menstrual_data0s0_0B9_
FNDA:0,_RNCNCNvNtNtCs1yu0zy1SNdm_13self_sensored8handlers27reproductive_health_handler22process_menstrual_data0s1_0B9_
FNDA:0,_RNCNCNvNtNtCs1yu0zy1SNdm_13self_sensored8handlers27reproductive_health_handler22process_menstrual_data0s2_0B9_
FNDA:0,_RNCNCNvNtNtCs1yu0zy1SNdm_13self_sensored8handlers27reproductive_health_handler22process_menstrual_data0s3_0B9_
FNDA:0,_RNCNCNvNtNtCs1yu0zy1SNdm_13self_sensored8handlers27reproductive_health_handler22process_menstrual_data0s_0B9_
FNDA:0,_RNCNCNvNtNtCs1yu0zy1SNdm_13self_sensored8handlers27reproductive_health_handler29log_reproductive_health_audit00B9_
FNDA:0,_RNCNvNtNtCs1yu0zy1SNdm_13self_sensored8handlers27reproductive_health_handler17extract_client_ip0B7_
FNDA:0,_RNCNvNtNtCs1yu0zy1SNdm_13self_sensored8handlers27reproductive_health_handler17extract_client_ips0_0B7_
FNDA:0,_RNCNvNtNtCs1yu0zy1SNdm_13self_sensored8handlers27reproductive_health_handler17extract_client_ips1_0B7_
FNDA:0,_RNCNvNtNtCs1yu0zy1SNdm_13self_sensored8handlers27reproductive_health_handler17extract_client_ips2_0B7_
FNDA:0,_RNCNvNtNtCs1yu0zy1SNdm_13self_sensored8handlers27reproductive_health_handler17extract_client_ips3_0B7_
FNDA:0,_RNCNvNtNtCs1yu0zy1SNdm_13self_sensored8handlers27reproductive_health_handler17extract_client_ips_0B7_
FNDA:0,_RNCNvNtNtCs1yu0zy1SNdm_13self_sensored8handlers27reproductive_health_handler18get_fertility_data0B7_
FNDA:0,_RNCNvNtNtCs1yu0zy1SNdm_13self_sensored8handlers27reproductive_health_handler18get_menstrual_data0B7_
FNDA:0,_RNCNvNtNtCs1yu0zy1SNdm_13self_sensored8handlers27reproductive_health_handler22process_fertility_data0B7_
FNDA:0,_RNCNvNtNtCs1yu0zy1SNdm_13self_sensored8handlers27reproductive_health_handler22process_menstrual_data0B7_
FNDA:0,_RNCNvNtNtCs1yu0zy1SNdm_13self_sensored8handlers27reproductive_health_handler26ingest_reproductive_health0B7_
FNDA:0,_RNCNvNtNtCs1yu0zy1SNdm_13self_sensored8handlers27reproductive_health_handler29log_reproductive_health_audit0B7_
FNDA:0,_RNvNtNtCs1yu0zy1SNdm_13self_sensored8handlers27reproductive_health_handler17extract_client_ip
FNDA:0,_RNvNtNtCs1yu0zy1SNdm_13self_sensored8handlers27reproductive_health_handler18get_fertility_data
FNDA:0,_RNvNtNtCs1yu0zy1SNdm_13self_sensored8handlers27reproductive_health_handler18get_menstrual_data
FNDA:0,_RNvNtNtCs1yu0zy1SNdm_13self_sensored8handlers27reproductive_health_handler22process_fertility_data
FNDA:0,_RNvNtNtCs1yu0zy1SNdm_13self_sensored8handlers27reproductive_health_handler22process_menstrual_data
FNDA:0,_RNvNtNtCs1yu0zy1SNdm_13self_sensored8handlers27reproductive_health_handler26ingest_reproductive_health
FNDA:0,_RNvNtNtCs1yu0zy1SNdm_13self_sensored8handlers27reproductive_health_handler29log_reproductive_health_audit
FNF:39
FNH:0
DA:159,0
DA:160,0
DA:161,0
DA:162,0
DA:163,0
DA:164,0
DA:199,0
DA:234,0
DA:252,0
DA:296,0
DA:300,0
DA:301,0
DA:302,0
DA:303,0
DA:304,0
DA:305,0
DA:319,0
DA:371,0
DA:372,0
DA:373,0
DA:374,0
DA:375,0
DA:376,0
DA:377,0
DA:437,0
DA:441,0
DA:442,0
DA:443,0
DA:444,0
DA:445,0
DA:446,0
DA:465,0
DA:605,0
DA:608,0
DA:609,0
DA:610,0
DA:611,0
DA:612,0
DA:614,0
DA:615,0
DA:616,0
DA:617,0
DA:618,0
DA:619,0
DA:620,0
DA:621,0
DA:622,0
DA:623,0
DA:624,0
DA:625,0
DA:626,0
DA:627,0
DA:630,0
DA:631,0
DA:632,0
DA:635,0
DA:657,0
DA:658,0
DA:659,0
DA:660,0
DA:665,0
DA:666,0
DA:667,0
DA:669,0
DA:670,0
DA:673,0
DA:674,0
DA:675,0
DA:676,0
DA:677,0
DA:679,0
DA:680,0
DA:681,0
DA:682,0
DA:683,0
DA:684,0
DA:685,0
DA:686,0
DA:687,0
DA:688,0
DA:689,0
DA:690,0
DA:691,0
DA:692,0
DA:693,0
DA:694,0
DA:695,0
DA:696,0
DA:697,0
DA:698,0
DA:699,0
DA:700,0
DA:701,0
DA:704,0
DA:705,0
DA:706,0
DA:709,0
DA:739,0
DA:740,0
DA:746,0
DA:747,0
DA:748,0
DA:750,0
DA:751,0
DA:755,0
DA:756,0
DA:757,0
DA:758,0
DA:759,0
DA:760,0
DA:761,0
DA:762,0
DA:763,0
DA:764,0
DA:765,0
DA:766,0
DA:768,0
DA:783,0
DA:784,0
DA:786,0
DA:787,0
DA:788,0
DA:791,0
DA:795,0
DA:798,0
DA:799,0
DA:800,0
DA:801,0
DA:802,0
DA:803,0
DA:804,0
DA:805,0
DA:806,0
DA:807,0
DA:808,0
DA:809,0
DA:810,0
DA:811,0
DA:812,0
BRF:0
BRH:0
LF:165
LH:0
end_of_record
SF:/mnt/datadrive_m2/self-sensored/src/handlers/respiratory_handler.rs
FN:314,_RNCNCNCNvNtNtCs1yu0zy1SNdm_13self_sensored8handlers19respiratory_handler25query_respiratory_handler000Bb_
FN:751,_RNCNCNvNtNtCs1yu0zy1SNdm_13self_sensored8handlers19respiratory_handler18analyze_spo2_trend00B9_
FN:872,_RNCNCNvNtNtCs1yu0zy1SNdm_13self_sensored8handlers19respiratory_handler25identify_critical_periodss1_00B9_
FN:815,_RNCNCNvNtNtCs1yu0zy1SNdm_13self_sensored8handlers19respiratory_handler29analyze_inhaler_usage_pattern00B9_
FN:783,_RNCNCNvNtNtCs1yu0zy1SNdm_13self_sensored8handlers19respiratory_handler30analyze_respiratory_rate_trend00B9_
FN:751,_RNCNvNtNtCs1yu0zy1SNdm_13self_sensored8handlers19respiratory_handler18analyze_spo2_trend0B7_
FN:598,_RNCNvNtNtCs1yu0zy1SNdm_13self_sensored8handlers19respiratory_handler24analyze_respiratory_data0B7_
FN:847,_RNCNvNtNtCs1yu0zy1SNdm_13self_sensored8handlers19respiratory_handler25identify_critical_periods0B7_
FN:872,_RNCNvNtNtCs1yu0zy1SNdm_13self_sensored8handlers19respiratory_handler25identify_critical_periodss1_0B7_
FN:850,_RNCNvNtNtCs1yu0zy1SNdm_13self_sensored8handlers19respiratory_handler25identify_critical_periodss_0B7_
FN:299,_RNCNvNtNtCs1yu0zy1SNdm_13self_sensored8handlers19respiratory_handler25query_respiratory_handler0B7_
FN:163,_RNCNvNtNtCs1yu0zy1SNdm_13self_sensored8handlers19respiratory_handler26ingest_respiratory_handler0B7_
FN:670,_RNCNvNtNtCs1yu0zy1SNdm_13self_sensored8handlers19respiratory_handler28generate_respiratory_summary0B7_
FN:815,_RNCNvNtNtCs1yu0zy1SNdm_13self_sensored8handlers19respiratory_handler29analyze_inhaler_usage_pattern0B7_
FN:914,_RNCNvNtNtCs1yu0zy1SNdm_13self_sensored8handlers19respiratory_handler29analyze_lung_function_changes0B7_
FN:915,_RNCNvNtNtCs1yu0zy1SNdm_13self_sensored8handlers19respiratory_handler29analyze_lung_function_changess_0B7_
FN:783,_RNCNvNtNtCs1yu0zy1SNdm_13self_sensored8handlers19respiratory_handler30analyze_respiratory_rate_trend0B7_
FN:798,_RNCNvNtNtCs1yu0zy1SNdm_13self_sensored8handlers19respiratory_handler30analyze_respiratory_rate_trends0_0B7_
FN:793,_RNCNvNtNtCs1yu0zy1SNdm_13self_sensored8handlers19respiratory_handler30analyze_respiratory_rate_trends_0B7_
FN:1002,_RNCNvNtNtCs1yu0zy1SNdm_13self_sensored8handlers19respiratory_handler32insert_respiratory_metrics_batch0B7_
FN:721,_RNCNvNtNtCs1yu0zy1SNdm_13self_sensored8handlers19respiratory_handler38generate_respiratory_timeline_analysis0B7_
FN:748,_RNvNtNtCs1yu0zy1SNdm_13self_sensored8handlers19respiratory_handler18analyze_spo2_trend
FN:622,_RNvNtNtCs1yu0zy1SNdm_13self_sensored8handlers19respiratory_handler20assess_lung_function
FN:533,_RNvNtNtCs1yu0zy1SNdm_13self_sensored8handlers19respiratory_handler24analyze_respiratory_data
FN:842,_RNvNtNtCs1yu0zy1SNdm_13self_sensored8handlers19respiratory_handler25identify_critical_periods
FN:295,_RNvNtNtCs1yu0zy1SNdm_13self_sensored8handlers19respiratory_handler25query_respiratory_handler
FN:159,_RNvNtNtCs1yu0zy1SNdm_13self_sensored8handlers19respiratory_handler26ingest_respiratory_handler
FN:665,_RNvNtNtCs1yu0zy1SNdm_13self_sensored8handlers19respiratory_handler28generate_respiratory_summary
FN:812,_RNvNtNtCs1yu0zy1SNdm_13self_sensored8handlers19respiratory_handler29analyze_inhaler_usage_pattern
FN:911,_RNvNtNtCs1yu0zy1SNdm_13self_sensored8handlers19respiratory_handler29analyze_lung_function_changes
FN:416,_RNvNtNtCs1yu0zy1SNdm_13self_sensored8handlers19respiratory_handler29convert_to_respiratory_metric
FN:780,_RNvNtNtCs1yu0zy1SNdm_13self_sensored8handlers19respiratory_handler30analyze_respiratory_rate_trend
FN:998,_RNvNtNtCs1yu0zy1SNdm_13self_sensored8handlers19respiratory_handler32insert_respiratory_metrics_batch
FN:515,_RNvNtNtCs1yu0zy1SNdm_13self_sensored8handlers19respiratory_handler33determine_respiratory_metric_type
FN:442,_RNvNtNtCs1yu0zy1SNdm_13self_sensored8handlers19respiratory_handler37check_critical_respiratory_conditions
FN:716,_RNvNtNtCs1yu0zy1SNdm_13self_sensored8handlers19respiratory_handler38generate_respiratory_timeline_analysis
FNDA:0,_RNCNCNCNvNtNtCs1yu0zy1SNdm_13self_sensored8handlers19respiratory_handler25query_respiratory_handler000Bb_
FNDA:0,_RNCNCNvNtNtCs1yu0zy1SNdm_13self_sensored8handlers19respiratory_handler18analyze_spo2_trend00B9_
FNDA:0,_RNCNCNvNtNtCs1yu0zy1SNdm_13self_sensored8handlers19respiratory_handler25identify_critical_periodss1_00B9_
FNDA:0,_RNCNCNvNtNtCs1yu0zy1SNdm_13self_sensored8handlers19respiratory_handler29analyze_inhaler_usage_pattern00B9_
FNDA:0,_RNCNCNvNtNtCs1yu0zy1SNdm_13self_sensored8handlers19respiratory_handler30analyze_respiratory_rate_trend00B9_
FNDA:0,_RNCNvNtNtCs1yu0zy1SNdm_13self_sensored8handlers19respiratory_handler18analyze_spo2_trend0B7_
FNDA:0,_RNCNvNtNtCs1yu0zy1SNdm_13self_sensored8handlers19respiratory_handler24analyze_respiratory_data0B7_
FNDA:0,_RNCNvNtNtCs1yu0zy1SNdm_13self_sensored8handlers19respiratory_handler25identify_critical_periods0B7_
FNDA:0,_RNCNvNtNtCs1yu0zy1SNdm_13self_sensored8handlers19respiratory_handler25identify_critical_periodss1_0B7_
FNDA:0,_RNCNvNtNtCs1yu0zy1SNdm_13self_sensored8handlers19respiratory_handler25identify_critical_periodss_0B7_
FNDA:0,_RNCNvNtNtCs1yu0zy1SNdm_13self_sensored8handlers19respiratory_handler25query_respiratory_handler0B7_
FNDA:0,_RNCNvNtNtCs1yu0zy1SNdm_13self_sensored8handlers19respiratory_handler26ingest_respiratory_handler0B7_
FNDA:0,_RNCNvNtNtCs1yu0zy1SNdm_13self_sensored8handlers19respiratory_handler28generate_respiratory_summary0B7_
FNDA:0,_RNCNvNtNtCs1yu0zy1SNdm_13self_sensored8handlers19respiratory_handler29analyze_inhaler_usage_pattern0B7_
FNDA:0,_RNCNvNtNtCs1yu0zy1SNdm_13self_sensored8handlers19respiratory_handler29analyze_lung_function_changes0B7_
FNDA:0,_RNCNvNtNtCs1yu0zy1SNdm_13self_sensored8handlers19respiratory_handler29analyze_lung_function_changess_0B7_
FNDA:0,_RNCNvNtNtCs1yu0zy1SNdm_13self_sensored8handlers19respiratory_handler30analyze_respiratory_rate_trend0B7_
FNDA:0,_RNCNvNtNtCs1yu0zy1SNdm_13self_sensored8handlers19respiratory_handler30analyze_respiratory_rate_trends0_0B7_
FNDA:0,_RNCNvNtNtCs1yu0zy1SNdm_13self_sensored8handlers19respiratory_handler30analyze_respiratory_rate_trends_0B7_
FNDA:0,_RNCNvNtNtCs1yu0zy1SNdm_13self_sensored8handlers19respiratory_handler32insert_respiratory_metrics_batch0B7_
FNDA:0,_RNCNvNtNtCs1yu0zy1SNdm_13self_sensored8handlers19respiratory_handler38generate_respiratory_timeline_analysis0B7_
FNDA:0,_RNvNtNtCs1yu0zy1SNdm_13self_sensored8handlers19respiratory_handler18analyze_spo2_trend
FNDA:0,_RNvNtNtCs1yu0zy1SNdm_13self_sensored8handlers19respiratory_handler20assess_lung_function
FNDA:0,_RNvNtNtCs1yu0zy1SNdm_13self_sensored8handlers19respiratory_handler24analyze_respiratory_data
FNDA:0,_RNvNtNtCs1yu0zy1SNdm_13self_sensored8handlers19respiratory_handler25identify_critical_periods
FNDA:0,_RNvNtNtCs1yu0zy1SNdm_13self_sensored8handlers19respiratory_handler25query_respiratory_handler
FNDA:0,_RNvNtNtCs1yu0zy1SNdm_13self_sensored8handlers19respiratory_handler26ingest_respiratory_handler
FNDA:0,_RNvNtNtCs1yu0zy1SNdm_13self_sensored8handlers19respiratory_handler28generate_respiratory_summary
FNDA:0,_RNvNtNtCs1yu0zy1SNdm_13self_sensored8handlers19respiratory_handler29analyze_inhaler_usage_pattern
FNDA:0,_RNvNtNtCs1yu0zy1SNdm_13self_sensored8handlers19respiratory_handler29analyze_lung_function_changes
FNDA:0,_RNvNtNtCs1yu0zy1SNdm_13self_sensored8handlers19respiratory_handler29convert_to_respiratory_metric
FNDA:0,_RNvNtNtCs1yu0zy1SNdm_13self_sensored8handlers19respiratory_handler30analyze_respiratory_rate_trend
FNDA:0,_RNvNtNtCs1yu0zy1SNdm_13self_sensored8handlers19respiratory_handler32insert_respiratory_metrics_batch
FNDA:0,_RNvNtNtCs1yu0zy1SNdm_13self_sensored8handlers19respiratory_handler33determine_respiratory_metric_type
FNDA:0,_RNvNtNtCs1yu0zy1SNdm_13self_sensored8handlers19respiratory_handler37check_critical_respiratory_conditions
FNDA:0,_RNvNtNtCs1yu0zy1SNdm_13self_sensored8handlers19respiratory_handler38generate_respiratory_timeline_analysis
FNF:36
FNH:0
DA:159,0
DA:160,0
DA:161,0
DA:162,0
DA:163,0
DA:165,0
DA:291,0
DA:295,0
DA:296,0
DA:297,0
DA:298,0
DA:299,0
DA:300,0
DA:314,0
DA:413,0
DA:416,0
DA:417,0
DA:418,0
DA:419,0
DA:420,0
DA:421,0
DA:422,0
DA:423,0
DA:424,0
DA:425,0
DA:426,0
DA:427,0
DA:428,0
DA:429,0
DA:430,0
DA:431,0
DA:432,0
DA:433,0
DA:436,0
DA:438,0
DA:439,0
DA:442,0
DA:443,0
DA:444,0
DA:445,0
DA:448,0
DA:449,0
DA:450,0
DA:451,0
DA:452,0
DA:453,0
DA:454,0
DA:455,0
DA:456,0
DA:457,0
DA:458,0
DA:459,0
DA:460,0
DA:461,0
DA:462,0
DA:463,0
DA:464,0
DA:465,0
DA:466,0
DA:467,0
DA:468,0
DA:469,0
DA:470,0
DA:471,0
DA:474,0
DA:475,0
DA:476,0
DA:477,0
DA:479,0
DA:481,0
DA:482,0
DA:483,0
DA:484,0
DA:485,0
DA:486,0
DA:487,0
DA:488,0
DA:489,0
DA:490,0
DA:491,0
DA:494,0
DA:495,0
DA:496,0
DA:497,0
DA:498,0
DA:499,0
DA:500,0
DA:501,0
DA:502,0
DA:503,0
DA:504,0
DA:505,0
DA:507,0
DA:508,0
DA:510,0
DA:512,0
DA:515,0
DA:516,0
DA:517,0
DA:518,0
DA:519,0
DA:520,0
DA:521,0
DA:522,0
DA:524,0
DA:525,0
DA:526,0
DA:528,0
DA:530,0
DA:533,0
DA:534,0
DA:535,0
DA:536,0
DA:537,0
DA:538,0
DA:540,0
DA:541,0
DA:542,0
DA:545,0
DA:547,0
DA:548,0
DA:549,0
DA:550,0
DA:551,0
DA:552,0
DA:553,0
DA:556,0
DA:557,0
DA:558,0
DA:559,0
DA:560,0
DA:561,0
DA:564,0
DA:565,0
DA:566,0
DA:567,0
DA:568,0
DA:569,0
DA:573,0
DA:574,0
DA:576,0
DA:579,0
DA:580,0
DA:582,0
DA:586,0
DA:587,0
DA:588,0
DA:589,0
DA:590,0
DA:591,0
DA:592,0
DA:593,0
DA:594,0
DA:595,0
DA:596,0
DA:597,0
DA:598,0
DA:599,0
DA:600,0
DA:601,0
DA:602,0
DA:603,0
DA:606,0
DA:608,0
DA:609,0
DA:610,0
DA:611,0
DA:612,0
DA:613,0
DA:614,0
DA:615,0
DA:616,0
DA:617,0
DA:618,0
DA:619,0
DA:622,0
DA:623,0
DA:624,0
DA:626,0
DA:627,0
DA:628,0
DA:629,0
DA:630,0
DA:631,0
DA:632,0
DA:635,0
DA:636,0
DA:637,0
DA:638,0
DA:640,0
DA:641,0
DA:642,0
DA:643,0
DA:644,0
DA:645,0
DA:646,0
DA:647,0
DA:648,0
DA:650,0
DA:653,0
DA:654,0
DA:655,0
DA:656,0
DA:657,0
DA:658,0
DA:660,0
DA:662,0
DA:665,0
DA:666,0
DA:667,0
DA:668,0
DA:669,0
DA:670,0
DA:671,0
DA:688,0
DA:689,0
DA:692,0
DA:700,0
DA:701,0
DA:703,0
DA:704,0
DA:705,0
DA:706,0
DA:707,0
DA:708,0
DA:709,0
DA:710,0
DA:711,0
DA:712,0
DA:713,0
DA:716,0
DA:717,0
DA:718,0
DA:720,0
DA:721,0
DA:724,0
DA:727,0
DA:730,0
DA:733,0
DA:736,0
DA:738,0
DA:739,0
DA:740,0
DA:741,0
DA:742,0
DA:743,0
DA:744,0
DA:745,0
DA:748,0
DA:749,0
DA:750,0
DA:751,0
DA:752,0
DA:754,0
DA:755,0
DA:756,0
DA:759,0
DA:760,0
DA:761,0
DA:762,0
DA:763,0
DA:764,0
DA:765,0
DA:766,0
DA:767,0
DA:768,0
DA:770,0
DA:771,0
DA:772,0
DA:773,0
DA:775,0
DA:777,0
DA:780,0
DA:781,0
DA:782,0
DA:783,0
DA:784,0
DA:786,0
DA:787,0
DA:788,0
DA:791,0
DA:792,0
DA:793,0
DA:794,0
DA:795,0
DA:796,0
DA:797,0
DA:798,0
DA:799,0
DA:800,0
DA:802,0
DA:803,0
DA:804,0
DA:805,0
DA:807,0
DA:809,0
DA:812,0
DA:813,0
DA:814,0
DA:815,0
DA:816,0
DA:818,0
DA:819,0
DA:820,0
DA:823,0
DA:824,0
DA:825,0
DA:826,0
DA:827,0
DA:828,0
DA:829,0
DA:830,0
DA:832,0
DA:833,0
DA:834,0
DA:835,0
DA:837,0
DA:839,0
DA:842,0
DA:843,0
DA:844,0
DA:846,0
DA:847,0
DA:848,0
DA:849,0
DA:850,0
DA:852,0
DA:853,0
DA:854,0
DA:855,0
DA:856,0
DA:857,0
DA:858,0
DA:859,0
DA:861,0
DA:863,0
DA:864,0
DA:865,0
DA:866,0
DA:867,0
DA:868,0
DA:870,0
DA:871,0
DA:872,0
DA:873,0
DA:874,0
DA:876,0
DA:877,0
DA:878,0
DA:879,0
DA:880,0
DA:881,0
DA:883,0
DA:886,0
DA:887,0
DA:888,0
DA:889,0
DA:890,0
DA:891,0
DA:893,0
DA:895,0
DA:896,0
DA:897,0
DA:898,0
DA:900,0
DA:903,0
DA:904,0
DA:907,0
DA:908,0
DA:911,0
DA:912,0
DA:913,0
DA:914,0
DA:915,0
DA:916,0
DA:917,0
DA:918,0
DA:919,0
DA:920,0
DA:921,0
DA:922,0
DA:924,0
DA:925,0
DA:926,0
DA:929,0
DA:930,0
DA:931,0
DA:932,0
DA:934,0
DA:935,0
DA:936,0
DA:937,0
DA:938,0
DA:940,0
DA:941,0
DA:942,0
DA:943,0
DA:945,0
DA:948,0
DA:952,0
DA:953,0
DA:954,0
DA:955,0
DA:957,0
DA:958,0
DA:959,0
DA:960,0
DA:961,0
DA:963,0
DA:964,0
DA:965,0
DA:966,0
DA:968,0
DA:971,0
DA:975,0
DA:976,0
DA:977,0
DA:978,0
DA:980,0
DA:983,0
DA:984,0
DA:985,0
DA:986,0
DA:989,0
DA:990,0
DA:991,0
DA:992,0
DA:993,0
DA:994,0
DA:995,0
DA:998,0
DA:999,0
DA:1000,0
DA:1001,0
DA:1002,0
DA:1003,0
DA:1004,0
DA:1005,0
DA:1007,0
DA:1009,0
DA:1010,0
DA:1037,0
DA:1038,0
DA:1040,0
DA:1041,0
DA:1042,0
DA:1043,0
DA:1047,0
DA:1053,0
DA:1054,0
DA:1055,0
DA:1056,0
BRF:0
BRH:0
LF:472
LH:0
end_of_record
SF:/mnt/datadrive_m2/self-sensored/src/handlers/streaming_processor.rs
FN:210,_RNCNCNCNvMs_NtNtCs1yu0zy1SNdm_13self_sensored8handlers19streaming_processorNtBa_18StreamingProcessor20try_parse_ios_format000Be_
FN:224,_RNCNCNCNvMs_NtNtCs1yu0zy1SNdm_13self_sensored8handlers19streaming_processorNtBa_18StreamingProcessor25try_parse_standard_format000Be_
FN:208,_RNCNCNvMs_NtNtCs1yu0zy1SNdm_13self_sensored8handlers19streaming_processorNtB8_18StreamingProcessor20try_parse_ios_format00Bc_
FN:213,_RNCNCNvMs_NtNtCs1yu0zy1SNdm_13self_sensored8handlers19streaming_processorNtB8_18StreamingProcessor20try_parse_ios_format0s_0Bc_
FN:81,_RNCNCNvMs_NtNtCs1yu0zy1SNdm_13self_sensored8handlers19streaming_processorNtB8_18StreamingProcessor22process_with_temp_file00Bc_
FN:105,_RNCNCNvMs_NtNtCs1yu0zy1SNdm_13self_sensored8handlers19streaming_processorNtB8_18StreamingProcessor22process_with_temp_file0s0_0Bc_
FN:114,_RNCNCNvMs_NtNtCs1yu0zy1SNdm_13self_sensored8handlers19streaming_processorNtB8_18StreamingProcessor22process_with_temp_file0s1_0Bc_
FN:126,_RNCNCNvMs_NtNtCs1yu0zy1SNdm_13self_sensored8handlers19streaming_processorNtB8_18StreamingProcessor22process_with_temp_file0s2_0Bc_
FN:95,_RNCNCNvMs_NtNtCs1yu0zy1SNdm_13self_sensored8handlers19streaming_processorNtB8_18StreamingProcessor22process_with_temp_file0s_0Bc_
FN:222,_RNCNCNvMs_NtNtCs1yu0zy1SNdm_13self_sensored8handlers19streaming_processorNtB8_18StreamingProcessor25try_parse_standard_format00Bc_
FN:227,_RNCNCNvMs_NtNtCs1yu0zy1SNdm_13self_sensored8handlers19streaming_processorNtB8_18StreamingProcessor25try_parse_standard_format0s_0Bc_
FN:160,_RNCNvMs_NtNtCs1yu0zy1SNdm_13self_sensored8handlers19streaming_processorNtB6_18StreamingProcessor17process_in_memory0Ba_
FN:172,_RNCNvMs_NtNtCs1yu0zy1SNdm_13self_sensored8handlers19streaming_processorNtB6_18StreamingProcessor18parse_json_content0Ba_
FN:206,_RNCNvMs_NtNtCs1yu0zy1SNdm_13self_sensored8handlers19streaming_processorNtB6_18StreamingProcessor20try_parse_ios_format0Ba_
FN:56,_RNCNvMs_NtNtCs1yu0zy1SNdm_13self_sensored8handlers19streaming_processorNtB6_18StreamingProcessor21process_large_payload0Ba_
FN:79,_RNCNvMs_NtNtCs1yu0zy1SNdm_13self_sensored8handlers19streaming_processorNtB6_18StreamingProcessor22process_with_temp_file0Ba_
FN:220,_RNCNvMs_NtNtCs1yu0zy1SNdm_13self_sensored8handlers19streaming_processorNtB6_18StreamingProcessor25try_parse_standard_format0Ba_
FN:255,_RNvMs0_NtNtCs1yu0zy1SNdm_13self_sensored8handlers19streaming_processorNtB5_24StreamingRecommendations16for_payload_size
FN:283,_RNvMs0_NtNtCs1yu0zy1SNdm_13self_sensored8handlers19streaming_processorNtB5_24StreamingRecommendations24is_streaming_recommended
FN:288,_RNvMs0_NtNtCs1yu0zy1SNdm_13self_sensored8handlers19streaming_processorNtB5_24StreamingRecommendations32should_use_background_processing
FN:156,_RNvMs_NtNtCs1yu0zy1SNdm_13self_sensored8handlers19streaming_processorNtB4_18StreamingProcessor17process_in_memory
FN:168,_RNvMs_NtNtCs1yu0zy1SNdm_13self_sensored8handlers19streaming_processorNtB4_18StreamingProcessor18parse_json_content
FN:47,_RNvMs_NtNtCs1yu0zy1SNdm_13self_sensored8handlers19streaming_processorNtB4_18StreamingProcessor19with_default_config
FN:231,_RNvMs_NtNtCs1yu0zy1SNdm_13self_sensored8handlers19streaming_processorNtB4_18StreamingProcessor20should_use_streaming
FN:203,_RNvMs_NtNtCs1yu0zy1SNdm_13self_sensored8handlers19streaming_processorNtB4_18StreamingProcessor20try_parse_ios_format
FN:243,_RNvMs_NtNtCs1yu0zy1SNdm_13self_sensored8handlers19streaming_processorNtB4_18StreamingProcessor21can_process_in_memory
FN:236,_RNvMs_NtNtCs1yu0zy1SNdm_13self_sensored8handlers19streaming_processorNtB4_18StreamingProcessor21estimate_memory_usage
FN:52,_RNvMs_NtNtCs1yu0zy1SNdm_13self_sensored8handlers19streaming_processorNtB4_18StreamingProcessor21process_large_payload
FN:75,_RNvMs_NtNtCs1yu0zy1SNdm_13self_sensored8handlers19streaming_processorNtB4_18StreamingProcessor22process_with_temp_file
FN:217,_RNvMs_NtNtCs1yu0zy1SNdm_13self_sensored8handlers19streaming_processorNtB4_18StreamingProcessor25try_parse_standard_format
FN:43,_RNvMs_NtNtCs1yu0zy1SNdm_13self_sensored8handlers19streaming_processorNtB4_18StreamingProcessor3new
FN:26,_RNvXNtNtCs1yu0zy1SNdm_13self_sensored8handlers19streaming_processorNtB2_15StreamingConfigNtNtCs1p5UDGgVI4d_4core7default7Default7default
FNDA:0,_RNCNCNCNvMs_NtNtCs1yu0zy1SNdm_13self_sensored8handlers19streaming_processorNtBa_18StreamingProcessor20try_parse_ios_format000Be_
FNDA:0,_RNCNCNCNvMs_NtNtCs1yu0zy1SNdm_13self_sensored8handlers19streaming_processorNtBa_18StreamingProcessor25try_parse_standard_format000Be_
FNDA:0,_RNCNCNvMs_NtNtCs1yu0zy1SNdm_13self_sensored8handlers19streaming_processorNtB8_18StreamingProcessor20try_parse_ios_format00Bc_
FNDA:0,_RNCNCNvMs_NtNtCs1yu0zy1SNdm_13self_sensored8handlers19streaming_processorNtB8_18StreamingProcessor20try_parse_ios_format0s_0Bc_
FNDA:0,_RNCNCNvMs_NtNtCs1yu0zy1SNdm_13self_sensored8handlers19streaming_processorNtB8_18StreamingProcessor22process_with_temp_file00Bc_
FNDA:0,_RNCNCNvMs_NtNtCs1yu0zy1SNdm_13self_sensored8handlers19streaming_processorNtB8_18StreamingProcessor22process_with_temp_file0s0_0Bc_
FNDA:0,_RNCNCNvMs_NtNtCs1yu0zy1SNdm_13self_sensored8handlers19streaming_processorNtB8_18StreamingProcessor22process_with_temp_file0s1_0Bc_
FNDA:0,_RNCNCNvMs_NtNtCs1yu0zy1SNdm_13self_sensored8handlers19streaming_processorNtB8_18StreamingProcessor22process_with_temp_file0s2_0Bc_
FNDA:0,_RNCNCNvMs_NtNtCs1yu0zy1SNdm_13self_sensored8handlers19streaming_processorNtB8_18StreamingProcessor22process_with_temp_file0s_0Bc_
FNDA:0,_RNCNCNvMs_NtNtCs1yu0zy1SNdm_13self_sensored8handlers19streaming_processorNtB8_18StreamingProcessor25try_parse_standard_format00Bc_
FNDA:0,_RNCNCNvMs_NtNtCs1yu0zy1SNdm_13self_sensored8handlers19streaming_processorNtB8_18StreamingProcessor25try_parse_standard_format0s_0Bc_
FNDA:0,_RNCNvMs_NtNtCs1yu0zy1SNdm_13self_sensored8handlers19streaming_processorNtB6_18StreamingProcessor17process_in_memory0Ba_
FNDA:0,_RNCNvMs_NtNtCs1yu0zy1SNdm_13self_sensored8handlers19streaming_processorNtB6_18StreamingProcessor18parse_json_content0Ba_
FNDA:0,_RNCNvMs_NtNtCs1yu0zy1SNdm_13self_sensored8handlers19streaming_processorNtB6_18StreamingProcessor20try_parse_ios_format0Ba_
FNDA:0,_RNCNvMs_NtNtCs1yu0zy1SNdm_13self_sensored8handlers19streaming_processorNtB6_18StreamingProcessor21process_large_payload0Ba_
FNDA:0,_RNCNvMs_NtNtCs1yu0zy1SNdm_13self_sensored8handlers19streaming_processorNtB6_18StreamingProcessor22process_with_temp_file0Ba_
FNDA:0,_RNCNvMs_NtNtCs1yu0zy1SNdm_13self_sensored8handlers19streaming_processorNtB6_18StreamingProcessor25try_parse_standard_format0Ba_
FNDA:0,_RNvMs0_NtNtCs1yu0zy1SNdm_13self_sensored8handlers19streaming_processorNtB5_24StreamingRecommendations16for_payload_size
FNDA:0,_RNvMs0_NtNtCs1yu0zy1SNdm_13self_sensored8handlers19streaming_processorNtB5_24StreamingRecommendations24is_streaming_recommended
FNDA:0,_RNvMs0_NtNtCs1yu0zy1SNdm_13self_sensored8handlers19streaming_processorNtB5_24StreamingRecommendations32should_use_background_processing
FNDA:0,_RNvMs_NtNtCs1yu0zy1SNdm_13self_sensored8handlers19streaming_processorNtB4_18StreamingProcessor17process_in_memory
FNDA:0,_RNvMs_NtNtCs1yu0zy1SNdm_13self_sensored8handlers19streaming_processorNtB4_18StreamingProcessor18parse_json_content
FNDA:0,_RNvMs_NtNtCs1yu0zy1SNdm_13self_sensored8handlers19streaming_processorNtB4_18StreamingProcessor19with_default_config
FNDA:0,_RNvMs_NtNtCs1yu0zy1SNdm_13self_sensored8handlers19streaming_processorNtB4_18StreamingProcessor20should_use_streaming
FNDA:0,_RNvMs_NtNtCs1yu0zy1SNdm_13self_sensored8handlers19streaming_processorNtB4_18StreamingProcessor20try_parse_ios_format
FNDA:0,_RNvMs_NtNtCs1yu0zy1SNdm_13self_sensored8handlers19streaming_processorNtB4_18StreamingProcessor21can_process_in_memory
FNDA:0,_RNvMs_NtNtCs1yu0zy1SNdm_13self_sensored8handlers19streaming_processorNtB4_18StreamingProcessor21estimate_memory_usage
FNDA:0,_RNvMs_NtNtCs1yu0zy1SNdm_13self_sensored8handlers19streaming_processorNtB4_18StreamingProcessor21process_large_payload
FNDA:0,_RNvMs_NtNtCs1yu0zy1SNdm_13self_sensored8handlers19streaming_processorNtB4_18StreamingProcessor22process_with_temp_file
FNDA:0,_RNvMs_NtNtCs1yu0zy1SNdm_13self_sensored8handlers19streaming_processorNtB4_18StreamingProcessor25try_parse_standard_format
FNDA:0,_RNvMs_NtNtCs1yu0zy1SNdm_13self_sensored8handlers19streaming_processorNtB4_18StreamingProcessor3new
FNDA:0,_RNvXNtNtCs1yu0zy1SNdm_13self_sensored8handlers19streaming_processorNtB2_15StreamingConfigNtNtCs1p5UDGgVI4d_4core7default7Default7default
FNF:32
FNH:0
DA:26,0
DA:27,0
DA:28,0
DA:29,0
DA:30,0
DA:31,0
DA:32,0
DA:33,0
DA:34,0
DA:43,0
DA:44,0
DA:45,0
DA:47,0
DA:48,0
DA:49,0
DA:52,0
DA:53,0
DA:54,0
DA:55,0
DA:56,0
DA:57,0
DA:59,0
DA:62,0
DA:66,0
DA:67,0
DA:70,0
DA:72,0
DA:75,0
DA:76,0
DA:77,0
DA:78,0
DA:79,0
DA:81,0
DA:82,0
DA:83,0
DA:85,0
DA:87,0
DA:90,0
DA:91,0
DA:92,0
DA:93,0
DA:95,0
DA:96,0
DA:97,0
DA:99,0
DA:101,0
DA:105,0
DA:106,0
DA:107,0
DA:109,0
DA:111,0
DA:114,0
DA:115,0
DA:116,0
DA:118,0
DA:120,0
DA:121,0
DA:124,0
DA:126,0
DA:127,0
DA:128,0
DA:130,0
DA:132,0
DA:133,0
DA:134,0
DA:136,0
DA:139,0
DA:140,0
DA:141,0
DA:142,0
DA:143,0
DA:146,0
DA:147,0
DA:148,0
DA:152,0
DA:153,0
DA:156,0
DA:157,0
DA:158,0
DA:159,0
DA:160,0
DA:161,0
DA:164,0
DA:165,0
DA:168,0
DA:169,0
DA:170,0
DA:171,0
DA:172,0
DA:174,0
DA:175,0
DA:176,0
DA:177,0
DA:179,0
DA:180,0
DA:183,0
DA:184,0
DA:185,0
DA:186,0
DA:188,0
DA:189,0
DA:190,0
DA:191,0
DA:193,0
DA:194,0
DA:195,0
DA:200,0
DA:203,0
DA:204,0
DA:205,0
DA:206,0
DA:207,0
DA:208,0
DA:209,0
DA:210,0
DA:211,0
DA:212,0
DA:213,0
DA:214,0
DA:217,0
DA:218,0
DA:219,0
DA:220,0
DA:221,0
DA:222,0
DA:223,0
DA:224,0
DA:225,0
DA:226,0
DA:227,0
DA:228,0
DA:231,0
DA:232,0
DA:233,0
DA:236,0
DA:239,0
DA:240,0
DA:243,0
DA:244,0
DA:245,0
DA:255,0
DA:256,0
DA:258,0
DA:259,0
DA:260,0
DA:261,0
DA:262,0
DA:263,0
DA:265,0
DA:266,0
DA:267,0
DA:268,0
DA:269,0
DA:270,0
DA:272,0
DA:273,0
DA:274,0
DA:275,0
DA:276,0
DA:277,0
DA:278,0
DA:280,0
DA:283,0
DA:284,0
DA:285,0
DA:288,0
DA:289,0
DA:290,0
BRF:0
BRH:0
LF:190
LH:0
end_of_record
SF:/mnt/datadrive_m2/self-sensored/src/handlers/symptoms_handler.rs
FN:381,_RNCNCNCNvNtNtCs1yu0zy1SNdm_13self_sensored8handlers16symptoms_handler20get_symptoms_handler000Bb_
FN:619,_RNCNCNvNtNtCs1yu0zy1SNdm_13self_sensored8handlers16symptoms_handler25generate_episode_patterns0s_0B9_
FN:280,_RNCNvNtNtCs1yu0zy1SNdm_13self_sensored8handlers16symptoms_handler20get_symptoms_handler0B7_
FN:417,_RNCNvNtNtCs1yu0zy1SNdm_13self_sensored8handlers16symptoms_handler20store_symptom_metric0B7_
FN:144,_RNCNvNtNtCs1yu0zy1SNdm_13self_sensored8handlers16symptoms_handler23ingest_symptoms_handler0B7_
FN:591,_RNCNvNtNtCs1yu0zy1SNdm_13self_sensored8handlers16symptoms_handler25generate_episode_patterns0B7_
FN:276,_RNvNtNtCs1yu0zy1SNdm_13self_sensored8handlers16symptoms_handler20get_symptoms_handler
FN:417,_RNvNtNtCs1yu0zy1SNdm_13self_sensored8handlers16symptoms_handler20store_symptom_metric
FN:450,_RNvNtNtCs1yu0zy1SNdm_13self_sensored8handlers16symptoms_handler23generate_batch_analysis
FN:140,_RNvNtNtCs1yu0zy1SNdm_13self_sensored8handlers16symptoms_handler23ingest_symptoms_handler
FN:510,_RNvNtNtCs1yu0zy1SNdm_13self_sensored8handlers16symptoms_handler24generate_symptom_summary
FN:577,_RNvNtNtCs1yu0zy1SNdm_13self_sensored8handlers16symptoms_handler25generate_episode_patterns
FNDA:0,_RNCNCNCNvNtNtCs1yu0zy1SNdm_13self_sensored8handlers16symptoms_handler20get_symptoms_handler000Bb_
FNDA:0,_RNCNCNvNtNtCs1yu0zy1SNdm_13self_sensored8handlers16symptoms_handler25generate_episode_patterns0s_0B9_
FNDA:0,_RNCNvNtNtCs1yu0zy1SNdm_13self_sensored8handlers16symptoms_handler20get_symptoms_handler0B7_
FNDA:0,_RNCNvNtNtCs1yu0zy1SNdm_13self_sensored8handlers16symptoms_handler20store_symptom_metric0B7_
FNDA:0,_RNCNvNtNtCs1yu0zy1SNdm_13self_sensored8handlers16symptoms_handler23ingest_symptoms_handler0B7_
FNDA:0,_RNCNvNtNtCs1yu0zy1SNdm_13self_sensored8handlers16symptoms_handler25generate_episode_patterns0B7_
FNDA:0,_RNvNtNtCs1yu0zy1SNdm_13self_sensored8handlers16symptoms_handler20get_symptoms_handler
FNDA:0,_RNvNtNtCs1yu0zy1SNdm_13self_sensored8handlers16symptoms_handler20store_symptom_metric
FNDA:0,_RNvNtNtCs1yu0zy1SNdm_13self_sensored8handlers16symptoms_handler23generate_batch_analysis
FNDA:0,_RNvNtNtCs1yu0zy1SNdm_13self_sensored8handlers16symptoms_handler23ingest_symptoms_handler
FNDA:0,_RNvNtNtCs1yu0zy1SNdm_13self_sensored8handlers16symptoms_handler24generate_symptom_summary
FNDA:0,_RNvNtNtCs1yu0zy1SNdm_13self_sensored8handlers16symptoms_handler25generate_episode_patterns
FNF:12
FNH:0
DA:140,0
DA:141,0
DA:142,0
DA:143,0
DA:144,0
DA:272,0
DA:276,0
DA:277,0
DA:278,0
DA:279,0
DA:280,0
DA:381,0
DA:414,0
DA:417,0
DA:418,0
DA:443,0
DA:444,0
DA:446,0
DA:447,0
DA:450,0
DA:451,0
DA:452,0
DA:453,0
DA:454,0
DA:455,0
DA:456,0
DA:457,0
DA:458,0
DA:459,0
DA:461,0
DA:462,0
DA:463,0
DA:465,0
DA:467,0
DA:468,0
DA:471,0
DA:472,0
DA:473,0
DA:474,0
DA:475,0
DA:476,0
DA:480,0
DA:481,0
DA:482,0
DA:485,0
DA:488,0
DA:489,0
DA:490,0
DA:493,0
DA:494,0
DA:496,0
DA:499,0
DA:500,0
DA:501,0
DA:502,0
DA:503,0
DA:504,0
DA:505,0
DA:506,0
DA:507,0
DA:510,0
DA:511,0
DA:513,0
DA:514,0
DA:515,0
DA:516,0
DA:517,0
DA:518,0
DA:519,0
DA:520,0
DA:521,0
DA:522,0
DA:523,0
DA:526,0
DA:527,0
DA:528,0
DA:529,0
DA:532,0
DA:533,0
DA:534,0
DA:535,0
DA:536,0
DA:538,0
DA:539,0
DA:540,0
DA:542,0
DA:543,0
DA:544,0
DA:547,0
DA:548,0
DA:549,0
DA:550,0
DA:551,0
DA:552,0
DA:555,0
DA:556,0
DA:557,0
DA:558,0
DA:560,0
DA:563,0
DA:565,0
DA:566,0
DA:567,0
DA:568,0
DA:569,0
DA:570,0
DA:571,0
DA:572,0
DA:573,0
DA:574,0
DA:577,0
DA:578,0
DA:579,0
DA:582,0
DA:583,0
DA:584,0
DA:585,0
DA:589,0
DA:590,0
DA:591,0
DA:592,0
DA:595,0
DA:596,0
DA:598,0
DA:599,0
DA:600,0
DA:601,0
DA:602,0
DA:603,0
DA:604,0
DA:607,0
DA:610,0
DA:611,0
DA:612,0
DA:613,0
DA:614,0
DA:617,0
DA:618,0
DA:619,0
DA:620,0
DA:621,0
DA:623,0
DA:624,0
DA:625,0
DA:626,0
DA:627,0
DA:631,0
DA:632,0
DA:633,0
DA:634,0
DA:636,0
DA:638,0
DA:639,0
DA:641,0
DA:642,0
DA:643,0
BRF:0
BRH:0
LF:161
LH:0
end_of_record
SF:/mnt/datadrive_m2/self-sensored/src/handlers/temperature_handler.rs
FN:282,_RNCNCNCNvNtNtCs1yu0zy1SNdm_13self_sensored8handlers19temperature_handler28get_temperature_data_handler000Bb_
FN:658,_RNCNvNtNtCs1yu0zy1SNdm_13self_sensored8handlers19temperature_handler23get_temperature_summary0B7_
FN:125,_RNCNvNtNtCs1yu0zy1SNdm_13self_sensored8handlers19temperature_handler26ingest_temperature_handler0B7_
FN:637,_RNCNvNtNtCs1yu0zy1SNdm_13self_sensored8handlers19temperature_handler27calculate_temperature_range0B7_
FN:640,_RNCNvNtNtCs1yu0zy1SNdm_13self_sensored8handlers19temperature_handler27calculate_temperature_ranges_0B7_
FN:267,_RNCNvNtNtCs1yu0zy1SNdm_13self_sensored8handlers19temperature_handler28get_temperature_data_handler0B7_
FN:653,_RNvNtNtCs1yu0zy1SNdm_13self_sensored8handlers19temperature_handler23get_temperature_summary
FN:565,_RNvNtNtCs1yu0zy1SNdm_13self_sensored8handlers19temperature_handler24analyze_temperature_data
FN:550,_RNvNtNtCs1yu0zy1SNdm_13self_sensored8handlers19temperature_handler26determine_temperature_type
FN:121,_RNvNtNtCs1yu0zy1SNdm_13self_sensored8handlers19temperature_handler26ingest_temperature_handler
FN:632,_RNvNtNtCs1yu0zy1SNdm_13self_sensored8handlers19temperature_handler27calculate_temperature_range
FN:263,_RNvNtNtCs1yu0zy1SNdm_13self_sensored8handlers19temperature_handler28get_temperature_data_handler
FN:516,_RNvNtNtCs1yu0zy1SNdm_13self_sensored8handlers19temperature_handler29convert_to_temperature_metric
FNDA:0,_RNCNCNCNvNtNtCs1yu0zy1SNdm_13self_sensored8handlers19temperature_handler28get_temperature_data_handler000Bb_
FNDA:0,_RNCNvNtNtCs1yu0zy1SNdm_13self_sensored8handlers19temperature_handler23get_temperature_summary0B7_
FNDA:0,_RNCNvNtNtCs1yu0zy1SNdm_13self_sensored8handlers19temperature_handler26ingest_temperature_handler0B7_
FNDA:0,_RNCNvNtNtCs1yu0zy1SNdm_13self_sensored8handlers19temperature_handler27calculate_temperature_range0B7_
FNDA:0,_RNCNvNtNtCs1yu0zy1SNdm_13self_sensored8handlers19temperature_handler27calculate_temperature_ranges_0B7_
FNDA:0,_RNCNvNtNtCs1yu0zy1SNdm_13self_sensored8handlers19temperature_handler28get_temperature_data_handler0B7_
FNDA:0,_RNvNtNtCs1yu0zy1SNdm_13self_sensored8handlers19temperature_handler23get_temperature_summary
FNDA:0,_RNvNtNtCs1yu0zy1SNdm_13self_sensored8handlers19temperature_handler24analyze_temperature_data
FNDA:0,_RNvNtNtCs1yu0zy1SNdm_13self_sensored8handlers19temperature_handler26determine_temperature_type
FNDA:0,_RNvNtNtCs1yu0zy1SNdm_13self_sensored8handlers19temperature_handler26ingest_temperature_handler
FNDA:0,_RNvNtNtCs1yu0zy1SNdm_13self_sensored8handlers19temperature_handler27calculate_temperature_range
FNDA:0,_RNvNtNtCs1yu0zy1SNdm_13self_sensored8handlers19temperature_handler28get_temperature_data_handler
FNDA:0,_RNvNtNtCs1yu0zy1SNdm_13self_sensored8handlers19temperature_handler29convert_to_temperature_metric
FNF:13
FNH:0
DA:121,0
DA:122,0
DA:123,0
DA:124,0
DA:125,0
DA:127,0
DA:259,0
DA:263,0
DA:264,0
DA:265,0
DA:266,0
DA:267,0
DA:269,0
DA:282,0
DA:283,0
DA:284,0
DA:513,0
DA:516,0
DA:517,0
DA:518,0
DA:519,0
DA:520,0
DA:521,0
DA:522,0
DA:523,0
DA:524,0
DA:525,0
DA:526,0
DA:527,0
DA:528,0
DA:529,0
DA:530,0
DA:531,0
DA:532,0
DA:535,0
DA:538,0
DA:539,0
DA:540,0
DA:541,0
DA:543,0
DA:544,0
DA:546,0
DA:547,0
DA:550,0
DA:551,0
DA:552,0
DA:553,0
DA:554,0
DA:555,0
DA:556,0
DA:557,0
DA:558,0
DA:560,0
DA:562,0
DA:565,0
DA:566,0
DA:567,0
DA:568,0
DA:569,0
DA:570,0
DA:571,0
DA:572,0
DA:574,0
DA:576,0
DA:577,0
DA:579,0
DA:580,0
DA:581,0
DA:584,0
DA:585,0
DA:586,0
DA:587,0
DA:588,0
DA:589,0
DA:590,0
DA:591,0
DA:592,0
DA:593,0
DA:594,0
DA:595,0
DA:596,0
DA:597,0
DA:598,0
DA:599,0
DA:600,0
DA:601,0
DA:602,0
DA:603,0
DA:604,0
DA:605,0
DA:606,0
DA:609,0
DA:610,0
DA:613,0
DA:614,0
DA:615,0
DA:616,0
DA:619,0
DA:621,0
DA:622,0
DA:623,0
DA:624,0
DA:625,0
DA:626,0
DA:627,0
DA:628,0
DA:629,0
DA:632,0
DA:633,0
DA:634,0
DA:635,0
DA:637,0
DA:638,0
DA:639,0
DA:640,0
DA:641,0
DA:642,0
DA:644,0
DA:645,0
DA:646,0
DA:647,0
DA:648,0
DA:649,0
DA:650,0
DA:653,0
DA:654,0
DA:655,0
DA:656,0
DA:657,0
DA:658,0
DA:659,0
DA:674,0
DA:675,0
DA:678,0
DA:692,0
DA:693,0
DA:695,0
DA:696,0
DA:697,0
DA:698,0
DA:700,0
DA:701,0
DA:702,0
DA:703,0
DA:704,0
DA:705,0
DA:706,0
DA:707,0
DA:708,0
BRF:0
BRH:0
LF:154
LH:0
end_of_record
SF:/mnt/datadrive_m2/self-sensored/src/handlers/timeout_manager.rs
FN:187,_RNvMs0_NtNtCs1yu0zy1SNdm_13self_sensored8handlers15timeout_managerNtB5_16ProcessingStatus11get_message
FN:180,_RNvMs0_NtNtCs1yu0zy1SNdm_13self_sensored8handlers15timeout_managerNtB5_16ProcessingStatus22should_return_accepted
FN:234,_RNvMs1_NtNtCs1yu0zy1SNdm_13self_sensored8handlers15timeout_managerINtB5_18TimeoutAwareResultpE11with_statusB9_
FN:213,_RNvMs1_NtNtCs1yu0zy1SNdm_13self_sensored8handlers15timeout_managerINtB5_18TimeoutAwareResultpE3newB9_
FN:92,_RNvMs_NtNtCs1yu0zy1SNdm_13self_sensored8handlers15timeout_managerNtB4_14TimeoutManager12elapsed_time
FN:125,_RNvMs_NtNtCs1yu0zy1SNdm_13self_sensored8handlers15timeout_managerNtB4_14TimeoutManager14is_large_batch
FN:80,_RNvMs_NtNtCs1yu0zy1SNdm_13self_sensored8handlers15timeout_managerNtB4_14TimeoutManager14remaining_time
FN:148,_RNvMs_NtNtCs1yu0zy1SNdm_13self_sensored8handlers15timeout_managerNtB4_14TimeoutManager15log_final_stats
FN:61,_RNvMs_NtNtCs1yu0zy1SNdm_13self_sensored8handlers15timeout_managerNtB4_14TimeoutManager16get_json_timeout
FN:46,_RNvMs_NtNtCs1yu0zy1SNdm_13self_sensored8handlers15timeout_managerNtB4_14TimeoutManager19with_default_config
FN:116,_RNvMs_NtNtCs1yu0zy1SNdm_13self_sensored8handlers15timeout_managerNtB4_14TimeoutManager20create_timeout_error
FN:66,_RNvMs_NtNtCs1yu0zy1SNdm_13self_sensored8handlers15timeout_managerNtB4_14TimeoutManager22get_connection_timeout
FN:130,_RNvMs_NtNtCs1yu0zy1SNdm_13self_sensored8handlers15timeout_managerNtB4_14TimeoutManager22get_optimal_chunk_size
FN:56,_RNvMs_NtNtCs1yu0zy1SNdm_13self_sensored8handlers15timeout_managerNtB4_14TimeoutManager22get_processing_timeout
FN:71,_RNvMs_NtNtCs1yu0zy1SNdm_13self_sensored8handlers15timeout_managerNtB4_14TimeoutManager22is_approaching_timeout
FN:102,_RNvMs_NtNtCs1yu0zy1SNdm_13self_sensored8handlers15timeout_managerNtB4_14TimeoutManager27warn_if_approaching_timeout
FN:51,_RNvMs_NtNtCs1yu0zy1SNdm_13self_sensored8handlers15timeout_managerNtB4_14TimeoutManager32should_use_background_processing
FN:39,_RNvMs_NtNtCs1yu0zy1SNdm_13self_sensored8handlers15timeout_managerNtB4_14TimeoutManager3new
FN:97,_RNvMs_NtNtCs1yu0zy1SNdm_13self_sensored8handlers15timeout_managerNtB4_14TimeoutManager5reset
FN:21,_RNvXNtNtCs1yu0zy1SNdm_13self_sensored8handlers15timeout_managerNtB2_13TimeoutConfigNtNtCs1p5UDGgVI4d_4core7default7Default7default
FNDA:0,_RNvMs0_NtNtCs1yu0zy1SNdm_13self_sensored8handlers15timeout_managerNtB5_16ProcessingStatus11get_message
FNDA:0,_RNvMs0_NtNtCs1yu0zy1SNdm_13self_sensored8handlers15timeout_managerNtB5_16ProcessingStatus22should_return_accepted
FNDA:0,_RNvMs1_NtNtCs1yu0zy1SNdm_13self_sensored8handlers15timeout_managerINtB5_18TimeoutAwareResultpE11with_statusB9_
FNDA:0,_RNvMs1_NtNtCs1yu0zy1SNdm_13self_sensored8handlers15timeout_managerINtB5_18TimeoutAwareResultpE3newB9_
FNDA:0,_RNvMs_NtNtCs1yu0zy1SNdm_13self_sensored8handlers15timeout_managerNtB4_14TimeoutManager12elapsed_time
FNDA:0,_RNvMs_NtNtCs1yu0zy1SNdm_13self_sensored8handlers15timeout_managerNtB4_14TimeoutManager14is_large_batch
FNDA:0,_RNvMs_NtNtCs1yu0zy1SNdm_13self_sensored8handlers15timeout_managerNtB4_14TimeoutManager14remaining_time
FNDA:0,_RNvMs_NtNtCs1yu0zy1SNdm_13self_sensored8handlers15timeout_managerNtB4_14TimeoutManager15log_final_stats
FNDA:0,_RNvMs_NtNtCs1yu0zy1SNdm_13self_sensored8handlers15timeout_managerNtB4_14TimeoutManager16get_json_timeout
FNDA:0,_RNvMs_NtNtCs1yu0zy1SNdm_13self_sensored8handlers15timeout_managerNtB4_14TimeoutManager19with_default_config
FNDA:0,_RNvMs_NtNtCs1yu0zy1SNdm_13self_sensored8handlers15timeout_managerNtB4_14TimeoutManager20create_timeout_error
FNDA:0,_RNvMs_NtNtCs1yu0zy1SNdm_13self_sensored8handlers15timeout_managerNtB4_14TimeoutManager22get_connection_timeout
FNDA:0,_RNvMs_NtNtCs1yu0zy1SNdm_13self_sensored8handlers15timeout_managerNtB4_14TimeoutManager22get_optimal_chunk_size
FNDA:0,_RNvMs_NtNtCs1yu0zy1SNdm_13self_sensored8handlers15timeout_managerNtB4_14TimeoutManager22get_processing_timeout
FNDA:0,_RNvMs_NtNtCs1yu0zy1SNdm_13self_sensored8handlers15timeout_managerNtB4_14TimeoutManager22is_approaching_timeout
FNDA:0,_RNvMs_NtNtCs1yu0zy1SNdm_13self_sensored8handlers15timeout_managerNtB4_14TimeoutManager27warn_if_approaching_timeout
FNDA:0,_RNvMs_NtNtCs1yu0zy1SNdm_13self_sensored8handlers15timeout_managerNtB4_14TimeoutManager32should_use_background_processing
FNDA:0,_RNvMs_NtNtCs1yu0zy1SNdm_13self_sensored8handlers15timeout_managerNtB4_14TimeoutManager3new
FNDA:0,_RNvMs_NtNtCs1yu0zy1SNdm_13self_sensored8handlers15timeout_managerNtB4_14TimeoutManager5reset
FNDA:0,_RNvXNtNtCs1yu0zy1SNdm_13self_sensored8handlers15timeout_managerNtB2_13TimeoutConfigNtNtCs1p5UDGgVI4d_4core7default7Default7default
FNF:20
FNH:0
DA:21,0
DA:22,0
DA:23,0
DA:24,0
DA:25,0
DA:26,0
DA:27,0
DA:28,0
DA:29,0
DA:39,0
DA:40,0
DA:41,0
DA:42,0
DA:43,0
DA:44,0
DA:46,0
DA:47,0
DA:48,0
DA:51,0
DA:52,0
DA:53,0
DA:56,0
DA:57,0
DA:58,0
DA:61,0
DA:62,0
DA:63,0
DA:66,0
DA:67,0
DA:68,0
DA:71,0
DA:72,0
DA:73,0
DA:74,0
DA:76,0
DA:77,0
DA:80,0
DA:81,0
DA:82,0
DA:84,0
DA:85,0
DA:87,0
DA:89,0
DA:92,0
DA:93,0
DA:94,0
DA:97,0
DA:98,0
DA:99,0
DA:102,0
DA:103,0
DA:105,0
DA:107,0
DA:110,0
DA:112,0
DA:113,0
DA:116,0
DA:117,0
DA:118,0
DA:122,0
DA:125,0
DA:126,0
DA:127,0
DA:130,0
DA:131,0
DA:132,0
DA:135,0
DA:136,0
DA:137,0
DA:140,0
DA:141,0
DA:142,0
DA:144,0
DA:145,0
DA:148,0
DA:149,0
DA:150,0
DA:151,0
DA:152,0
DA:153,0
DA:155,0
DA:158,0
DA:160,0
DA:165,0
DA:167,0
DA:180,0
DA:181,0
DA:182,0
DA:185,0
DA:187,0
DA:188,0
DA:189,0
DA:190,0
DA:191,0
DA:193,0
DA:194,0
DA:196,0
DA:197,0
DA:200,0
DA:213,0
DA:214,0
DA:215,0
DA:217,0
DA:218,0
DA:219,0
DA:220,0
DA:221,0
DA:223,0
DA:226,0
DA:227,0
DA:228,0
DA:229,0
DA:230,0
DA:231,0
DA:232,0
DA:234,0
DA:235,0
DA:236,0
DA:237,0
BRF:0
BRH:0
LF:119
LH:0
end_of_record
SF:/mnt/datadrive_m2/self-sensored/src/handlers/user_characteristics_handler.rs
FN:996,_RNvNtNtNtCs1yu0zy1SNdm_13self_sensored8handlers28user_characteristics_handler5tests17create_test_input
FN:912,_RNCNCNCNvNtNtCs1yu0zy1SNdm_13self_sensored8handlers28user_characteristics_handler19get_aggregate_stats0s_00Bb_
FN:911,_RNCNCNvNtNtCs1yu0zy1SNdm_13self_sensored8handlers28user_characteristics_handler19get_aggregate_stats00B9_
FN:912,_RNCNCNvNtNtCs1yu0zy1SNdm_13self_sensored8handlers28user_characteristics_handler19get_aggregate_stats0s_0B9_
FN:682,_RNCNCNvNtNtCs1yu0zy1SNdm_13self_sensored8handlers28user_characteristics_handler21get_validation_ranges0s0_0B9_
FN:682,_RNCNCNvNtNtCs1yu0zy1SNdm_13self_sensored8handlers28user_characteristics_handler21get_validation_ranges0s1_0B9_
FN:857,_RNCNvNtNtCs1yu0zy1SNdm_13self_sensored8handlers28user_characteristics_handler18get_emergency_info0B7_
FN:906,_RNCNvNtNtCs1yu0zy1SNdm_13self_sensored8handlers28user_characteristics_handler19get_aggregate_stats0B7_
FN:807,_RNCNvNtNtCs1yu0zy1SNdm_13self_sensored8handlers28user_characteristics_handler20get_heart_rate_zones0B7_
FN:665,_RNCNvNtNtCs1yu0zy1SNdm_13self_sensored8handlers28user_characteristics_handler21get_validation_ranges0B7_
FN:709,_RNCNvNtNtCs1yu0zy1SNdm_13self_sensored8handlers28user_characteristics_handler22get_uv_recommendations0B7_
FN:294,_RNCNvNtNtCs1yu0zy1SNdm_13self_sensored8handlers28user_characteristics_handler24get_user_characteristics0B7_
FN:344,_RNCNvNtNtCs1yu0zy1SNdm_13self_sensored8handlers28user_characteristics_handler27create_user_characteristics0B7_
FN:575,_RNCNvNtNtCs1yu0zy1SNdm_13self_sensored8handlers28user_characteristics_handler27delete_user_characteristics0B7_
FN:438,_RNCNvNtNtCs1yu0zy1SNdm_13self_sensored8handlers28user_characteristics_handler27update_user_characteristics0B7_
FN:512,_RNCNvNtNtCs1yu0zy1SNdm_13self_sensored8handlers28user_characteristics_handler27upsert_user_characteristics0B7_
FN:623,_RNCNvNtNtCs1yu0zy1SNdm_13self_sensored8handlers28user_characteristics_handler27verify_user_characteristics0B7_
FN:757,_RNCNvNtNtCs1yu0zy1SNdm_13self_sensored8handlers28user_characteristics_handler28get_activity_personalization0B7_
FN:962,_RNvNtNtCs1yu0zy1SNdm_13self_sensored8handlers28user_characteristics_handler16configure_routes
FN:854,_RNvNtNtCs1yu0zy1SNdm_13self_sensored8handlers28user_characteristics_handler18get_emergency_info
FN:903,_RNvNtNtCs1yu0zy1SNdm_13self_sensored8handlers28user_characteristics_handler19get_aggregate_stats
FN:803,_RNvNtNtCs1yu0zy1SNdm_13self_sensored8handlers28user_characteristics_handler20get_heart_rate_zones
FN:661,_RNvNtNtCs1yu0zy1SNdm_13self_sensored8handlers28user_characteristics_handler21get_validation_ranges
FN:706,_RNvNtNtCs1yu0zy1SNdm_13self_sensored8handlers28user_characteristics_handler22get_uv_recommendations
FN:291,_RNvNtNtCs1yu0zy1SNdm_13self_sensored8handlers28user_characteristics_handler24get_user_characteristics
FN:340,_RNvNtNtCs1yu0zy1SNdm_13self_sensored8handlers28user_characteristics_handler27create_user_characteristics
FN:572,_RNvNtNtCs1yu0zy1SNdm_13self_sensored8handlers28user_characteristics_handler27delete_user_characteristics
FN:434,_RNvNtNtCs1yu0zy1SNdm_13self_sensored8handlers28user_characteristics_handler27update_user_characteristics
FN:508,_RNvNtNtCs1yu0zy1SNdm_13self_sensored8handlers28user_characteristics_handler27upsert_user_characteristics
FN:620,_RNvNtNtCs1yu0zy1SNdm_13self_sensored8handlers28user_characteristics_handler27verify_user_characteristics
FN:754,_RNvNtNtCs1yu0zy1SNdm_13self_sensored8handlers28user_characteristics_handler28get_activity_personalization
FN:1019,_RNCNCNvNtNtNtCs1yu0zy1SNdm_13self_sensored8handlers28user_characteristics_handler5testss_21test_input_validation00Bb_
FNDA:1,_RNvNtNtNtCs1yu0zy1SNdm_13self_sensored8handlers28user_characteristics_handler5tests17create_test_input
FNDA:0,_RNCNCNCNvNtNtCs1yu0zy1SNdm_13self_sensored8handlers28user_characteristics_handler19get_aggregate_stats0s_00Bb_
FNDA:0,_RNCNCNvNtNtCs1yu0zy1SNdm_13self_sensored8handlers28user_characteristics_handler19get_aggregate_stats00B9_
FNDA:0,_RNCNCNvNtNtCs1yu0zy1SNdm_13self_sensored8handlers28user_characteristics_handler19get_aggregate_stats0s_0B9_
FNDA:0,_RNCNCNvNtNtCs1yu0zy1SNdm_13self_sensored8handlers28user_characteristics_handler21get_validation_ranges0s0_0B9_
FNDA:0,_RNCNCNvNtNtCs1yu0zy1SNdm_13self_sensored8handlers28user_characteristics_handler21get_validation_ranges0s1_0B9_
FNDA:0,_RNCNvNtNtCs1yu0zy1SNdm_13self_sensored8handlers28user_characteristics_handler18get_emergency_info0B7_
FNDA:0,_RNCNvNtNtCs1yu0zy1SNdm_13self_sensored8handlers28user_characteristics_handler19get_aggregate_stats0B7_
FNDA:0,_RNCNvNtNtCs1yu0zy1SNdm_13self_sensored8handlers28user_characteristics_handler20get_heart_rate_zones0B7_
FNDA:0,_RNCNvNtNtCs1yu0zy1SNdm_13self_sensored8handlers28user_characteristics_handler21get_validation_ranges0B7_
FNDA:0,_RNCNvNtNtCs1yu0zy1SNdm_13self_sensored8handlers28user_characteristics_handler22get_uv_recommendations0B7_
FNDA:0,_RNCNvNtNtCs1yu0zy1SNdm_13self_sensored8handlers28user_characteristics_handler24get_user_characteristics0B7_
FNDA:0,_RNCNvNtNtCs1yu0zy1SNdm_13self_sensored8handlers28user_characteristics_handler27create_user_characteristics0B7_
FNDA:0,_RNCNvNtNtCs1yu0zy1SNdm_13self_sensored8handlers28user_characteristics_handler27delete_user_characteristics0B7_
FNDA:0,_RNCNvNtNtCs1yu0zy1SNdm_13self_sensored8handlers28user_characteristics_handler27update_user_characteristics0B7_
FNDA:0,_RNCNvNtNtCs1yu0zy1SNdm_13self_sensored8handlers28user_characteristics_handler27upsert_user_characteristics0B7_
FNDA:0,_RNCNvNtNtCs1yu0zy1SNdm_13self_sensored8handlers28user_characteristics_handler27verify_user_characteristics0B7_
FNDA:0,_RNCNvNtNtCs1yu0zy1SNdm_13self_sensored8handlers28user_characteristics_handler28get_activity_personalization0B7_
FNDA:0,_RNvNtNtCs1yu0zy1SNdm_13self_sensored8handlers28user_characteristics_handler16configure_routes
FNDA:0,_RNvNtNtCs1yu0zy1SNdm_13self_sensored8handlers28user_characteristics_handler18get_emergency_info
FNDA:0,_RNvNtNtCs1yu0zy1SNdm_13self_sensored8handlers28user_characteristics_handler19get_aggregate_stats
FNDA:0,_RNvNtNtCs1yu0zy1SNdm_13self_sensored8handlers28user_characteristics_handler20get_heart_rate_zones
FNDA:0,_RNvNtNtCs1yu0zy1SNdm_13self_sensored8handlers28user_characteristics_handler21get_validation_ranges
FNDA:0,_RNvNtNtCs1yu0zy1SNdm_13self_sensored8handlers28user_characteristics_handler22get_uv_recommendations
FNDA:0,_RNvNtNtCs1yu0zy1SNdm_13self_sensored8handlers28user_characteristics_handler24get_user_characteristics
FNDA:0,_RNvNtNtCs1yu0zy1SNdm_13self_sensored8handlers28user_characteristics_handler27create_user_characteristics
FNDA:0,_RNvNtNtCs1yu0zy1SNdm_13self_sensored8handlers28user_characteristics_handler27delete_user_characteristics
FNDA:0,_RNvNtNtCs1yu0zy1SNdm_13self_sensored8handlers28user_characteristics_handler27update_user_characteristics
FNDA:0,_RNvNtNtCs1yu0zy1SNdm_13self_sensored8handlers28user_characteristics_handler27upsert_user_characteristics
FNDA:0,_RNvNtNtCs1yu0zy1SNdm_13self_sensored8handlers28user_characteristics_handler27verify_user_characteristics
FNDA:0,_RNvNtNtCs1yu0zy1SNdm_13self_sensored8handlers28user_characteristics_handler28get_activity_personalization
FNDA:60,_RNCNCNvNtNtNtCs1yu0zy1SNdm_13self_sensored8handlers28user_characteristics_handler5testss_21test_input_validation00Bb_
FNF:31
FNH:2
DA:291,0
DA:292,0
DA:293,0
DA:294,0
DA:295,0
DA:297,0
DA:300,0
DA:301,0
DA:302,0
DA:304,0
DA:305,0
DA:308,0
DA:311,0
DA:314,0
DA:316,0
DA:319,0
DA:320,0
DA:321,0
DA:323,0
DA:324,0
DA:327,0
DA:330,0
DA:331,0
DA:332,0
DA:333,0
DA:334,0
DA:337,0
DA:340,0
DA:341,0
DA:342,0
DA:343,0
DA:344,0
DA:345,0
DA:347,0
DA:351,0
DA:352,0
DA:355,0
DA:358,0
DA:359,0
DA:360,0
DA:361,0
DA:362,0
DA:363,0
DA:366,0
DA:368,0
DA:370,0
DA:373,0
DA:374,0
DA:375,0
DA:377,0
DA:378,0
DA:379,0
DA:380,0
DA:381,0
DA:384,0
DA:387,0
DA:388,0
DA:389,0
DA:390,0
DA:391,0
DA:395,0
DA:396,0
DA:397,0
DA:399,0
DA:400,0
DA:401,0
DA:402,0
DA:404,0
DA:405,0
DA:406,0
DA:407,0
DA:409,0
DA:412,0
DA:415,0
DA:417,0
DA:418,0
DA:421,0
DA:424,0
DA:425,0
DA:426,0
DA:427,0
DA:428,0
DA:431,0
DA:434,0
DA:435,0
DA:436,0
DA:437,0
DA:438,0
DA:439,0
DA:441,0
DA:445,0
DA:446,0
DA:449,0
DA:452,0
DA:453,0
DA:454,0
DA:455,0
DA:456,0
DA:457,0
DA:459,0
DA:460,0
DA:461,0
DA:463,0
DA:464,0
DA:465,0
DA:466,0
DA:468,0
DA:469,0
DA:470,0
DA:471,0
DA:473,0
DA:476,0
DA:479,0
DA:482,0
DA:484,0
DA:487,0
DA:488,0
DA:489,0
DA:491,0
DA:492,0
DA:495,0
DA:498,0
DA:499,0
DA:500,0
DA:501,0
DA:502,0
DA:505,0
DA:508,0
DA:509,0
DA:510,0
DA:511,0
DA:512,0
DA:513,0
DA:515,0
DA:519,0
DA:520,0
DA:523,0
DA:526,0
DA:527,0
DA:528,0
DA:529,0
DA:530,0
DA:531,0
DA:533,0
DA:534,0
DA:535,0
DA:537,0
DA:538,0
DA:539,0
DA:540,0
DA:542,0
DA:543,0
DA:544,0
DA:545,0
DA:547,0
DA:550,0
DA:553,0
DA:555,0
DA:556,0
DA:559,0
DA:562,0
DA:563,0
DA:564,0
DA:565,0
DA:566,0
DA:569,0
DA:572,0
DA:573,0
DA:574,0
DA:575,0
DA:576,0
DA:578,0
DA:581,0
DA:583,0
DA:585,0
DA:588,0
DA:589,0
DA:590,0
DA:591,0
DA:594,0
DA:596,0
DA:599,0
DA:600,0
DA:601,0
DA:603,0
DA:604,0
DA:607,0
DA:610,0
DA:611,0
DA:612,0
DA:613,0
DA:614,0
DA:617,0
DA:620,0
DA:621,0
DA:622,0
DA:623,0
DA:624,0
DA:626,0
DA:629,0
DA:630,0
DA:631,0
DA:634,0
DA:636,0
DA:639,0
DA:640,0
DA:641,0
DA:642,0
DA:644,0
DA:645,0
DA:648,0
DA:651,0
DA:652,0
DA:653,0
DA:654,0
DA:655,0
DA:658,0
DA:661,0
DA:662,0
DA:663,0
DA:664,0
DA:665,0
DA:666,0
DA:668,0
DA:671,0
DA:674,0
DA:675,0
DA:676,0
DA:678,0
DA:679,0
DA:682,0
DA:683,0
DA:686,0
DA:688,0
DA:689,0
DA:693,0
DA:696,0
DA:697,0
DA:698,0
DA:699,0
DA:700,0
DA:703,0
DA:706,0
DA:707,0
DA:708,0
DA:709,0
DA:710,0
DA:712,0
DA:715,0
DA:716,0
DA:717,0
DA:719,0
DA:720,0
DA:722,0
DA:725,0
DA:728,0
DA:730,0
DA:733,0
DA:734,0
DA:735,0
DA:737,0
DA:738,0
DA:741,0
DA:744,0
DA:745,0
DA:746,0
DA:747,0
DA:748,0
DA:751,0
DA:754,0
DA:755,0
DA:756,0
DA:757,0
DA:758,0
DA:760,0
DA:763,0
DA:764,0
DA:765,0
DA:767,0
DA:768,0
DA:770,0
DA:773,0
DA:776,0
DA:778,0
DA:781,0
DA:782,0
DA:783,0
DA:784,0
DA:786,0
DA:787,0
DA:790,0
DA:793,0
DA:794,0
DA:795,0
DA:796,0
DA:797,0
DA:800,0
DA:803,0
DA:804,0
DA:805,0
DA:806,0
DA:807,0
DA:808,0
DA:810,0
DA:811,0
DA:814,0
DA:815,0
DA:816,0
DA:818,0
DA:819,0
DA:821,0
DA:824,0
DA:827,0
DA:829,0
DA:832,0
DA:833,0
DA:834,0
DA:835,0
DA:837,0
DA:838,0
DA:841,0
DA:844,0
DA:845,0
DA:846,0
DA:847,0
DA:848,0
DA:851,0
DA:854,0
DA:855,0
DA:856,0
DA:857,0
DA:858,0
DA:860,0
DA:863,0
DA:864,0
DA:865,0
DA:867,0
DA:868,0
DA:870,0
DA:873,0
DA:876,0
DA:878,0
DA:881,0
DA:882,0
DA:883,0
DA:884,0
DA:886,0
DA:887,0
DA:890,0
DA:893,0
DA:894,0
DA:895,0
DA:896,0
DA:897,0
DA:900,0
DA:903,0
DA:904,0
DA:905,0
DA:906,0
DA:908,0
DA:909,0
DA:910,0
DA:911,0
DA:912,0
DA:913,0
DA:915,0
DA:917,0
DA:920,0
DA:921,0
DA:922,0
DA:923,0
DA:925,0
DA:927,0
DA:930,0
DA:931,0
DA:932,0
DA:934,0
DA:937,0
DA:939,0
DA:940,0
DA:943,0
DA:946,0
DA:947,0
DA:948,0
DA:949,0
DA:950,0
DA:953,0
DA:962,0
DA:963,0
DA:964,0
DA:965,0
DA:966,0
DA:967,0
DA:968,0
DA:969,0
DA:970,0
DA:971,0
DA:972,0
DA:973,0
DA:974,0
DA:975,0
DA:976,0
DA:977,0
DA:978,0
DA:979,0
DA:980,0
DA:981,0
DA:982,0
DA:983,0
DA:984,0
DA:986,0
DA:996,1
DA:997,1
DA:998,1
DA:999,1
DA:1000,1
DA:1001,1
DA:1002,1
DA:1003,1
DA:1004,1
DA:1005,1
DA:1006,1
DA:1007,1
DA:1008,1
DA:1009,1
DA:1019,60
BRF:0
BRH:0
LF:442
LH:15
end_of_record
SF:/mnt/datadrive_m2/self-sensored/src/middleware/admin.rs
FN:54,_RNCNvXININtNtCs1yu0zy1SNdm_13self_sensored10middleware5admins_0ppEINtB7_22AdminMiddlewareServicepEINtCs9CDcoq7ZrE4_13actix_service7ServiceNtNtCs1IdqjQepwc8_9actix_web7service14ServiceRequestE4call0Bb_
FN:28,_RNvXININtNtCs1yu0zy1SNdm_13self_sensored10middleware5admin0ppENtB5_15AdminMiddlewareINtNtCs9CDcoq7ZrE4_13actix_service9transform9TransformpNtNtCs1IdqjQepwc8_9actix_web7service14ServiceRequestE13new_transformB9_
FN:51,_RNvXININtNtCs1yu0zy1SNdm_13self_sensored10middleware5admins_0ppEINtB5_22AdminMiddlewareServicepEINtCs9CDcoq7ZrE4_13actix_service7ServiceNtNtCs1IdqjQepwc8_9actix_web7service14ServiceRequestE4callB9_
FNDA:0,_RNCNvXININtNtCs1yu0zy1SNdm_13self_sensored10middleware5admins_0ppEINtB7_22AdminMiddlewareServicepEINtCs9CDcoq7ZrE4_13actix_service7ServiceNtNtCs1IdqjQepwc8_9actix_web7service14ServiceRequestE4call0Bb_
FNDA:0,_RNvXININtNtCs1yu0zy1SNdm_13self_sensored10middleware5admin0ppENtB5_15AdminMiddlewareINtNtCs9CDcoq7ZrE4_13actix_service9transform9TransformpNtNtCs1IdqjQepwc8_9actix_web7service14ServiceRequestE13new_transformB9_
FNDA:0,_RNvXININtNtCs1yu0zy1SNdm_13self_sensored10middleware5admins_0ppEINtB5_22AdminMiddlewareServicepEINtCs9CDcoq7ZrE4_13actix_service7ServiceNtNtCs1IdqjQepwc8_9actix_web7service14ServiceRequestE4callB9_
FNF:3
FNH:0
DA:28,0
DA:29,0
DA:30,0
DA:31,0
DA:32,0
DA:51,0
DA:52,0
DA:54,0
DA:56,0
DA:58,0
DA:59,0
DA:61,0
DA:62,0
DA:66,0
DA:67,0
DA:68,0
DA:71,0
DA:73,0
DA:77,0
DA:78,0
DA:79,0
DA:83,0
DA:84,0
DA:85,0
DA:89,0
DA:91,0
DA:92,0
DA:93,0
DA:96,0
DA:97,0
DA:98,0
DA:101,0
DA:102,0
BRF:0
BRH:0
LF:34
LH:0
end_of_record
SF:/mnt/datadrive_m2/self-sensored/src/middleware/auth.rs
FN:57,_RNCNCNvXININtNtCs1yu0zy1SNdm_13self_sensored10middleware4auths_0ppEINtB9_21AuthMiddlewareServicepEINtCs9CDcoq7ZrE4_13actix_service7ServiceNtNtCs1IdqjQepwc8_9actix_web7service14ServiceRequestE4call00Bd_
FN:121,_RNCNCNvXININtNtCs1yu0zy1SNdm_13self_sensored10middleware4auths_0ppEINtB9_21AuthMiddlewareServicepEINtCs9CDcoq7ZrE4_13actix_service7ServiceNtNtCs1IdqjQepwc8_9actix_web7service14ServiceRequestE4call0s0_0Bd_
FN:71,_RNCNCNvXININtNtCs1yu0zy1SNdm_13self_sensored10middleware4auths_0ppEINtB9_21AuthMiddlewareServicepEINtCs9CDcoq7ZrE4_13actix_service7ServiceNtNtCs1IdqjQepwc8_9actix_web7service14ServiceRequestE4call0s_0Bd_
FN:193,_RNCNCNvXs0_NtNtCs1yu0zy1SNdm_13self_sensored10middleware4authNtNtNtBd_8services4auth11AuthContextNtNtCs1IdqjQepwc8_9actix_web7extract11FromRequest12from_request00Bd_
FN:54,_RNCNvXININtNtCs1yu0zy1SNdm_13self_sensored10middleware4auths_0ppEINtB7_21AuthMiddlewareServicepEINtCs9CDcoq7ZrE4_13actix_service7ServiceNtNtCs1IdqjQepwc8_9actix_web7service14ServiceRequestE4call0Bb_
FN:189,_RNCNvXs0_NtNtCs1yu0zy1SNdm_13self_sensored10middleware4authNtNtNtBb_8services4auth11AuthContextNtNtCs1IdqjQepwc8_9actix_web7extract11FromRequest12from_request0Bb_
FN:175,_RNvNtNtCs1yu0zy1SNdm_13self_sensored10middleware4auth20extract_auth_context
FN:28,_RNvXININtNtCs1yu0zy1SNdm_13self_sensored10middleware4auth0ppENtB5_14AuthMiddlewareINtNtCs9CDcoq7ZrE4_13actix_service9transform9TransformpNtNtCs1IdqjQepwc8_9actix_web7service14ServiceRequestE13new_transformB9_
FN:51,_RNvXININtNtCs1yu0zy1SNdm_13self_sensored10middleware4auths_0ppEINtB5_21AuthMiddlewareServicepEINtCs9CDcoq7ZrE4_13actix_service7ServiceNtNtCs1IdqjQepwc8_9actix_web7service14ServiceRequestE4callB9_
FN:187,_RNvXs0_NtNtCs1yu0zy1SNdm_13self_sensored10middleware4authNtNtNtB9_8services4auth11AuthContextNtNtCs1IdqjQepwc8_9actix_web7extract11FromRequest12from_request
FNDA:0,_RNCNCNvXININtNtCs1yu0zy1SNdm_13self_sensored10middleware4auths_0ppEINtB9_21AuthMiddlewareServicepEINtCs9CDcoq7ZrE4_13actix_service7ServiceNtNtCs1IdqjQepwc8_9actix_web7service14ServiceRequestE4call00Bd_
FNDA:0,_RNCNCNvXININtNtCs1yu0zy1SNdm_13self_sensored10middleware4auths_0ppEINtB9_21AuthMiddlewareServicepEINtCs9CDcoq7ZrE4_13actix_service7ServiceNtNtCs1IdqjQepwc8_9actix_web7service14ServiceRequestE4call0s0_0Bd_
FNDA:0,_RNCNCNvXININtNtCs1yu0zy1SNdm_13self_sensored10middleware4auths_0ppEINtB9_21AuthMiddlewareServicepEINtCs9CDcoq7ZrE4_13actix_service7ServiceNtNtCs1IdqjQepwc8_9actix_web7service14ServiceRequestE4call0s_0Bd_
FNDA:0,_RNCNCNvXs0_NtNtCs1yu0zy1SNdm_13self_sensored10middleware4authNtNtNtBd_8services4auth11AuthContextNtNtCs1IdqjQepwc8_9actix_web7extract11FromRequest12from_request00Bd_
FNDA:0,_RNCNvXININtNtCs1yu0zy1SNdm_13self_sensored10middleware4auths_0ppEINtB7_21AuthMiddlewareServicepEINtCs9CDcoq7ZrE4_13actix_service7ServiceNtNtCs1IdqjQepwc8_9actix_web7service14ServiceRequestE4call0Bb_
FNDA:0,_RNCNvXs0_NtNtCs1yu0zy1SNdm_13self_sensored10middleware4authNtNtNtBb_8services4auth11AuthContextNtNtCs1IdqjQepwc8_9actix_web7extract11FromRequest12from_request0Bb_
FNDA:0,_RNvNtNtCs1yu0zy1SNdm_13self_sensored10middleware4auth20extract_auth_context
FNDA:0,_RNvXININtNtCs1yu0zy1SNdm_13self_sensored10middleware4auth0ppENtB5_14AuthMiddlewareINtNtCs9CDcoq7ZrE4_13actix_service9transform9TransformpNtNtCs1IdqjQepwc8_9actix_web7service14ServiceRequestE13new_transformB9_
FNDA:0,_RNvXININtNtCs1yu0zy1SNdm_13self_sensored10middleware4auths_0ppEINtB5_21AuthMiddlewareServicepEINtCs9CDcoq7ZrE4_13actix_service7ServiceNtNtCs1IdqjQepwc8_9actix_web7service14ServiceRequestE4callB9_
FNDA:0,_RNvXs0_NtNtCs1yu0zy1SNdm_13self_sensored10middleware4authNtNtNtB9_8services4auth11AuthContextNtNtCs1IdqjQepwc8_9actix_web7extract11FromRequest12from_request
FNF:10
FNH:0
DA:28,0
DA:29,0
DA:30,0
DA:31,0
DA:32,0
DA:51,0
DA:52,0
DA:54,0
DA:56,0
DA:57,0
DA:58,0
DA:61,0
DA:62,0
DA:63,0
DA:64,0
DA:65,0
DA:67,0
DA:68,0
DA:69,0
DA:70,0
DA:71,0
DA:74,0
DA:75,0
DA:76,0
DA:77,0
DA:80,0
DA:84,0
DA:86,0
DA:88,0
DA:89,0
DA:90,0
DA:91,0
DA:92,0
DA:93,0
DA:96,0
DA:99,0
DA:102,0
DA:103,0
DA:105,0
DA:106,0
DA:107,0
DA:109,0
DA:110,0
DA:111,0
DA:117,0
DA:118,0
DA:119,0
DA:120,0
DA:121,0
DA:123,0
DA:124,0
DA:125,0
DA:128,0
DA:130,0
DA:131,0
DA:132,0
DA:133,0
DA:134,0
DA:135,0
DA:136,0
DA:137,0
DA:141,0
DA:142,0
DA:143,0
DA:144,0
DA:145,0
DA:146,0
DA:149,0
DA:150,0
DA:155,0
DA:156,0
DA:161,0
DA:165,0
DA:166,0
DA:167,0
DA:168,0
DA:169,0
DA:170,0
DA:171,0
DA:175,0
DA:176,0
DA:177,0
DA:187,0
DA:188,0
DA:189,0
DA:190,0
DA:191,0
DA:192,0
DA:193,0
DA:194,0
DA:195,0
BRF:0
BRH:0
LF:97
LH:0
end_of_record
SF:/mnt/datadrive_m2/self-sensored/src/middleware/compression.rs
FN:76,_RINvNtNtCs1yu0zy1SNdm_13self_sensored10middleware11compression19add_caching_headerspEB6_
FN:122,_RINvNtNtCs1yu0zy1SNdm_13self_sensored10middleware11compression23add_performance_headerspEB6_
FN:60,_RNCNvXININtNtCs1yu0zy1SNdm_13self_sensored10middleware11compressions_0ppEINtB7_31CompressionAndCachingMiddlewarepEINtCs9CDcoq7ZrE4_13actix_service7ServiceNtNtCs1IdqjQepwc8_9actix_web7service14ServiceRequestE4call0Bb_
FN:217,_RNvNtNtCs1yu0zy1SNdm_13self_sensored10middleware11compression20generate_simple_etag
FN:32,_RNvXININtNtCs1yu0zy1SNdm_13self_sensored10middleware11compression0ppENtB5_21CompressionAndCachingINtNtCs9CDcoq7ZrE4_13actix_service9transform9TransformpNtNtCs1IdqjQepwc8_9actix_web7service14ServiceRequestE13new_transformB9_
FN:52,_RNvXININtNtCs1yu0zy1SNdm_13self_sensored10middleware11compressions_0ppEINtB5_31CompressionAndCachingMiddlewarepEINtCs9CDcoq7ZrE4_13actix_service7ServiceNtNtCs1IdqjQepwc8_9actix_web7service14ServiceRequestE10poll_readyB9_
FN:56,_RNvXININtNtCs1yu0zy1SNdm_13self_sensored10middleware11compressions_0ppEINtB5_31CompressionAndCachingMiddlewarepEINtCs9CDcoq7ZrE4_13actix_service7ServiceNtNtCs1IdqjQepwc8_9actix_web7service14ServiceRequestE4callB9_
FNDA:0,_RINvNtNtCs1yu0zy1SNdm_13self_sensored10middleware11compression19add_caching_headerspEB6_
FNDA:0,_RINvNtNtCs1yu0zy1SNdm_13self_sensored10middleware11compression23add_performance_headerspEB6_
FNDA:0,_RNCNvXININtNtCs1yu0zy1SNdm_13self_sensored10middleware11compressions_0ppEINtB7_31CompressionAndCachingMiddlewarepEINtCs9CDcoq7ZrE4_13actix_service7ServiceNtNtCs1IdqjQepwc8_9actix_web7service14ServiceRequestE4call0Bb_
FNDA:0,_RNvNtNtCs1yu0zy1SNdm_13self_sensored10middleware11compression20generate_simple_etag
FNDA:0,_RNvXININtNtCs1yu0zy1SNdm_13self_sensored10middleware11compression0ppENtB5_21CompressionAndCachingINtNtCs9CDcoq7ZrE4_13actix_service9transform9TransformpNtNtCs1IdqjQepwc8_9actix_web7service14ServiceRequestE13new_transformB9_
FNDA:0,_RNvXININtNtCs1yu0zy1SNdm_13self_sensored10middleware11compressions_0ppEINtB5_31CompressionAndCachingMiddlewarepEINtCs9CDcoq7ZrE4_13actix_service7ServiceNtNtCs1IdqjQepwc8_9actix_web7service14ServiceRequestE10poll_readyB9_
FNDA:0,_RNvXININtNtCs1yu0zy1SNdm_13self_sensored10middleware11compressions_0ppEINtB5_31CompressionAndCachingMiddlewarepEINtCs9CDcoq7ZrE4_13actix_service7ServiceNtNtCs1IdqjQepwc8_9actix_web7service14ServiceRequestE4callB9_
FNF:7
FNH:0
DA:32,0
DA:33,0
DA:34,0
DA:52,0
DA:53,0
DA:54,0
DA:56,0
DA:57,0
DA:58,0
DA:60,0
DA:61,0
DA:64,0
DA:67,0
DA:69,0
DA:70,0
DA:71,0
DA:72,0
DA:76,0
DA:77,0
DA:79,0
DA:80,0
DA:81,0
DA:82,0
DA:83,0
DA:84,0
DA:85,0
DA:86,0
DA:87,0
DA:88,0
DA:89,0
DA:90,0
DA:91,0
DA:92,0
DA:93,0
DA:94,0
DA:95,0
DA:96,0
DA:97,0
DA:98,0
DA:99,0
DA:100,0
DA:101,0
DA:102,0
DA:103,0
DA:104,0
DA:105,0
DA:106,0
DA:107,0
DA:108,0
DA:109,0
DA:110,0
DA:113,0
DA:114,0
DA:115,0
DA:116,0
DA:117,0
DA:118,0
DA:119,0
DA:122,0
DA:123,0
DA:126,0
DA:127,0
DA:128,0
DA:133,0
DA:134,0
DA:135,0
DA:144,0
DA:145,0
DA:146,0
DA:150,0
DA:151,0
DA:152,0
DA:156,0
DA:157,0
DA:158,0
DA:162,0
DA:163,0
DA:164,0
DA:167,0
DA:168,0
DA:169,0
DA:175,0
DA:176,0
DA:177,0
DA:192,0
DA:193,0
DA:194,0
DA:198,0
DA:199,0
DA:200,0
DA:204,0
DA:205,0
DA:206,0
DA:210,0
DA:211,0
DA:212,0
DA:214,0
DA:217,0
DA:218,0
DA:219,0
DA:220,0
DA:221,0
DA:224,0
DA:225,0
DA:226,0
BRF:0
BRH:0
LF:106
LH:0
end_of_record
SF:/mnt/datadrive_m2/self-sensored/src/middleware/logging.rs
FN:307,_RNvMs0_NtNtCs1yu0zy1SNdm_13self_sensored10middleware7loggingNtB5_16PerformanceTimer3new
FN:315,_RNvMs0_NtNtCs1yu0zy1SNdm_13self_sensored10middleware7loggingNtB5_16PerformanceTimer6finish
FN:180,_RNvNtNtCs1yu0zy1SNdm_13self_sensored10middleware7logging19mask_sensitive_data
FN:210,_RNvNtNtCs1yu0zy1SNdm_13self_sensored10middleware7logging21mask_sensitive_string
FN:87,_RNCNCNvXININtNtCs1yu0zy1SNdm_13self_sensored10middleware7loggings_0ppEINtB9_26StructuredLoggerMiddlewarepEINtCs9CDcoq7ZrE4_13actix_service7ServiceNtNtCs1IdqjQepwc8_9actix_web7service14ServiceRequestE4call00Bd_
FN:104,_RNCNCNvXININtNtCs1yu0zy1SNdm_13self_sensored10middleware7loggings_0ppEINtB9_26StructuredLoggerMiddlewarepEINtCs9CDcoq7ZrE4_13actix_service7ServiceNtNtCs1IdqjQepwc8_9actix_web7service14ServiceRequestE4call0s0_0Bd_
FN:110,_RNCNCNvXININtNtCs1yu0zy1SNdm_13self_sensored10middleware7loggings_0ppEINtB9_26StructuredLoggerMiddlewarepEINtCs9CDcoq7ZrE4_13actix_service7ServiceNtNtCs1IdqjQepwc8_9actix_web7service14ServiceRequestE4call0s1_0Bd_
FN:111,_RNCNCNvXININtNtCs1yu0zy1SNdm_13self_sensored10middleware7loggings_0ppEINtB9_26StructuredLoggerMiddlewarepEINtCs9CDcoq7ZrE4_13actix_service7ServiceNtNtCs1IdqjQepwc8_9actix_web7service14ServiceRequestE4call0s2_0Bd_
FN:104,_RNCNCNvXININtNtCs1yu0zy1SNdm_13self_sensored10middleware7loggings_0ppEINtB9_26StructuredLoggerMiddlewarepEINtCs9CDcoq7ZrE4_13actix_service7ServiceNtNtCs1IdqjQepwc8_9actix_web7service14ServiceRequestE4call0s3_0Bd_
FN:110,_RNCNCNvXININtNtCs1yu0zy1SNdm_13self_sensored10middleware7loggings_0ppEINtB9_26StructuredLoggerMiddlewarepEINtCs9CDcoq7ZrE4_13actix_service7ServiceNtNtCs1IdqjQepwc8_9actix_web7service14ServiceRequestE4call0s4_0Bd_
FN:111,_RNCNCNvXININtNtCs1yu0zy1SNdm_13self_sensored10middleware7loggings_0ppEINtB9_26StructuredLoggerMiddlewarepEINtCs9CDcoq7ZrE4_13actix_service7ServiceNtNtCs1IdqjQepwc8_9actix_web7service14ServiceRequestE4call0s5_0Bd_
FN:88,_RNCNCNvXININtNtCs1yu0zy1SNdm_13self_sensored10middleware7loggings_0ppEINtB9_26StructuredLoggerMiddlewarepEINtCs9CDcoq7ZrE4_13actix_service7ServiceNtNtCs1IdqjQepwc8_9actix_web7service14ServiceRequestE4call0s_0Bd_
FN:159,_RNCNvNtNtCs1yu0zy1SNdm_13self_sensored10middleware7logging17extract_client_ip0B7_
FN:166,_RNCNvNtNtCs1yu0zy1SNdm_13self_sensored10middleware7logging17extract_client_ips0_0B7_
FN:160,_RNCNvNtNtCs1yu0zy1SNdm_13self_sensored10middleware7logging17extract_client_ips_0B7_
FN:80,_RNCNvXININtNtCs1yu0zy1SNdm_13self_sensored10middleware7loggings_0ppEINtB7_26StructuredLoggerMiddlewarepEINtCs9CDcoq7ZrE4_13actix_service7ServiceNtNtCs1IdqjQepwc8_9actix_web7service14ServiceRequestE4call0Bb_
FN:243,_RNvNtNtCs1yu0zy1SNdm_13self_sensored10middleware7logging14get_request_id
FN:154,_RNvNtNtCs1yu0zy1SNdm_13self_sensored10middleware7logging17extract_client_ip
FN:286,_RNvNtNtCs1yu0zy1SNdm_13self_sensored10middleware7logging18format_error_chain
FN:259,_RNvNtNtCs1yu0zy1SNdm_13self_sensored10middleware7logging22log_error_with_context
FN:53,_RNvXININtNtCs1yu0zy1SNdm_13self_sensored10middleware7logging0ppENtB5_16StructuredLoggerINtNtCs9CDcoq7ZrE4_13actix_service9transform9TransformpNtNtCs1IdqjQepwc8_9actix_web7service14ServiceRequestE13new_transformB9_
FN:77,_RNvXININtNtCs1yu0zy1SNdm_13self_sensored10middleware7loggings_0ppEINtB5_26StructuredLoggerMiddlewarepEINtCs9CDcoq7ZrE4_13actix_service7ServiceNtNtCs1IdqjQepwc8_9actix_web7service14ServiceRequestE4callB9_
FN:392,_RNvNtNtNtCs1yu0zy1SNdm_13self_sensored10middleware7logging5testss_22test_performance_timer
FN:348,_RNvNtNtNtCs1yu0zy1SNdm_13self_sensored10middleware7logging5testss_24test_mask_sensitive_json
FN:374,_RNvNtNtNtCs1yu0zy1SNdm_13self_sensored10middleware7logging5testss_26test_mask_sensitive_string
FN:189,_RNCNvNtNtCs1yu0zy1SNdm_13self_sensored10middleware7logging19mask_sensitive_data0B7_
FNDA:1,_RNvMs0_NtNtCs1yu0zy1SNdm_13self_sensored10middleware7loggingNtB5_16PerformanceTimer3new
FNDA:1,_RNvMs0_NtNtCs1yu0zy1SNdm_13self_sensored10middleware7loggingNtB5_16PerformanceTimer6finish
FNDA:7,_RNvNtNtCs1yu0zy1SNdm_13self_sensored10middleware7logging19mask_sensitive_data
FNDA:3,_RNvNtNtCs1yu0zy1SNdm_13self_sensored10middleware7logging21mask_sensitive_string
FNDA:0,_RNCNCNvXININtNtCs1yu0zy1SNdm_13self_sensored10middleware7loggings_0ppEINtB9_26StructuredLoggerMiddlewarepEINtCs9CDcoq7ZrE4_13actix_service7ServiceNtNtCs1IdqjQepwc8_9actix_web7service14ServiceRequestE4call00Bd_
FNDA:0,_RNCNCNvXININtNtCs1yu0zy1SNdm_13self_sensored10middleware7loggings_0ppEINtB9_26StructuredLoggerMiddlewarepEINtCs9CDcoq7ZrE4_13actix_service7ServiceNtNtCs1IdqjQepwc8_9actix_web7service14ServiceRequestE4call0s0_0Bd_
FNDA:0,_RNCNCNvXININtNtCs1yu0zy1SNdm_13self_sensored10middleware7loggings_0ppEINtB9_26StructuredLoggerMiddlewarepEINtCs9CDcoq7ZrE4_13actix_service7ServiceNtNtCs1IdqjQepwc8_9actix_web7service14ServiceRequestE4call0s1_0Bd_
FNDA:0,_RNCNCNvXININtNtCs1yu0zy1SNdm_13self_sensored10middleware7loggings_0ppEINtB9_26StructuredLoggerMiddlewarepEINtCs9CDcoq7ZrE4_13actix_service7ServiceNtNtCs1IdqjQepwc8_9actix_web7service14ServiceRequestE4call0s2_0Bd_
FNDA:0,_RNCNCNvXININtNtCs1yu0zy1SNdm_13self_sensored10middleware7loggings_0ppEINtB9_26StructuredLoggerMiddlewarepEINtCs9CDcoq7ZrE4_13actix_service7ServiceNtNtCs1IdqjQepwc8_9actix_web7service14ServiceRequestE4call0s3_0Bd_
FNDA:0,_RNCNCNvXININtNtCs1yu0zy1SNdm_13self_sensored10middleware7loggings_0ppEINtB9_26StructuredLoggerMiddlewarepEINtCs9CDcoq7ZrE4_13actix_service7ServiceNtNtCs1IdqjQepwc8_9actix_web7service14ServiceRequestE4call0s4_0Bd_
FNDA:0,_RNCNCNvXININtNtCs1yu0zy1SNdm_13self_sensored10middleware7loggings_0ppEINtB9_26StructuredLoggerMiddlewarepEINtCs9CDcoq7ZrE4_13actix_service7ServiceNtNtCs1IdqjQepwc8_9actix_web7service14ServiceRequestE4call0s5_0Bd_
FNDA:0,_RNCNCNvXININtNtCs1yu0zy1SNdm_13self_sensored10middleware7loggings_0ppEINtB9_26StructuredLoggerMiddlewarepEINtCs9CDcoq7ZrE4_13actix_service7ServiceNtNtCs1IdqjQepwc8_9actix_web7service14ServiceRequestE4call0s_0Bd_
FNDA:0,_RNCNvNtNtCs1yu0zy1SNdm_13self_sensored10middleware7logging17extract_client_ip0B7_
FNDA:0,_RNCNvNtNtCs1yu0zy1SNdm_13self_sensored10middleware7logging17extract_client_ips0_0B7_
FNDA:0,_RNCNvNtNtCs1yu0zy1SNdm_13self_sensored10middleware7logging17extract_client_ips_0B7_
FNDA:0,_RNCNvXININtNtCs1yu0zy1SNdm_13self_sensored10middleware7loggings_0ppEINtB7_26StructuredLoggerMiddlewarepEINtCs9CDcoq7ZrE4_13actix_service7ServiceNtNtCs1IdqjQepwc8_9actix_web7service14ServiceRequestE4call0Bb_
FNDA:0,_RNvNtNtCs1yu0zy1SNdm_13self_sensored10middleware7logging14get_request_id
FNDA:0,_RNvNtNtCs1yu0zy1SNdm_13self_sensored10middleware7logging17extract_client_ip
FNDA:0,_RNvNtNtCs1yu0zy1SNdm_13self_sensored10middleware7logging18format_error_chain
FNDA:0,_RNvNtNtCs1yu0zy1SNdm_13self_sensored10middleware7logging22log_error_with_context
FNDA:0,_RNvXININtNtCs1yu0zy1SNdm_13self_sensored10middleware7logging0ppENtB5_16StructuredLoggerINtNtCs9CDcoq7ZrE4_13actix_service9transform9TransformpNtNtCs1IdqjQepwc8_9actix_web7service14ServiceRequestE13new_transformB9_
FNDA:0,_RNvXININtNtCs1yu0zy1SNdm_13self_sensored10middleware7loggings_0ppEINtB5_26StructuredLoggerMiddlewarepEINtCs9CDcoq7ZrE4_13actix_service7ServiceNtNtCs1IdqjQepwc8_9actix_web7service14ServiceRequestE4callB9_
FNDA:1,_RNvNtNtNtCs1yu0zy1SNdm_13self_sensored10middleware7logging5testss_22test_performance_timer
FNDA:1,_RNvNtNtNtCs1yu0zy1SNdm_13self_sensored10middleware7logging5testss_24test_mask_sensitive_json
FNDA:1,_RNvNtNtNtCs1yu0zy1SNdm_13self_sensored10middleware7logging5testss_26test_mask_sensitive_string
FNDA:76,_RNCNvNtNtCs1yu0zy1SNdm_13self_sensored10middleware7logging19mask_sensitive_data0B7_
FNF:23
FNH:8
DA:53,0
DA:54,0
DA:55,0
DA:56,0
DA:57,0
DA:77,0
DA:78,0
DA:80,0
DA:81,0
DA:84,0
DA:85,0
DA:86,0
DA:87,0
DA:88,0
DA:89,0
DA:92,0
DA:95,0
DA:98,0
DA:99,0
DA:100,0
DA:101,0
DA:102,0
DA:103,0
DA:104,0
DA:105,0
DA:106,0
DA:107,0
DA:108,0
DA:109,0
DA:110,0
DA:111,0
DA:112,0
DA:113,0
DA:114,0
DA:115,0
DA:116,0
DA:120,0
DA:122,0
DA:124,0
DA:127,0
DA:129,0
DA:130,0
DA:131,0
DA:133,0
DA:138,0
DA:139,0
DA:148,0
DA:149,0
DA:150,0
DA:154,0
DA:156,0
DA:157,0
DA:158,0
DA:159,0
DA:160,0
DA:162,0
DA:163,0
DA:166,0
DA:167,0
DA:168,0
DA:171,0
DA:172,0
DA:173,0
DA:174,0
DA:176,0
DA:177,0
DA:180,7
DA:181,7
DA:182,3
DA:183,9
DA:184,9
DA:187,9
DA:188,9
DA:189,76
DA:190,4
DA:191,4
DA:192,5
DA:193,5
DA:194,5
DA:195,5
DA:198,1
DA:199,1
DA:200,1
DA:201,1
DA:203,3
DA:206,7
DA:207,7
DA:210,3
DA:211,3
DA:214,20
DA:215,19
DA:217,4
DA:218,1
DA:219,1
DA:220,1
DA:221,1
DA:222,1
DA:223,1
DA:226,0
DA:227,0
DA:228,0
DA:230,3
DA:233,3
DA:234,1
DA:235,2
DA:236,15
DA:239,1
DA:240,3
DA:243,0
DA:244,0
DA:245,0
DA:259,0
DA:260,0
DA:261,0
DA:262,0
DA:263,0
DA:264,0
DA:266,0
DA:267,0
DA:268,0
DA:270,0
DA:271,0
DA:274,0
DA:276,0
DA:280,0
DA:281,0
DA:283,0
DA:286,0
DA:287,0
DA:288,0
DA:290,0
DA:291,0
DA:292,0
DA:293,0
DA:295,0
DA:296,0
DA:307,1
DA:308,1
DA:309,1
DA:310,1
DA:311,1
DA:312,1
DA:313,1
DA:315,1
DA:316,1
DA:318,1
DA:319,1
DA:320,1
DA:321,1
DA:324,1
DA:325,0
DA:326,1
DA:328,1
DA:332,0
DA:333,0
DA:338,1
DA:339,1
DA:348,1
DA:349,1
DA:350,1
DA:351,1
DA:352,1
DA:353,1
DA:354,1
DA:355,1
DA:357,1
DA:358,1
DA:362,1
DA:364,1
DA:365,1
DA:366,1
DA:367,1
DA:368,1
DA:369,1
DA:370,1
DA:371,1
DA:374,1
DA:375,1
DA:376,1
DA:380,1
DA:381,1
DA:385,1
DA:386,1
DA:389,1
DA:392,1
DA:393,1
DA:394,1
DA:395,1
DA:396,1
DA:397,1
BRF:0
BRH:0
LF:200
LH:91
end_of_record
SF:/mnt/datadrive_m2/self-sensored/src/middleware/metrics.rs
FN:717,_RNvMs1_NtNtCs1yu0zy1SNdm_13self_sensored10middleware7metricsNtB5_7Metrics12record_error
FN:769,_RNvMs1_NtNtCs1yu0zy1SNdm_13self_sensored10middleware7metricsNtB5_7Metrics19record_request_size
FN:791,_RNvMs1_NtNtCs1yu0zy1SNdm_13self_sensored10middleware7metricsNtB5_7Metrics20record_large_request
FN:638,_RNvMs1_NtNtCs1yu0zy1SNdm_13self_sensored10middleware7metricsNtB5_7Metrics21record_ingest_request
FN:800,_RNvMs1_NtNtCs1yu0zy1SNdm_13self_sensored10middleware7metricsNtB5_7Metrics21record_security_event
FN:810,_RNvMs1_NtNtCs1yu0zy1SNdm_13self_sensored10middleware7metricsNtB5_7Metrics23record_validation_error
FN:725,_RNvMs1_NtNtCs1yu0zy1SNdm_13self_sensored10middleware7metricsNtB5_7Metrics23update_active_users_24h
FN:644,_RNvMs1_NtNtCs1yu0zy1SNdm_13self_sensored10middleware7metricsNtB5_7Metrics24record_metrics_processed
FN:826,_RNvMs1_NtNtCs1yu0zy1SNdm_13self_sensored10middleware7metricsNtB5_7Metrics28record_batch_parameter_usage
FN:838,_RNvMs1_NtNtCs1yu0zy1SNdm_13self_sensored10middleware7metricsNtB5_7Metrics28record_rate_limit_exhaustion
FN:818,_RNvMs1_NtNtCs1yu0zy1SNdm_13self_sensored10middleware7metricsNtB5_7Metrics28record_validation_error_rate
FN:850,_RNvMs1_NtNtCs1yu0zy1SNdm_13self_sensored10middleware7metricsNtB5_7Metrics29update_rate_limit_usage_ratio
FN:777,_RNvMs1_NtNtCs1yu0zy1SNdm_13self_sensored10middleware7metricsNtB5_7Metrics34record_processing_duration_by_size
FN:593,_RNvNtNtCs1yu0zy1SNdm_13self_sensored10middleware7metrics18normalize_endpoint
FN:1231,_RNvNtNtCs1yu0zy1SNdm_13self_sensored10middleware7metrics20get_metrics_registry
FN:579,_RNvNtNtCs1yu0zy1SNdm_13self_sensored10middleware7metrics21classify_payload_size
FN:1211,_RNCNvNtNtCs1yu0zy1SNdm_13self_sensored10middleware7metrics15metrics_handler0B7_
FN:451,_RNCNvXININtNtCs1yu0zy1SNdm_13self_sensored10middleware7metricss_0ppEINtB7_24MetricsMiddlewareServicepEINtCs9CDcoq7ZrE4_13actix_service7ServiceNtNtCs1IdqjQepwc8_9actix_web7service14ServiceRequestE4call0Bb_
FN:459,_RNCNvXININtNtCs1yu0zy1SNdm_13self_sensored10middleware7metricss_0ppEINtB7_24MetricsMiddlewareServicepEINtCs9CDcoq7ZrE4_13actix_service7ServiceNtNtCs1IdqjQepwc8_9actix_web7service14ServiceRequestE4calls0_0Bb_
FN:452,_RNCNvXININtNtCs1yu0zy1SNdm_13self_sensored10middleware7metricss_0ppEINtB7_24MetricsMiddlewareServicepEINtCs9CDcoq7ZrE4_13actix_service7ServiceNtNtCs1IdqjQepwc8_9actix_web7service14ServiceRequestE4calls_0Bb_
FN:630,_RNvMs0_NtNtCs1yu0zy1SNdm_13self_sensored10middleware7metricsNtB5_7Metrics3new
FN:731,_RNvMs1_NtNtCs1yu0zy1SNdm_13self_sensored10middleware7metricsNtB5_7Metrics18record_data_volume
FN:755,_RNvMs1_NtNtCs1yu0zy1SNdm_13self_sensored10middleware7metricsNtB5_7Metrics19record_auth_attempt
FN:695,_RNvMs1_NtNtCs1yu0zy1SNdm_13self_sensored10middleware7metricsNtB5_7Metrics20record_query_request
FN:1107,_RNvMs1_NtNtCs1yu0zy1SNdm_13self_sensored10middleware7metricsNtB5_7Metrics22nutrition_errors_total
FN:652,_RNvMs1_NtNtCs1yu0zy1SNdm_13self_sensored10middleware7metricsNtB5_7Metrics22record_ingest_duration
FN:926,_RNvMs1_NtNtCs1yu0zy1SNdm_13self_sensored10middleware7metricsNtB5_7Metrics22record_ios_metric_type
FN:1095,_RNvMs1_NtNtCs1yu0zy1SNdm_13self_sensored10middleware7metricsNtB5_7Metrics22record_nutrition_error
FN:1102,_RNvMs1_NtNtCs1yu0zy1SNdm_13self_sensored10middleware7metricsNtB5_7Metrics23nutrition_ingests_total
FN:860,_RNvMs1_NtNtCs1yu0zy1SNdm_13self_sensored10middleware7metricsNtB5_7Metrics23record_dual_write_start
FN:1087,_RNvMs1_NtNtCs1yu0zy1SNdm_13self_sensored10middleware7metricsNtB5_7Metrics23record_nutrition_ingest
FN:983,_RNvMs1_NtNtCs1yu0zy1SNdm_13self_sensored10middleware7metricsNtB5_7Metrics24record_ios_fallback_case
FN:884,_RNvMs1_NtNtCs1yu0zy1SNdm_13self_sensored10middleware7metricsNtB5_7Metrics25record_dual_write_failure
FN:868,_RNvMs1_NtNtCs1yu0zy1SNdm_13self_sensored10middleware7metricsNtB5_7Metrics25record_dual_write_success
FN:763,_RNvMs1_NtNtCs1yu0zy1SNdm_13self_sensored10middleware7metricsNtB5_7Metrics25record_duplicates_removed
FN:1000,_RNvMs1_NtNtCs1yu0zy1SNdm_13self_sensored10middleware7metricsNtB5_7Metrics25update_ios_coverage_ratio
FN:908,_RNvMs1_NtNtCs1yu0zy1SNdm_13self_sensored10middleware7metricsNtB5_7Metrics26record_dual_write_rollback
FN:687,_RNvMs1_NtNtCs1yu0zy1SNdm_13self_sensored10middleware7metricsNtB5_7Metrics26record_ingest_errors_total
FN:1014,_RNvMs1_NtNtCs1yu0zy1SNdm_13self_sensored10middleware7metricsNtB5_7Metrics27record_ios_metric_data_loss
FN:747,_RNvMs1_NtNtCs1yu0zy1SNdm_13self_sensored10middleware7metricsNtB5_7Metrics27record_rate_limited_request
FN:739,_RNvMs1_NtNtCs1yu0zy1SNdm_13self_sensored10middleware7metricsNtB5_7Metrics28record_health_metrics_stored
FN:702,_RNvMs1_NtNtCs1yu0zy1SNdm_13self_sensored10middleware7metricsNtB5_7Metrics28update_db_connection_metrics
FN:679,_RNvMs1_NtNtCs1yu0zy1SNdm_13self_sensored10middleware7metricsNtB5_7Metrics29record_ingest_processed_total
FN:709,_RNvMs1_NtNtCs1yu0zy1SNdm_13self_sensored10middleware7metricsNtB5_7Metrics30record_db_connection_wait_time
FN:949,_RNvMs1_NtNtCs1yu0zy1SNdm_13self_sensored10middleware7metricsNtB5_7Metrics30record_ios_unknown_metric_type
FN:660,_RNvMs1_NtNtCs1yu0zy1SNdm_13self_sensored10middleware7metricsNtB5_7Metrics32record_batch_processing_duration
FN:1149,_RNvMs1_NtNtCs1yu0zy1SNdm_13self_sensored10middleware7metricsNtB5_7Metrics34record_health_metric_fallback_case
FN:937,_RNvMs1_NtNtCs1yu0zy1SNdm_13self_sensored10middleware7metricsNtB5_7Metrics34update_ios_conversion_success_rate
FN:1047,_RNvMs1_NtNtCs1yu0zy1SNdm_13self_sensored10middleware7metricsNtB5_7Metrics35calculate_ios_metric_coverage_stats
FN:900,_RNvMs1_NtNtCs1yu0zy1SNdm_13self_sensored10middleware7metricsNtB5_7Metrics35record_dual_write_consistency_error
FN:1036,_RNvMs1_NtNtCs1yu0zy1SNdm_13self_sensored10middleware7metricsNtB5_7Metrics37record_ios_healthkit_identifier_usage
FN:1117,_RNvMs1_NtNtCs1yu0zy1SNdm_13self_sensored10middleware7metricsNtB5_7Metrics40record_unsupported_health_metric_variant
FN:1168,_RNvMs1_NtNtCs1yu0zy1SNdm_13self_sensored10middleware7metricsNtB5_7Metrics42record_batch_processing_completeness_check
FN:1211,_RNvNtNtCs1yu0zy1SNdm_13self_sensored10middleware7metrics15metrics_handler
FN:421,_RNvXININtNtCs1yu0zy1SNdm_13self_sensored10middleware7metrics0ppENtB5_17MetricsMiddlewareINtNtCs9CDcoq7ZrE4_13actix_service9transform9TransformpNtNtCs1IdqjQepwc8_9actix_web7service14ServiceRequestE13new_transformB9_
FN:442,_RNvXININtNtCs1yu0zy1SNdm_13self_sensored10middleware7metricss_0ppEINtB5_24MetricsMiddlewareServicepEINtCs9CDcoq7ZrE4_13actix_service7ServiceNtNtCs1IdqjQepwc8_9actix_web7service14ServiceRequestE4callB9_
FN:122,_RNCNvNtNtCs1yu0zy1SNdm_13self_sensored10middleware7metrics12ERRORS_TOTAL0B7_
FN:133,_RNCNvNtNtCs1yu0zy1SNdm_13self_sensored10middleware7metrics16ACTIVE_USERS_24H0B7_
FN:142,_RNCNvNtNtCs1yu0zy1SNdm_13self_sensored10middleware7metrics17DATA_VOLUME_BYTES0B7_
FN:195,_RNCNvNtNtCs1yu0zy1SNdm_13self_sensored10middleware7metrics18REQUEST_SIZE_BYTES0B7_
FN:174,_RNCNvNtNtCs1yu0zy1SNdm_13self_sensored10middleware7metrics19AUTH_ATTEMPTS_TOTAL0B7_
FN:100,_RNCNvNtNtCs1yu0zy1SNdm_13self_sensored10middleware7metrics19DB_CONNECTIONS_IDLE0B7_
FN:24,_RNCNvNtNtCs1yu0zy1SNdm_13self_sensored10middleware7metrics19HTTP_REQUESTS_TOTAL0B7_
FN:228,_RNCNvNtNtCs1yu0zy1SNdm_13self_sensored10middleware7metrics19LARGE_REQUEST_TOTAL0B7_
FN:271,_RNCNvNtNtCs1yu0zy1SNdm_13self_sensored10middleware7metrics21BATCH_PARAMETER_USAGE0B7_
FN:91,_RNCNvNtNtCs1yu0zy1SNdm_13self_sensored10middleware7metrics21DB_CONNECTIONS_ACTIVE0B7_
FN:47,_RNCNvNtNtCs1yu0zy1SNdm_13self_sensored10middleware7metrics21INGEST_REQUESTS_TOTAL0B7_
FN:238,_RNCNvNtNtCs1yu0zy1SNdm_13self_sensored10middleware7metrics21SECURITY_EVENTS_TOTAL0B7_
FN:259,_RNCNvNtNtCs1yu0zy1SNdm_13self_sensored10middleware7metrics21VALIDATION_ERROR_RATE0B7_
FN:293,_RNCNvNtNtCs1yu0zy1SNdm_13self_sensored10middleware7metrics22RATE_LIMIT_USAGE_RATIO0B7_
FN:66,_RNCNvNtNtCs1yu0zy1SNdm_13self_sensored10middleware7metrics23INGEST_DURATION_SECONDS0B7_
FN:249,_RNCNvNtNtCs1yu0zy1SNdm_13self_sensored10middleware7metrics23VALIDATION_ERRORS_TOTAL0B7_
FN:185,_RNCNvNtNtCs1yu0zy1SNdm_13self_sensored10middleware7metrics24DUPLICATES_REMOVED_TOTAL0B7_
FN:345,_RNCNvNtNtCs1yu0zy1SNdm_13self_sensored10middleware7metrics24IOS_FALLBACK_CASES_TOTAL0B7_
FN:364,_RNCNvNtNtCs1yu0zy1SNdm_13self_sensored10middleware7metrics26IOS_METRIC_DATA_LOSS_TOTAL0B7_
FN:384,_RNCNvNtNtCs1yu0zy1SNdm_13self_sensored10middleware7metrics27DUAL_WRITE_DURATION_SECONDS0B7_
FN:304,_RNCNvNtNtCs1yu0zy1SNdm_13self_sensored10middleware7metrics27DUAL_WRITE_OPERATIONS_TOTAL0B7_
FN:152,_RNCNvNtNtCs1yu0zy1SNdm_13self_sensored10middleware7metrics27HEALTH_METRICS_STORED_TOTAL0B7_
FN:216,_RNCNvNtNtCs1yu0zy1SNdm_13self_sensored10middleware7metrics27PROCESSING_DURATION_BY_SIZE0B7_
FN:163,_RNCNvNtNtCs1yu0zy1SNdm_13self_sensored10middleware7metrics27RATE_LIMITED_REQUESTS_TOTAL0B7_
FN:283,_RNCNvNtNtCs1yu0zy1SNdm_13self_sensored10middleware7metrics27RATE_LIMIT_EXHAUSTION_TOTAL0B7_
FN:315,_RNCNvNtNtCs1yu0zy1SNdm_13self_sensored10middleware7metrics28IOS_METRIC_TYPE_DISTRIBUTION0B7_
FN:34,_RNCNvNtNtCs1yu0zy1SNdm_13self_sensored10middleware7metrics29HTTP_REQUEST_DURATION_SECONDS0B7_
FN:56,_RNCNvNtNtCs1yu0zy1SNdm_13self_sensored10middleware7metrics30INGEST_METRICS_PROCESSED_TOTAL0B7_
FN:374,_RNCNvNtNtCs1yu0zy1SNdm_13self_sensored10middleware7metrics30IOS_HEALTHKIT_IDENTIFIER_USAGE0B7_
FN:355,_RNCNvNtNtCs1yu0zy1SNdm_13self_sensored10middleware7metrics30IOS_METRIC_TYPE_COVERAGE_RATIO0B7_
FN:335,_RNCNvNtNtCs1yu0zy1SNdm_13self_sensored10middleware7metrics30IOS_UNKNOWN_METRIC_TYPES_TOTAL0B7_
FN:109,_RNCNvNtNtCs1yu0zy1SNdm_13self_sensored10middleware7metrics31DB_CONNECTION_WAIT_TIME_SECONDS0B7_
FN:78,_RNCNvNtNtCs1yu0zy1SNdm_13self_sensored10middleware7metrics33BATCH_PROCESSING_DURATION_SECONDS0B7_
FN:325,_RNCNvNtNtCs1yu0zy1SNdm_13self_sensored10middleware7metrics34IOS_METRIC_CONVERSION_SUCCESS_RATE0B7_
FN:396,_RNCNvNtNtCs1yu0zy1SNdm_13self_sensored10middleware7metrics35DUAL_WRITE_CONSISTENCY_ERRORS_TOTAL0B7_
FN:1264,_RNvNtNtNtCs1yu0zy1SNdm_13self_sensored10middleware7metrics5testss_22test_metrics_recording
FN:1240,_RNvNtNtNtCs1yu0zy1SNdm_13self_sensored10middleware7metrics5testss_23test_normalize_endpoint
FN:1252,_RNvNtNtNtCs1yu0zy1SNdm_13self_sensored10middleware7metrics5testss_26test_classify_payload_size
FNDA:1,_RNvMs1_NtNtCs1yu0zy1SNdm_13self_sensored10middleware7metricsNtB5_7Metrics12record_error
FNDA:1,_RNvMs1_NtNtCs1yu0zy1SNdm_13self_sensored10middleware7metricsNtB5_7Metrics19record_request_size
FNDA:1,_RNvMs1_NtNtCs1yu0zy1SNdm_13self_sensored10middleware7metricsNtB5_7Metrics20record_large_request
FNDA:1,_RNvMs1_NtNtCs1yu0zy1SNdm_13self_sensored10middleware7metricsNtB5_7Metrics21record_ingest_request
FNDA:1,_RNvMs1_NtNtCs1yu0zy1SNdm_13self_sensored10middleware7metricsNtB5_7Metrics21record_security_event
FNDA:1,_RNvMs1_NtNtCs1yu0zy1SNdm_13self_sensored10middleware7metricsNtB5_7Metrics23record_validation_error
FNDA:1,_RNvMs1_NtNtCs1yu0zy1SNdm_13self_sensored10middleware7metricsNtB5_7Metrics23update_active_users_24h
FNDA:1,_RNvMs1_NtNtCs1yu0zy1SNdm_13self_sensored10middleware7metricsNtB5_7Metrics24record_metrics_processed
FNDA:1,_RNvMs1_NtNtCs1yu0zy1SNdm_13self_sensored10middleware7metricsNtB5_7Metrics28record_batch_parameter_usage
FNDA:14,_RNvMs1_NtNtCs1yu0zy1SNdm_13self_sensored10middleware7metricsNtB5_7Metrics28record_rate_limit_exhaustion
FNDA:1,_RNvMs1_NtNtCs1yu0zy1SNdm_13self_sensored10middleware7metricsNtB5_7Metrics28record_validation_error_rate
FNDA:27,_RNvMs1_NtNtCs1yu0zy1SNdm_13self_sensored10middleware7metricsNtB5_7Metrics29update_rate_limit_usage_ratio
FNDA:1,_RNvMs1_NtNtCs1yu0zy1SNdm_13self_sensored10middleware7metricsNtB5_7Metrics34record_processing_duration_by_size
FNDA:5,_RNvNtNtCs1yu0zy1SNdm_13self_sensored10middleware7metrics18normalize_endpoint
FNDA:1,_RNvNtNtCs1yu0zy1SNdm_13self_sensored10middleware7metrics20get_metrics_registry
FNDA:10,_RNvNtNtCs1yu0zy1SNdm_13self_sensored10middleware7metrics21classify_payload_size
FNDA:0,_RNCNvNtNtCs1yu0zy1SNdm_13self_sensored10middleware7metrics15metrics_handler0B7_
FNDA:0,_RNCNvXININtNtCs1yu0zy1SNdm_13self_sensored10middleware7metricss_0ppEINtB7_24MetricsMiddlewareServicepEINtCs9CDcoq7ZrE4_13actix_service7ServiceNtNtCs1IdqjQepwc8_9actix_web7service14ServiceRequestE4call0Bb_
FNDA:0,_RNCNvXININtNtCs1yu0zy1SNdm_13self_sensored10middleware7metricss_0ppEINtB7_24MetricsMiddlewareServicepEINtCs9CDcoq7ZrE4_13actix_service7ServiceNtNtCs1IdqjQepwc8_9actix_web7service14ServiceRequestE4calls0_0Bb_
FNDA:0,_RNCNvXININtNtCs1yu0zy1SNdm_13self_sensored10middleware7metricss_0ppEINtB7_24MetricsMiddlewareServicepEINtCs9CDcoq7ZrE4_13actix_service7ServiceNtNtCs1IdqjQepwc8_9actix_web7service14ServiceRequestE4calls_0Bb_
FNDA:0,_RNvMs0_NtNtCs1yu0zy1SNdm_13self_sensored10middleware7metricsNtB5_7Metrics3new
FNDA:0,_RNvMs1_NtNtCs1yu0zy1SNdm_13self_sensored10middleware7metricsNtB5_7Metrics18record_data_volume
FNDA:0,_RNvMs1_NtNtCs1yu0zy1SNdm_13self_sensored10middleware7metricsNtB5_7Metrics19record_auth_attempt
FNDA:0,_RNvMs1_NtNtCs1yu0zy1SNdm_13self_sensored10middleware7metricsNtB5_7Metrics20record_query_request
FNDA:0,_RNvMs1_NtNtCs1yu0zy1SNdm_13self_sensored10middleware7metricsNtB5_7Metrics22nutrition_errors_total
FNDA:0,_RNvMs1_NtNtCs1yu0zy1SNdm_13self_sensored10middleware7metricsNtB5_7Metrics22record_ingest_duration
FNDA:0,_RNvMs1_NtNtCs1yu0zy1SNdm_13self_sensored10middleware7metricsNtB5_7Metrics22record_ios_metric_type
FNDA:0,_RNvMs1_NtNtCs1yu0zy1SNdm_13self_sensored10middleware7metricsNtB5_7Metrics22record_nutrition_error
FNDA:0,_RNvMs1_NtNtCs1yu0zy1SNdm_13self_sensored10middleware7metricsNtB5_7Metrics23nutrition_ingests_total
FNDA:0,_RNvMs1_NtNtCs1yu0zy1SNdm_13self_sensored10middleware7metricsNtB5_7Metrics23record_dual_write_start
FNDA:0,_RNvMs1_NtNtCs1yu0zy1SNdm_13self_sensored10middleware7metricsNtB5_7Metrics23record_nutrition_ingest
FNDA:0,_RNvMs1_NtNtCs1yu0zy1SNdm_13self_sensored10middleware7metricsNtB5_7Metrics24record_ios_fallback_case
FNDA:0,_RNvMs1_NtNtCs1yu0zy1SNdm_13self_sensored10middleware7metricsNtB5_7Metrics25record_dual_write_failure
FNDA:0,_RNvMs1_NtNtCs1yu0zy1SNdm_13self_sensored10middleware7metricsNtB5_7Metrics25record_dual_write_success
FNDA:0,_RNvMs1_NtNtCs1yu0zy1SNdm_13self_sensored10middleware7metricsNtB5_7Metrics25record_duplicates_removed
FNDA:0,_RNvMs1_NtNtCs1yu0zy1SNdm_13self_sensored10middleware7metricsNtB5_7Metrics25update_ios_coverage_ratio
FNDA:0,_RNvMs1_NtNtCs1yu0zy1SNdm_13self_sensored10middleware7metricsNtB5_7Metrics26record_dual_write_rollback
FNDA:0,_RNvMs1_NtNtCs1yu0zy1SNdm_13self_sensored10middleware7metricsNtB5_7Metrics26record_ingest_errors_total
FNDA:0,_RNvMs1_NtNtCs1yu0zy1SNdm_13self_sensored10middleware7metricsNtB5_7Metrics27record_ios_metric_data_loss
FNDA:0,_RNvMs1_NtNtCs1yu0zy1SNdm_13self_sensored10middleware7metricsNtB5_7Metrics27record_rate_limited_request
FNDA:0,_RNvMs1_NtNtCs1yu0zy1SNdm_13self_sensored10middleware7metricsNtB5_7Metrics28record_health_metrics_stored
FNDA:0,_RNvMs1_NtNtCs1yu0zy1SNdm_13self_sensored10middleware7metricsNtB5_7Metrics28update_db_connection_metrics
FNDA:0,_RNvMs1_NtNtCs1yu0zy1SNdm_13self_sensored10middleware7metricsNtB5_7Metrics29record_ingest_processed_total
FNDA:0,_RNvMs1_NtNtCs1yu0zy1SNdm_13self_sensored10middleware7metricsNtB5_7Metrics30record_db_connection_wait_time
FNDA:0,_RNvMs1_NtNtCs1yu0zy1SNdm_13self_sensored10middleware7metricsNtB5_7Metrics30record_ios_unknown_metric_type
FNDA:0,_RNvMs1_NtNtCs1yu0zy1SNdm_13self_sensored10middleware7metricsNtB5_7Metrics32record_batch_processing_duration
FNDA:0,_RNvMs1_NtNtCs1yu0zy1SNdm_13self_sensored10middleware7metricsNtB5_7Metrics34record_health_metric_fallback_case
FNDA:0,_RNvMs1_NtNtCs1yu0zy1SNdm_13self_sensored10middleware7metricsNtB5_7Metrics34update_ios_conversion_success_rate
FNDA:0,_RNvMs1_NtNtCs1yu0zy1SNdm_13self_sensored10middleware7metricsNtB5_7Metrics35calculate_ios_metric_coverage_stats
FNDA:0,_RNvMs1_NtNtCs1yu0zy1SNdm_13self_sensored10middleware7metricsNtB5_7Metrics35record_dual_write_consistency_error
FNDA:0,_RNvMs1_NtNtCs1yu0zy1SNdm_13self_sensored10middleware7metricsNtB5_7Metrics37record_ios_healthkit_identifier_usage
FNDA:0,_RNvMs1_NtNtCs1yu0zy1SNdm_13self_sensored10middleware7metricsNtB5_7Metrics40record_unsupported_health_metric_variant
FNDA:0,_RNvMs1_NtNtCs1yu0zy1SNdm_13self_sensored10middleware7metricsNtB5_7Metrics42record_batch_processing_completeness_check
FNDA:0,_RNvNtNtCs1yu0zy1SNdm_13self_sensored10middleware7metrics15metrics_handler
FNDA:0,_RNvXININtNtCs1yu0zy1SNdm_13self_sensored10middleware7metrics0ppENtB5_17MetricsMiddlewareINtNtCs9CDcoq7ZrE4_13actix_service9transform9TransformpNtNtCs1IdqjQepwc8_9actix_web7service14ServiceRequestE13new_transformB9_
FNDA:0,_RNvXININtNtCs1yu0zy1SNdm_13self_sensored10middleware7metricss_0ppEINtB5_24MetricsMiddlewareServicepEINtCs9CDcoq7ZrE4_13actix_service7ServiceNtNtCs1IdqjQepwc8_9actix_web7service14ServiceRequestE4callB9_
FNDA:1,_RNCNvNtNtCs1yu0zy1SNdm_13self_sensored10middleware7metrics12ERRORS_TOTAL0B7_
FNDA:1,_RNCNvNtNtCs1yu0zy1SNdm_13self_sensored10middleware7metrics16ACTIVE_USERS_24H0B7_
FNDA:0,_RNCNvNtNtCs1yu0zy1SNdm_13self_sensored10middleware7metrics17DATA_VOLUME_BYTES0B7_
FNDA:1,_RNCNvNtNtCs1yu0zy1SNdm_13self_sensored10middleware7metrics18REQUEST_SIZE_BYTES0B7_
FNDA:0,_RNCNvNtNtCs1yu0zy1SNdm_13self_sensored10middleware7metrics19AUTH_ATTEMPTS_TOTAL0B7_
FNDA:0,_RNCNvNtNtCs1yu0zy1SNdm_13self_sensored10middleware7metrics19DB_CONNECTIONS_IDLE0B7_
FNDA:0,_RNCNvNtNtCs1yu0zy1SNdm_13self_sensored10middleware7metrics19HTTP_REQUESTS_TOTAL0B7_
FNDA:1,_RNCNvNtNtCs1yu0zy1SNdm_13self_sensored10middleware7metrics19LARGE_REQUEST_TOTAL0B7_
FNDA:1,_RNCNvNtNtCs1yu0zy1SNdm_13self_sensored10middleware7metrics21BATCH_PARAMETER_USAGE0B7_
FNDA:0,_RNCNvNtNtCs1yu0zy1SNdm_13self_sensored10middleware7metrics21DB_CONNECTIONS_ACTIVE0B7_
FNDA:1,_RNCNvNtNtCs1yu0zy1SNdm_13self_sensored10middleware7metrics21INGEST_REQUESTS_TOTAL0B7_
FNDA:1,_RNCNvNtNtCs1yu0zy1SNdm_13self_sensored10middleware7metrics21SECURITY_EVENTS_TOTAL0B7_
FNDA:1,_RNCNvNtNtCs1yu0zy1SNdm_13self_sensored10middleware7metrics21VALIDATION_ERROR_RATE0B7_
FNDA:1,_RNCNvNtNtCs1yu0zy1SNdm_13self_sensored10middleware7metrics22RATE_LIMIT_USAGE_RATIO0B7_
FNDA:0,_RNCNvNtNtCs1yu0zy1SNdm_13self_sensored10middleware7metrics23INGEST_DURATION_SECONDS0B7_
FNDA:1,_RNCNvNtNtCs1yu0zy1SNdm_13self_sensored10middleware7metrics23VALIDATION_ERRORS_TOTAL0B7_
FNDA:0,_RNCNvNtNtCs1yu0zy1SNdm_13self_sensored10middleware7metrics24DUPLICATES_REMOVED_TOTAL0B7_
FNDA:0,_RNCNvNtNtCs1yu0zy1SNdm_13self_sensored10middleware7metrics24IOS_FALLBACK_CASES_TOTAL0B7_
FNDA:0,_RNCNvNtNtCs1yu0zy1SNdm_13self_sensored10middleware7metrics26IOS_METRIC_DATA_LOSS_TOTAL0B7_
FNDA:0,_RNCNvNtNtCs1yu0zy1SNdm_13self_sensored10middleware7metrics27DUAL_WRITE_DURATION_SECONDS0B7_
FNDA:0,_RNCNvNtNtCs1yu0zy1SNdm_13self_sensored10middleware7metrics27DUAL_WRITE_OPERATIONS_TOTAL0B7_
FNDA:0,_RNCNvNtNtCs1yu0zy1SNdm_13self_sensored10middleware7metrics27HEALTH_METRICS_STORED_TOTAL0B7_
FNDA:1,_RNCNvNtNtCs1yu0zy1SNdm_13self_sensored10middleware7metrics27PROCESSING_DURATION_BY_SIZE0B7_
FNDA:0,_RNCNvNtNtCs1yu0zy1SNdm_13self_sensored10middleware7metrics27RATE_LIMITED_REQUESTS_TOTAL0B7_
FNDA:1,_RNCNvNtNtCs1yu0zy1SNdm_13self_sensored10middleware7metrics27RATE_LIMIT_EXHAUSTION_TOTAL0B7_
FNDA:0,_RNCNvNtNtCs1yu0zy1SNdm_13self_sensored10middleware7metrics28IOS_METRIC_TYPE_DISTRIBUTION0B7_
FNDA:0,_RNCNvNtNtCs1yu0zy1SNdm_13self_sensored10middleware7metrics29HTTP_REQUEST_DURATION_SECONDS0B7_
FNDA:1,_RNCNvNtNtCs1yu0zy1SNdm_13self_sensored10middleware7metrics30INGEST_METRICS_PROCESSED_TOTAL0B7_
FNDA:0,_RNCNvNtNtCs1yu0zy1SNdm_13self_sensored10middleware7metrics30IOS_HEALTHKIT_IDENTIFIER_USAGE0B7_
FNDA:0,_RNCNvNtNtCs1yu0zy1SNdm_13self_sensored10middleware7metrics30IOS_METRIC_TYPE_COVERAGE_RATIO0B7_
FNDA:0,_RNCNvNtNtCs1yu0zy1SNdm_13self_sensored10middleware7metrics30IOS_UNKNOWN_METRIC_TYPES_TOTAL0B7_
FNDA:0,_RNCNvNtNtCs1yu0zy1SNdm_13self_sensored10middleware7metrics31DB_CONNECTION_WAIT_TIME_SECONDS0B7_
FNDA:0,_RNCNvNtNtCs1yu0zy1SNdm_13self_sensored10middleware7metrics33BATCH_PROCESSING_DURATION_SECONDS0B7_
FNDA:0,_RNCNvNtNtCs1yu0zy1SNdm_13self_sensored10middleware7metrics34IOS_METRIC_CONVERSION_SUCCESS_RATE0B7_
FNDA:0,_RNCNvNtNtCs1yu0zy1SNdm_13self_sensored10middleware7metrics35DUAL_WRITE_CONSISTENCY_ERRORS_TOTAL0B7_
FNDA:1,_RNvNtNtNtCs1yu0zy1SNdm_13self_sensored10middleware7metrics5testss_22test_metrics_recording
FNDA:1,_RNvNtNtNtCs1yu0zy1SNdm_13self_sensored10middleware7metrics5testss_23test_normalize_endpoint
FNDA:1,_RNvNtNtNtCs1yu0zy1SNdm_13self_sensored10middleware7metrics5testss_26test_classify_payload_size
FNF:94
FNH:32
DA:24,0
DA:25,0
DA:28,0
DA:29,0
DA:31,0
DA:32,0
DA:34,0
DA:35,0
DA:38,0
DA:40,0
DA:41,0
DA:43,0
DA:44,0
DA:47,1
DA:48,1
DA:51,1
DA:53,1
DA:54,1
DA:56,1
DA:57,1
DA:60,1
DA:61,1
DA:63,1
DA:64,1
DA:66,0
DA:67,0
DA:70,0
DA:72,0
DA:73,0
DA:75,0
DA:76,0
DA:78,0
DA:79,0
DA:82,0
DA:84,0
DA:85,0
DA:87,0
DA:88,0
DA:91,0
DA:92,0
DA:95,0
DA:97,0
DA:98,0
DA:100,0
DA:101,0
DA:104,0
DA:106,0
DA:107,0
DA:109,0
DA:110,0
DA:113,0
DA:115,0
DA:116,0
DA:118,0
DA:119,0
DA:122,1
DA:123,1
DA:126,1
DA:127,1
DA:129,1
DA:130,1
DA:133,1
DA:134,1
DA:137,1
DA:139,1
DA:140,1
DA:142,0
DA:143,0
DA:146,0
DA:147,0
DA:149,0
DA:150,0
DA:152,0
DA:153,0
DA:156,0
DA:157,0
DA:159,0
DA:160,0
DA:163,0
DA:164,0
DA:167,0
DA:168,0
DA:170,0
DA:171,0
DA:174,0
DA:175,0
DA:178,0
DA:179,0
DA:181,0
DA:182,0
DA:185,0
DA:186,0
DA:189,0
DA:191,0
DA:192,0
DA:195,1
DA:196,1
DA:199,1
DA:201,1
DA:211,1
DA:213,1
DA:214,1
DA:216,1
DA:217,1
DA:220,1
DA:222,1
DA:223,1
DA:225,1
DA:226,1
DA:228,1
DA:229,1
DA:232,1
DA:233,1
DA:235,1
DA:236,1
DA:238,1
DA:239,1
DA:242,1
DA:243,1
DA:245,1
DA:246,1
DA:249,1
DA:250,1
DA:253,1
DA:254,1
DA:256,1
DA:257,1
DA:259,1
DA:260,1
DA:263,1
DA:265,1
DA:266,1
DA:268,1
DA:269,1
DA:271,1
DA:272,1
DA:275,1
DA:277,1
DA:278,1
DA:280,1
DA:281,1
DA:283,1
DA:284,1
DA:287,1
DA:288,1
DA:290,1
DA:291,1
DA:293,1
DA:294,1
DA:297,1
DA:298,1
DA:300,1
DA:301,1
DA:304,0
DA:305,0
DA:308,0
DA:309,0
DA:311,0
DA:312,0
DA:315,0
DA:316,0
DA:319,0
DA:320,0
DA:322,0
DA:323,0
DA:325,0
DA:326,0
DA:329,0
DA:330,0
DA:332,0
DA:333,0
DA:335,0
DA:336,0
DA:339,0
DA:340,0
DA:342,0
DA:343,0
DA:345,0
DA:346,0
DA:349,0
DA:350,0
DA:352,0
DA:353,0
DA:355,0
DA:356,0
DA:359,0
DA:361,0
DA:362,0
DA:364,0
DA:365,0
DA:368,0
DA:369,0
DA:371,0
DA:372,0
DA:374,0
DA:375,0
DA:378,0
DA:379,0
DA:381,0
DA:382,0
DA:384,0
DA:385,0
DA:388,0
DA:390,0
DA:391,0
DA:393,0
DA:394,0
DA:396,0
DA:397,0
DA:400,0
DA:401,0
DA:403,0
DA:404,0
DA:421,0
DA:422,0
DA:423,0
DA:442,0
DA:443,0
DA:444,0
DA:445,0
DA:448,0
DA:449,0
DA:450,0
DA:451,0
DA:452,0
DA:453,0
DA:455,0
DA:457,0
DA:459,0
DA:460,0
DA:463,0
DA:464,0
DA:467,0
DA:468,0
DA:469,0
DA:470,0
DA:471,0
DA:472,0
DA:473,0
DA:475,0
DA:476,0
DA:477,0
DA:478,0
DA:479,0
DA:480,0
DA:481,0
DA:484,0
DA:486,0
DA:487,0
DA:488,0
DA:491,0
DA:492,0
DA:493,0
DA:494,0
DA:495,0
DA:496,0
DA:497,0
DA:498,0
DA:501,0
DA:509,0
DA:510,0
DA:511,0
DA:514,0
DA:518,0
DA:520,0
DA:523,0
DA:524,0
DA:525,0
DA:526,0
DA:529,0
DA:537,0
DA:541,0
DA:543,0
DA:546,0
DA:547,0
DA:548,0
DA:549,0
DA:550,0
DA:551,0
DA:552,0
DA:553,0
DA:556,0
DA:558,0
DA:562,0
DA:564,0
DA:567,0
DA:568,0
DA:569,0
DA:570,0
DA:571,0
DA:573,0
DA:574,0
DA:575,0
DA:579,10
DA:580,10
DA:581,10
DA:582,9
DA:583,8
DA:584,7
DA:585,5
DA:586,4
DA:587,2
DA:588,1
DA:590,10
DA:593,5
DA:595,5
DA:596,5
DA:597,5
DA:598,0
DA:599,0
DA:600,0
DA:603,5
DA:604,5
DA:605,0
DA:606,0
DA:607,0
DA:611,5
DA:612,5
DA:615,5
DA:616,5
DA:617,4
DA:618,3
DA:619,3
DA:620,2
DA:621,1
DA:623,5
DA:630,0
DA:631,0
DA:632,0
DA:638,1
DA:639,1
DA:640,1
DA:644,1
DA:645,1
DA:646,1
DA:647,1
DA:648,1
DA:652,0
DA:653,0
DA:654,0
DA:655,0
DA:656,0
DA:660,0
DA:661,0
DA:662,0
DA:663,0
DA:664,0
DA:665,0
DA:666,0
DA:667,0
DA:668,0
DA:669,0
DA:672,0
DA:673,0
DA:674,0
DA:675,0
DA:679,0
DA:680,0
DA:681,0
DA:682,0
DA:683,0
DA:687,0
DA:688,0
DA:689,0
DA:690,0
DA:691,0
DA:695,0
DA:696,0
DA:697,0
DA:698,0
DA:702,0
DA:703,0
DA:704,0
DA:705,0
DA:709,0
DA:710,0
DA:711,0
DA:712,0
DA:713,0
DA:717,1
DA:718,1
DA:719,1
DA:720,1
DA:721,1
DA:725,1
DA:726,1
DA:727,1
DA:731,0
DA:732,0
DA:733,0
DA:734,0
DA:735,0
DA:739,0
DA:740,0
DA:741,0
DA:742,0
DA:743,0
DA:747,0
DA:748,0
DA:749,0
DA:750,0
DA:751,0
DA:755,0
DA:756,0
DA:757,0
DA:758,0
DA:759,0
DA:763,0
DA:764,0
DA:765,0
DA:769,1
DA:770,1
DA:771,1
DA:772,1
DA:773,1
DA:777,1
DA:778,1
DA:779,1
DA:780,1
DA:781,1
DA:782,1
DA:783,1
DA:784,1
DA:785,1
DA:786,1
DA:787,1
DA:791,1
DA:792,1
DA:793,1
DA:794,1
DA:795,1
DA:796,1
DA:800,1
DA:801,1
DA:802,1
DA:803,1
DA:804,1
DA:810,1
DA:811,1
DA:812,1
DA:813,1
DA:814,1
DA:818,1
DA:819,1
DA:820,1
DA:821,1
DA:822,1
DA:826,1
DA:827,1
DA:828,1
DA:829,1
DA:830,1
DA:831,1
DA:832,1
DA:833,1
DA:834,1
DA:838,14
DA:839,14
DA:840,14
DA:841,14
DA:842,14
DA:843,14
DA:844,14
DA:845,14
DA:846,14
DA:850,27
DA:851,27
DA:852,27
DA:853,27
DA:854,27
DA:860,0
DA:861,0
DA:862,0
DA:863,0
DA:864,0
DA:868,0
DA:869,0
DA:870,0
DA:871,0
DA:872,0
DA:873,0
DA:874,0
DA:875,0
DA:877,0
DA:878,0
DA:879,0
DA:880,0
DA:884,0
DA:885,0
DA:886,0
DA:887,0
DA:888,0
DA:889,0
DA:890,0
DA:891,0
DA:893,0
DA:894,0
DA:895,0
DA:896,0
DA:900,0
DA:901,0
DA:902,0
DA:903,0
DA:904,0
DA:908,0
DA:909,0
DA:910,0
DA:911,0
DA:912,0
DA:913,0
DA:914,0
DA:915,0
DA:917,0
DA:918,0
DA:919,0
DA:920,0
DA:926,0
DA:927,0
DA:928,0
DA:929,0
DA:930,0
DA:931,0
DA:932,0
DA:933,0
DA:937,0
DA:938,0
DA:939,0
DA:940,0
DA:941,0
DA:942,0
DA:943,0
DA:944,0
DA:945,0
DA:949,0
DA:950,0
DA:951,0
DA:952,0
DA:953,0
DA:954,0
DA:955,0
DA:958,0
DA:959,0
DA:960,0
DA:962,0
DA:965,0
DA:966,0
DA:968,0
DA:972,0
DA:975,0
DA:979,0
DA:983,0
DA:984,0
DA:985,0
DA:986,0
DA:987,0
DA:988,0
DA:989,0
DA:991,0
DA:994,0
DA:996,0
DA:1000,0
DA:1001,0
DA:1004,0
DA:1005,0
DA:1007,0
DA:1009,0
DA:1010,0
DA:1014,0
DA:1015,0
DA:1016,0
DA:1017,0
DA:1018,0
DA:1019,0
DA:1020,0
DA:1021,0
DA:1024,0
DA:1025,0
DA:1029,0
DA:1031,0
DA:1032,0
DA:1036,0
DA:1037,0
DA:1038,0
DA:1039,0
DA:1040,0
DA:1041,0
DA:1042,0
DA:1043,0
DA:1047,0
DA:1048,0
DA:1049,0
DA:1050,0
DA:1051,0
DA:1052,0
DA:1053,0
DA:1055,0
DA:1056,0
DA:1059,0
DA:1062,0
DA:1069,0
DA:1073,0
DA:1074,0
DA:1077,0
DA:1079,0
DA:1080,0
DA:1081,0
DA:1087,0
DA:1088,0
DA:1089,0
DA:1090,0
DA:1091,0
DA:1095,0
DA:1096,0
DA:1097,0
DA:1098,0
DA:1099,0
DA:1102,0
DA:1103,0
DA:1104,0
DA:1107,0
DA:1108,0
DA:1109,0
DA:1117,0
DA:1118,0
DA:1119,0
DA:1120,0
DA:1121,0
DA:1123,0
DA:1124,0
DA:1125,0
DA:1128,0
DA:1132,0
DA:1136,0
DA:1137,0
DA:1140,0
DA:1143,0
DA:1144,0
DA:1149,0
DA:1150,0
DA:1151,0
DA:1152,0
DA:1154,0
DA:1155,0
DA:1156,0
DA:1158,0
DA:1161,0
DA:1163,0
DA:1168,0
DA:1169,0
DA:1170,0
DA:1171,0
DA:1172,0
DA:1173,0
DA:1174,0
DA:1176,0
DA:1180,0
DA:1185,0
DA:1189,0
DA:1190,0
DA:1193,0
DA:1194,0
DA:1198,0
DA:1199,0
DA:1200,0
DA:1201,0
DA:1202,0
DA:1203,0
DA:1204,0
DA:1205,0
DA:1206,0
DA:1211,0
DA:1227,0
DA:1231,1
DA:1232,1
DA:1233,1
DA:1240,1
DA:1241,1
DA:1242,1
DA:1243,1
DA:1246,1
DA:1247,1
DA:1248,1
DA:1249,1
DA:1252,1
DA:1253,1
DA:1254,1
DA:1255,1
DA:1256,1
DA:1257,1
DA:1258,1
DA:1259,1
DA:1260,1
DA:1261,1
DA:1264,1
DA:1266,1
DA:1267,1
DA:1268,1
DA:1269,1
DA:1272,1
DA:1273,1
DA:1274,1
DA:1275,1
DA:1277,1
DA:1279,1
DA:1280,1
DA:1283,1
DA:1284,1
DA:1285,1
DA:1286,1
DA:1287,1
DA:1290,1
DA:1291,1
DA:1292,1
BRF:0
BRH:0
LF:717
LH:224
end_of_record
SF:/mnt/datadrive_m2/self-sensored/src/middleware/rate_limit.rs
FN:334,_RNCNCNCNvNtNtNtCs1yu0zy1SNdm_13self_sensored10middleware10rate_limit5testss_40test_rate_limit_middleware_health_bypass000Bd_
FN:504,_RNCNCNvNtNtNtCs1yu0zy1SNdm_13self_sensored10middleware10rate_limit5testss_34test_rate_limit_header_consistency00Bb_
FN:505,_RNCNCNvNtNtNtCs1yu0zy1SNdm_13self_sensored10middleware10rate_limit5testss_34test_rate_limit_header_consistency0s_0Bb_
FN:334,_RNCNCNvNtNtNtCs1yu0zy1SNdm_13self_sensored10middleware10rate_limit5testss_40test_rate_limit_middleware_health_bypass00Bb_
FN:596,_RNCNCNvNtNtNtCs1yu0zy1SNdm_13self_sensored10middleware10rate_limit5testss_41test_rate_limit_rapid_sequential_requests00Bb_
FN:597,_RNCNCNvNtNtNtCs1yu0zy1SNdm_13self_sensored10middleware10rate_limit5testss_41test_rate_limit_rapid_sequential_requests0s_0Bb_
FN:273,_RNCNvNtNtNtCs1yu0zy1SNdm_13self_sensored10middleware10rate_limit5tests12test_handler0B9_
FN:637,_RNCNvNtNtNtCs1yu0zy1SNdm_13self_sensored10middleware10rate_limit5testss_24test_rate_limit_recovery0B9_
FN:381,_RNCNvNtNtNtCs1yu0zy1SNdm_13self_sensored10middleware10rate_limit5testss_33test_rate_limit_multiple_requests0B9_
FN:467,_RNCNvNtNtNtCs1yu0zy1SNdm_13self_sensored10middleware10rate_limit5testss_34test_rate_limit_header_consistency0B9_
FN:278,_RNCNvNtNtNtCs1yu0zy1SNdm_13self_sensored10middleware10rate_limit5testss_34test_rate_limit_middleware_success0B9_
FN:325,_RNCNvNtNtNtCs1yu0zy1SNdm_13self_sensored10middleware10rate_limit5testss_40test_rate_limit_middleware_health_bypass0B9_
FN:560,_RNCNvNtNtNtCs1yu0zy1SNdm_13self_sensored10middleware10rate_limit5testss_41test_rate_limit_rapid_sequential_requests0B9_
FN:346,_RNCNvNtNtNtCs1yu0zy1SNdm_13self_sensored10middleware10rate_limit5testss_43test_rate_limit_middleware_ip_based_headers0B9_
FN:273,_RNvNtNtNtCs1yu0zy1SNdm_13self_sensored10middleware10rate_limit5tests12test_handler
FN:637,_RNvNtNtNtCs1yu0zy1SNdm_13self_sensored10middleware10rate_limit5testss_24test_rate_limit_recovery
FN:381,_RNvNtNtNtCs1yu0zy1SNdm_13self_sensored10middleware10rate_limit5testss_33test_rate_limit_multiple_requests
FN:467,_RNvNtNtNtCs1yu0zy1SNdm_13self_sensored10middleware10rate_limit5testss_34test_rate_limit_header_consistency
FN:278,_RNvNtNtNtCs1yu0zy1SNdm_13self_sensored10middleware10rate_limit5testss_34test_rate_limit_middleware_success
FN:325,_RNvNtNtNtCs1yu0zy1SNdm_13self_sensored10middleware10rate_limit5testss_40test_rate_limit_middleware_health_bypass
FN:560,_RNvNtNtNtCs1yu0zy1SNdm_13self_sensored10middleware10rate_limit5testss_41test_rate_limit_rapid_sequential_requests
FN:346,_RNvNtNtNtCs1yu0zy1SNdm_13self_sensored10middleware10rate_limit5testss_43test_rate_limit_middleware_ip_based_headers
FN:18,_RNvNtNtCs1yu0zy1SNdm_13self_sensored10middleware10rate_limit13get_client_ip
FN:100,_RNCNCNvXs_NtNtCs1yu0zy1SNdm_13self_sensored10middleware10rate_limitINtB8_26RateLimitMiddlewareServiceNtNtCs1IdqjQepwc8_9actix_web11app_service10AppRoutingEINtCs9CDcoq7ZrE4_13actix_service7ServiceNtNtB1F_7service14ServiceRequestE4call00Bc_
FN:84,_RNCNvXs_NtNtCs1yu0zy1SNdm_13self_sensored10middleware10rate_limitINtB6_26RateLimitMiddlewareServiceNtNtCs1IdqjQepwc8_9actix_web11app_service10AppRoutingEINtCs9CDcoq7ZrE4_13actix_service7ServiceNtNtB1D_7service14ServiceRequestE4call0Ba_
FN:58,_RNvXNtNtCs1yu0zy1SNdm_13self_sensored10middleware10rate_limitNtB2_19RateLimitMiddlewareINtNtCs9CDcoq7ZrE4_13actix_service9transform9TransformNtNtCs1IdqjQepwc8_9actix_web11app_service10AppRoutingNtNtB2j_7service14ServiceRequestE13new_transformB6_
FN:81,_RNvXs_NtNtCs1yu0zy1SNdm_13self_sensored10middleware10rate_limitINtB4_26RateLimitMiddlewareServiceNtNtCs1IdqjQepwc8_9actix_web11app_service10AppRoutingEINtCs9CDcoq7ZrE4_13actix_service7ServiceNtNtB1B_7service14ServiceRequestE4callB8_
FNDA:1,_RNCNCNCNvNtNtNtCs1yu0zy1SNdm_13self_sensored10middleware10rate_limit5testss_40test_rate_limit_middleware_health_bypass000Bd_
FNDA:5,_RNCNCNvNtNtNtCs1yu0zy1SNdm_13self_sensored10middleware10rate_limit5testss_34test_rate_limit_header_consistency00Bb_
FNDA:5,_RNCNCNvNtNtNtCs1yu0zy1SNdm_13self_sensored10middleware10rate_limit5testss_34test_rate_limit_header_consistency0s_0Bb_
FNDA:1,_RNCNCNvNtNtNtCs1yu0zy1SNdm_13self_sensored10middleware10rate_limit5testss_40test_rate_limit_middleware_health_bypass00Bb_
FNDA:10,_RNCNCNvNtNtNtCs1yu0zy1SNdm_13self_sensored10middleware10rate_limit5testss_41test_rate_limit_rapid_sequential_requests00Bb_
FNDA:10,_RNCNCNvNtNtNtCs1yu0zy1SNdm_13self_sensored10middleware10rate_limit5testss_41test_rate_limit_rapid_sequential_requests0s_0Bb_
FNDA:14,_RNCNvNtNtNtCs1yu0zy1SNdm_13self_sensored10middleware10rate_limit5tests12test_handler0B9_
FNDA:1,_RNCNvNtNtNtCs1yu0zy1SNdm_13self_sensored10middleware10rate_limit5testss_24test_rate_limit_recovery0B9_
FNDA:1,_RNCNvNtNtNtCs1yu0zy1SNdm_13self_sensored10middleware10rate_limit5testss_33test_rate_limit_multiple_requests0B9_
FNDA:1,_RNCNvNtNtNtCs1yu0zy1SNdm_13self_sensored10middleware10rate_limit5testss_34test_rate_limit_header_consistency0B9_
FNDA:1,_RNCNvNtNtNtCs1yu0zy1SNdm_13self_sensored10middleware10rate_limit5testss_34test_rate_limit_middleware_success0B9_
FNDA:1,_RNCNvNtNtNtCs1yu0zy1SNdm_13self_sensored10middleware10rate_limit5testss_40test_rate_limit_middleware_health_bypass0B9_
FNDA:1,_RNCNvNtNtNtCs1yu0zy1SNdm_13self_sensored10middleware10rate_limit5testss_41test_rate_limit_rapid_sequential_requests0B9_
FNDA:1,_RNCNvNtNtNtCs1yu0zy1SNdm_13self_sensored10middleware10rate_limit5testss_43test_rate_limit_middleware_ip_based_headers0B9_
FNDA:14,_RNvNtNtNtCs1yu0zy1SNdm_13self_sensored10middleware10rate_limit5tests12test_handler
FNDA:1,_RNvNtNtNtCs1yu0zy1SNdm_13self_sensored10middleware10rate_limit5testss_24test_rate_limit_recovery
FNDA:1,_RNvNtNtNtCs1yu0zy1SNdm_13self_sensored10middleware10rate_limit5testss_33test_rate_limit_multiple_requests
FNDA:1,_RNvNtNtNtCs1yu0zy1SNdm_13self_sensored10middleware10rate_limit5testss_34test_rate_limit_header_consistency
FNDA:1,_RNvNtNtNtCs1yu0zy1SNdm_13self_sensored10middleware10rate_limit5testss_34test_rate_limit_middleware_success
FNDA:1,_RNvNtNtNtCs1yu0zy1SNdm_13self_sensored10middleware10rate_limit5testss_40test_rate_limit_middleware_health_bypass
FNDA:1,_RNvNtNtNtCs1yu0zy1SNdm_13self_sensored10middleware10rate_limit5testss_41test_rate_limit_rapid_sequential_requests
FNDA:1,_RNvNtNtNtCs1yu0zy1SNdm_13self_sensored10middleware10rate_limit5testss_43test_rate_limit_middleware_ip_based_headers
FNDA:52,_RNvNtNtCs1yu0zy1SNdm_13self_sensored10middleware10rate_limit13get_client_ip
FNDA:0,_RNCNCNvXs_NtNtCs1yu0zy1SNdm_13self_sensored10middleware10rate_limitINtB8_26RateLimitMiddlewareServiceNtNtCs1IdqjQepwc8_9actix_web11app_service10AppRoutingEINtCs9CDcoq7ZrE4_13actix_service7ServiceNtNtB1F_7service14ServiceRequestE4call00Bc_
FNDA:27,_RNCNvXs_NtNtCs1yu0zy1SNdm_13self_sensored10middleware10rate_limitINtB6_26RateLimitMiddlewareServiceNtNtCs1IdqjQepwc8_9actix_web11app_service10AppRoutingEINtCs9CDcoq7ZrE4_13actix_service7ServiceNtNtB1D_7service14ServiceRequestE4call0Ba_
FNDA:7,_RNvXNtNtCs1yu0zy1SNdm_13self_sensored10middleware10rate_limitNtB2_19RateLimitMiddlewareINtNtCs9CDcoq7ZrE4_13actix_service9transform9TransformNtNtCs1IdqjQepwc8_9actix_web11app_service10AppRoutingNtNtB2j_7service14ServiceRequestE13new_transformB6_
FNDA:27,_RNvXs_NtNtCs1yu0zy1SNdm_13self_sensored10middleware10rate_limitINtB4_26RateLimitMiddlewareServiceNtNtCs1IdqjQepwc8_9actix_web11app_service10AppRoutingEINtCs9CDcoq7ZrE4_13actix_service7ServiceNtNtB1B_7service14ServiceRequestE4callB8_
FNF:27
FNH:26
DA:18,52
DA:20,52
DA:21,48
DA:23,48
DA:24,48
DA:25,0
DA:26,0
DA:27,4
DA:30,4
DA:31,0
DA:32,0
DA:33,0
DA:34,4
DA:37,4
DA:38,4
DA:39,4
DA:40,4
DA:41,52
DA:58,7
DA:59,7
DA:60,7
DA:61,7
DA:62,7
DA:81,27
DA:82,27
DA:84,27
DA:86,27
DA:87,27
DA:88,1
DA:89,1
DA:90,26
DA:93,26
DA:95,26
DA:97,26
DA:99,0
DA:100,0
DA:101,0
DA:102,0
DA:104,0
DA:105,0
DA:106,0
DA:109,0
DA:110,0
DA:111,0
DA:114,0
DA:115,0
DA:118,0
DA:122,26
DA:123,26
DA:124,26
DA:127,26
DA:128,26
DA:130,26
DA:131,26
DA:132,26
DA:133,26
DA:134,26
DA:135,0
DA:137,26
DA:140,26
DA:141,0
DA:143,26
DA:146,26
DA:147,26
DA:148,26
DA:149,26
DA:153,26
DA:154,1
DA:155,25
DA:156,0
DA:157,25
DA:159,26
DA:160,26
DA:163,12
DA:166,12
DA:168,12
DA:171,12
DA:172,12
DA:173,12
DA:174,12
DA:175,12
DA:176,12
DA:177,12
DA:178,12
DA:179,12
DA:180,12
DA:181,12
DA:182,12
DA:184,12
DA:185,12
DA:186,12
DA:189,12
DA:190,12
DA:191,12
DA:192,12
DA:193,12
DA:194,12
DA:195,12
DA:196,12
DA:201,12
DA:202,12
DA:205,14
DA:206,0
DA:209,14
DA:212,14
DA:214,14
DA:215,14
DA:216,14
DA:217,14
DA:218,14
DA:219,14
DA:220,14
DA:221,14
DA:223,14
DA:224,14
DA:225,14
DA:226,14
DA:227,14
DA:228,14
DA:229,14
DA:230,14
DA:232,14
DA:233,14
DA:234,14
DA:235,14
DA:236,14
DA:237,14
DA:238,14
DA:239,14
DA:241,14
DA:244,0
DA:245,0
DA:248,0
DA:249,0
DA:253,0
DA:255,0
DA:256,0
DA:258,27
DA:259,27
DA:273,14
DA:274,14
DA:275,14
DA:278,1
DA:279,1
DA:282,1
DA:283,1
DA:284,1
DA:285,1
DA:286,1
DA:287,1
DA:288,1
DA:289,1
DA:290,1
DA:291,1
DA:292,1
DA:293,1
DA:294,1
DA:295,1
DA:296,1
DA:297,1
DA:298,1
DA:299,1
DA:300,1
DA:301,1
DA:302,1
DA:303,1
DA:305,1
DA:306,1
DA:307,1
DA:308,1
DA:309,1
DA:310,1
DA:311,1
DA:314,1
DA:318,1
DA:321,1
DA:322,1
DA:325,1
DA:326,1
DA:328,1
DA:329,1
DA:330,1
DA:331,1
DA:332,1
DA:333,1
DA:334,2
DA:337,1
DA:339,1
DA:340,1
DA:342,1
DA:343,1
DA:346,1
DA:348,1
DA:350,1
DA:351,1
DA:352,1
DA:353,1
DA:354,1
DA:355,1
DA:356,1
DA:359,1
DA:360,1
DA:361,1
DA:364,1
DA:365,1
DA:366,1
DA:368,1
DA:371,1
DA:372,1
DA:375,1
DA:376,1
DA:377,1
DA:381,1
DA:383,1
DA:386,1
DA:389,1
DA:391,1
DA:392,1
DA:393,1
DA:394,1
DA:395,1
DA:396,1
DA:397,1
DA:399,1
DA:400,1
DA:403,7
DA:404,6
DA:405,6
DA:406,6
DA:407,6
DA:410,6
DA:412,6
DA:414,6
DA:416,3
DA:418,3
DA:419,3
DA:420,3
DA:423,3
DA:424,3
DA:425,3
DA:426,3
DA:427,3
DA:428,3
DA:429,3
DA:430,3
DA:431,3
DA:432,3
DA:433,3
DA:434,3
DA:435,3
DA:438,3
DA:440,3
DA:441,3
DA:442,3
DA:444,3
DA:446,0
DA:450,1
DA:451,1
DA:452,1
DA:455,1
DA:457,0
DA:459,1
DA:460,1
DA:461,1
DA:462,1
DA:463,1
DA:467,1
DA:469,1
DA:472,1
DA:475,1
DA:477,1
DA:478,1
DA:479,1
DA:480,1
DA:481,1
DA:482,1
DA:483,1
DA:485,1
DA:486,1
DA:487,1
DA:490,6
DA:491,5
DA:492,5
DA:493,5
DA:494,5
DA:497,5
DA:498,5
DA:501,5
DA:502,5
DA:503,5
DA:504,5
DA:505,5
DA:507,5
DA:509,5
DA:511,2
DA:513,2
DA:514,2
DA:515,2
DA:516,2
DA:517,0
DA:521,2
DA:522,1
DA:523,1
DA:524,0
DA:525,1
DA:526,2
DA:527,0
DA:530,3
DA:532,3
DA:533,3
DA:535,0
DA:537,0
DA:539,0
DA:543,1
DA:544,1
DA:545,1
DA:548,1
DA:550,0
DA:552,1
DA:553,1
DA:554,1
DA:555,1
DA:556,1
DA:560,1
DA:562,1
DA:565,1
DA:568,1
DA:570,1
DA:571,1
DA:572,1
DA:573,1
DA:574,1
DA:575,1
DA:576,1
DA:578,1
DA:579,1
DA:580,1
DA:583,11
DA:584,10
DA:585,10
DA:586,10
DA:587,10
DA:590,10
DA:591,10
DA:593,10
DA:594,10
DA:595,10
DA:596,10
DA:597,10
DA:599,10
DA:601,5
DA:603,5
DA:605,5
DA:606,4
DA:607,0
DA:608,1
DA:609,5
DA:610,0
DA:612,5
DA:613,5
DA:614,5
DA:615,5
DA:616,0
DA:620,1
DA:621,1
DA:622,1
DA:625,1
DA:627,0
DA:629,1
DA:630,1
DA:631,1
DA:632,1
DA:633,1
DA:637,1
DA:639,1
DA:642,1
DA:645,1
DA:647,1
DA:648,1
DA:649,1
DA:650,1
DA:651,1
DA:652,1
DA:653,1
DA:656,4
DA:657,3
DA:658,3
DA:659,3
DA:660,3
DA:661,1
DA:662,1
DA:663,3
DA:664,1
DA:665,3
DA:666,2
DA:667,1
DA:668,1
DA:669,1
DA:670,1
DA:671,1
DA:672,1
DA:673,1
DA:674,1
DA:675,1
BRF:0
BRH:0
LF:439
LH:393
end_of_record
SF:/mnt/datadrive_m2/self-sensored/src/middleware/request_logger.rs
FN:56,_RNCNvXININtNtCs1yu0zy1SNdm_13self_sensored10middleware14request_loggers_0ppEINtB7_23RequestLoggerMiddlewarepEINtCs9CDcoq7ZrE4_13actix_service7ServiceNtNtCs1IdqjQepwc8_9actix_web7service14ServiceRequestE4call0Bb_
FN:29,_RNvXININtNtCs1yu0zy1SNdm_13self_sensored10middleware14request_logger0ppENtB5_13RequestLoggerINtNtCs9CDcoq7ZrE4_13actix_service9transform9TransformpNtNtCs1IdqjQepwc8_9actix_web7service14ServiceRequestE13new_transformB9_
FN:53,_RNvXININtNtCs1yu0zy1SNdm_13self_sensored10middleware14request_loggers_0ppEINtB5_23RequestLoggerMiddlewarepEINtCs9CDcoq7ZrE4_13actix_service7ServiceNtNtCs1IdqjQepwc8_9actix_web7service14ServiceRequestE4callB9_
FNDA:0,_RNCNvXININtNtCs1yu0zy1SNdm_13self_sensored10middleware14request_loggers_0ppEINtB7_23RequestLoggerMiddlewarepEINtCs9CDcoq7ZrE4_13actix_service7ServiceNtNtCs1IdqjQepwc8_9actix_web7service14ServiceRequestE4call0Bb_
FNDA:0,_RNvXININtNtCs1yu0zy1SNdm_13self_sensored10middleware14request_logger0ppENtB5_13RequestLoggerINtNtCs9CDcoq7ZrE4_13actix_service9transform9TransformpNtNtCs1IdqjQepwc8_9actix_web7service14ServiceRequestE13new_transformB9_
FNDA:0,_RNvXININtNtCs1yu0zy1SNdm_13self_sensored10middleware14request_loggers_0ppEINtB5_23RequestLoggerMiddlewarepEINtCs9CDcoq7ZrE4_13actix_service7ServiceNtNtCs1IdqjQepwc8_9actix_web7service14ServiceRequestE4callB9_
FNF:3
FNH:0
DA:29,0
DA:30,0
DA:31,0
DA:32,0
DA:33,0
DA:53,0
DA:54,0
DA:56,0
DA:58,0
DA:59,0
DA:62,0
DA:63,0
DA:64,0
DA:65,0
DA:69,0
DA:70,0
DA:71,0
DA:72,0
DA:73,0
DA:74,0
DA:78,0
DA:79,0
DA:80,0
DA:83,0
DA:84,0
DA:85,0
BRF:0
BRH:0
LF:27
LH:0
end_of_record
SF:/mnt/datadrive_m2/self-sensored/src/models/background_jobs.rs
FN:94,_RNCNvXs_NtNtCs1yu0zy1SNdm_13self_sensored6models15background_jobsNtB6_17JobStatusResponseINtNtCs1p5UDGgVI4d_4core7convert4FromNtB6_13ProcessingJobE4from0Ba_
FN:48,_RNvMNtNtCs1yu0zy1SNdm_13self_sensored6models15background_jobsNtB2_11JobPriority6as_i32
FN:118,_RNvXs0_NtNtCs1yu0zy1SNdm_13self_sensored6models15background_jobsNtB5_17IngestBatchConfigNtNtCs1p5UDGgVI4d_4core7default7Default7default
FN:87,_RNvXs_NtNtCs1yu0zy1SNdm_13self_sensored6models15background_jobsNtB4_17JobStatusResponseINtNtCs1p5UDGgVI4d_4core7convert4FromNtB4_13ProcessingJobE4from
FNDA:0,_RNCNvXs_NtNtCs1yu0zy1SNdm_13self_sensored6models15background_jobsNtB6_17JobStatusResponseINtNtCs1p5UDGgVI4d_4core7convert4FromNtB6_13ProcessingJobE4from0Ba_
FNDA:0,_RNvMNtNtCs1yu0zy1SNdm_13self_sensored6models15background_jobsNtB2_11JobPriority6as_i32
FNDA:0,_RNvXs0_NtNtCs1yu0zy1SNdm_13self_sensored6models15background_jobsNtB5_17IngestBatchConfigNtNtCs1p5UDGgVI4d_4core7default7Default7default
FNDA:0,_RNvXs_NtNtCs1yu0zy1SNdm_13self_sensored6models15background_jobsNtB4_17JobStatusResponseINtNtCs1p5UDGgVI4d_4core7convert4FromNtB4_13ProcessingJobE4from
FNF:4
FNH:0
DA:48,0
DA:49,0
DA:50,0
DA:87,0
DA:89,0
DA:90,0
DA:91,0
DA:92,0
DA:93,0
DA:94,0
DA:95,0
DA:96,0
DA:97,0
DA:98,0
DA:99,0
DA:100,0
DA:101,0
DA:102,0
DA:103,0
DA:105,0
DA:118,0
DA:119,0
DA:120,0
DA:121,0
DA:122,0
DA:123,0
DA:124,0
DA:125,0
BRF:0
BRH:0
LF:29
LH:0
end_of_record
SF:/mnt/datadrive_m2/self-sensored/src/models/db.rs
FN:134,_RNCNvMNtNtCs1yu0zy1SNdm_13self_sensored6models2dbNtB4_15HeartRateRecord20from_metric_with_raw0B8_
FN:137,_RNCNvMNtNtCs1yu0zy1SNdm_13self_sensored6models2dbNtB4_15HeartRateRecord20from_metric_with_raws0_0B8_
FN:135,_RNCNvMNtNtCs1yu0zy1SNdm_13self_sensored6models2dbNtB4_15HeartRateRecord20from_metric_with_raws_0B8_
FN:168,_RNCNvXs0_NtNtCs1yu0zy1SNdm_13self_sensored6models2dbNtB7_19BloodPressureRecordINtNtCs1p5UDGgVI4d_4core7convert4FromNtNtB9_14health_metrics19BloodPressureMetricE4from0Bb_
FN:150,_RNCNvXs_NtNtCs1yu0zy1SNdm_13self_sensored6models2dbNtB6_15HeartRateRecordINtNtCs1p5UDGgVI4d_4core7convert4FromNtNtB8_14health_metrics15HeartRateMetricE4from0Ba_
FN:153,_RNCNvXs_NtNtCs1yu0zy1SNdm_13self_sensored6models2dbNtB6_15HeartRateRecordINtNtCs1p5UDGgVI4d_4core7convert4FromNtNtB8_14health_metrics15HeartRateMetricE4froms0_0Ba_
FN:151,_RNCNvXs_NtNtCs1yu0zy1SNdm_13self_sensored6models2dbNtB6_15HeartRateRecordINtNtCs1p5UDGgVI4d_4core7convert4FromNtNtB8_14health_metrics15HeartRateMetricE4froms_0Ba_
FN:126,_RNvMNtNtCs1yu0zy1SNdm_13self_sensored6models2dbNtB2_15HeartRateRecord20from_metric_with_raw
FN:176,_RNvMs1_NtNtCs1yu0zy1SNdm_13self_sensored6models2dbNtB5_11SleepRecord20from_metric_with_raw
FN:236,_RNvMs3_NtNtCs1yu0zy1SNdm_13self_sensored6models2dbNtB5_14ActivityRecord14aggregate_with
FN:217,_RNvMs3_NtNtCs1yu0zy1SNdm_13self_sensored6models2dbNtB5_14ActivityRecord20from_metric_with_raw
FN:303,_RNvMs5_NtNtCs1yu0zy1SNdm_13self_sensored6models2dbNtB5_13WorkoutRecord21from_workout_with_raw
FN:161,_RNvXs0_NtNtCs1yu0zy1SNdm_13self_sensored6models2dbNtB5_19BloodPressureRecordINtNtCs1p5UDGgVI4d_4core7convert4FromNtNtB7_14health_metrics19BloodPressureMetricE4from
FN:198,_RNvXs2_NtNtCs1yu0zy1SNdm_13self_sensored6models2dbNtB5_11SleepRecordINtNtCs1p5UDGgVI4d_4core7convert4FromNtNtB7_14health_metrics11SleepMetricE4from
FN:286,_RNvXs4_NtNtCs1yu0zy1SNdm_13self_sensored6models2dbNtB5_14ActivityRecordINtNtCs1p5UDGgVI4d_4core7convert4FromNtNtB7_14health_metrics14ActivityMetricE4from
FN:325,_RNvXs6_NtNtCs1yu0zy1SNdm_13self_sensored6models2dbNtB5_13WorkoutRecordINtNtCs1p5UDGgVI4d_4core7convert4FromNtNtB7_14health_metrics11WorkoutDataE4from
FN:145,_RNvXs_NtNtCs1yu0zy1SNdm_13self_sensored6models2dbNtB4_15HeartRateRecordINtNtCs1p5UDGgVI4d_4core7convert4FromNtNtB6_14health_metrics15HeartRateMetricE4from
FNDA:0,_RNCNvMNtNtCs1yu0zy1SNdm_13self_sensored6models2dbNtB4_15HeartRateRecord20from_metric_with_raw0B8_
FNDA:0,_RNCNvMNtNtCs1yu0zy1SNdm_13self_sensored6models2dbNtB4_15HeartRateRecord20from_metric_with_raws0_0B8_
FNDA:0,_RNCNvMNtNtCs1yu0zy1SNdm_13self_sensored6models2dbNtB4_15HeartRateRecord20from_metric_with_raws_0B8_
FNDA:0,_RNCNvXs0_NtNtCs1yu0zy1SNdm_13self_sensored6models2dbNtB7_19BloodPressureRecordINtNtCs1p5UDGgVI4d_4core7convert4FromNtNtB9_14health_metrics19BloodPressureMetricE4from0Bb_
FNDA:0,_RNCNvXs_NtNtCs1yu0zy1SNdm_13self_sensored6models2dbNtB6_15HeartRateRecordINtNtCs1p5UDGgVI4d_4core7convert4FromNtNtB8_14health_metrics15HeartRateMetricE4from0Ba_
FNDA:0,_RNCNvXs_NtNtCs1yu0zy1SNdm_13self_sensored6models2dbNtB6_15HeartRateRecordINtNtCs1p5UDGgVI4d_4core7convert4FromNtNtB8_14health_metrics15HeartRateMetricE4froms0_0Ba_
FNDA:0,_RNCNvXs_NtNtCs1yu0zy1SNdm_13self_sensored6models2dbNtB6_15HeartRateRecordINtNtCs1p5UDGgVI4d_4core7convert4FromNtNtB8_14health_metrics15HeartRateMetricE4froms_0Ba_
FNDA:0,_RNvMNtNtCs1yu0zy1SNdm_13self_sensored6models2dbNtB2_15HeartRateRecord20from_metric_with_raw
FNDA:0,_RNvMs1_NtNtCs1yu0zy1SNdm_13self_sensored6models2dbNtB5_11SleepRecord20from_metric_with_raw
FNDA:0,_RNvMs3_NtNtCs1yu0zy1SNdm_13self_sensored6models2dbNtB5_14ActivityRecord14aggregate_with
FNDA:0,_RNvMs3_NtNtCs1yu0zy1SNdm_13self_sensored6models2dbNtB5_14ActivityRecord20from_metric_with_raw
FNDA:0,_RNvMs5_NtNtCs1yu0zy1SNdm_13self_sensored6models2dbNtB5_13WorkoutRecord21from_workout_with_raw
FNDA:0,_RNvXs0_NtNtCs1yu0zy1SNdm_13self_sensored6models2dbNtB5_19BloodPressureRecordINtNtCs1p5UDGgVI4d_4core7convert4FromNtNtB7_14health_metrics19BloodPressureMetricE4from
FNDA:0,_RNvXs2_NtNtCs1yu0zy1SNdm_13self_sensored6models2dbNtB5_11SleepRecordINtNtCs1p5UDGgVI4d_4core7convert4FromNtNtB7_14health_metrics11SleepMetricE4from
FNDA:0,_RNvXs4_NtNtCs1yu0zy1SNdm_13self_sensored6models2dbNtB5_14ActivityRecordINtNtCs1p5UDGgVI4d_4core7convert4FromNtNtB7_14health_metrics14ActivityMetricE4from
FNDA:0,_RNvXs6_NtNtCs1yu0zy1SNdm_13self_sensored6models2dbNtB5_13WorkoutRecordINtNtCs1p5UDGgVI4d_4core7convert4FromNtNtB7_14health_metrics11WorkoutDataE4from
FNDA:0,_RNvXs_NtNtCs1yu0zy1SNdm_13self_sensored6models2dbNtB4_15HeartRateRecordINtNtCs1p5UDGgVI4d_4core7convert4FromNtNtB6_14health_metrics15HeartRateMetricE4from
FNF:17
FNH:0
DA:126,0
DA:127,0
DA:128,0
DA:129,0
DA:131,0
DA:132,0
DA:133,0
DA:134,0
DA:135,0
DA:136,0
DA:137,0
DA:138,0
DA:139,0
DA:141,0
DA:145,0
DA:147,0
DA:148,0
DA:149,0
DA:150,0
DA:151,0
DA:152,0
DA:153,0
DA:154,0
DA:155,0
DA:157,0
DA:161,0
DA:163,0
DA:164,0
DA:165,0
DA:166,0
DA:167,0
DA:168,0
DA:169,0
DA:170,0
DA:172,0
DA:176,0
DA:177,0
DA:178,0
DA:179,0
DA:180,0
DA:181,0
DA:182,0
DA:183,0
DA:184,0
DA:185,0
DA:186,0
DA:187,0
DA:188,0
DA:189,0
DA:190,0
DA:191,0
DA:192,0
DA:193,0
DA:194,0
DA:198,0
DA:199,0
DA:200,0
DA:201,0
DA:202,0
DA:203,0
DA:204,0
DA:205,0
DA:206,0
DA:207,0
DA:208,0
DA:209,0
DA:210,0
DA:211,0
DA:212,0
DA:213,0
DA:217,0
DA:218,0
DA:219,0
DA:220,0
DA:221,0
DA:222,0
DA:223,0
DA:224,0
DA:225,0
DA:226,0
DA:227,0
DA:228,0
DA:229,0
DA:230,0
DA:231,0
DA:232,0
DA:233,0
DA:236,0
DA:237,0
DA:238,0
DA:239,0
DA:240,0
DA:241,0
DA:244,0
DA:245,0
DA:246,0
DA:247,0
DA:248,0
DA:252,0
DA:253,0
DA:255,0
DA:256,0
DA:257,0
DA:258,0
DA:262,0
DA:263,0
DA:265,0
DA:266,0
DA:267,0
DA:268,0
DA:271,0
DA:272,0
DA:273,0
DA:274,0
DA:275,0
DA:279,0
DA:280,0
DA:281,0
DA:282,0
DA:286,0
DA:287,0
DA:288,0
DA:289,0
DA:290,0
DA:291,0
DA:292,0
DA:293,0
DA:294,0
DA:295,0
DA:296,0
DA:297,0
DA:298,0
DA:299,0
DA:303,0
DA:304,0
DA:305,0
DA:306,0
DA:307,0
DA:308,0
DA:309,0
DA:310,0
DA:311,0
DA:312,0
DA:313,0
DA:314,0
DA:315,0
DA:316,0
DA:317,0
DA:318,0
DA:319,0
DA:320,0
DA:321,0
DA:325,0
DA:326,0
DA:327,0
DA:328,0
DA:329,0
DA:330,0
DA:331,0
DA:332,0
DA:333,0
DA:334,0
DA:335,0
DA:336,0
DA:337,0
DA:338,0
DA:339,0
DA:340,0
BRF:0
BRH:0
LF:175
LH:0
end_of_record
SF:/mnt/datadrive_m2/self-sensored/src/models/enums.rs
FN:1846,_RNCNvMsw_NtNtCs1yu0zy1SNdm_13self_sensored6models5enumsNtB7_18HeartRateEventType17get_threshold_bpm0Bb_
FN:25,_RNvMNtNtCs1yu0zy1SNdm_13self_sensored6models5enumsNtB2_15ActivityContext15from_ios_string
FN:174,_RNvMs0_NtNtCs1yu0zy1SNdm_13self_sensored6models5enumsNtB5_11WorkoutType15from_ios_string
FN:277,_RNvMs0_NtNtCs1yu0zy1SNdm_13self_sensored6models5enumsNtB5_11WorkoutType8category
FN:489,_RNvMs2_NtNtCs1yu0zy1SNdm_13self_sensored6models5enumsNtB5_9JobStatus6as_str
FN:510,_RNvMs3_NtNtCs1yu0zy1SNdm_13self_sensored6models5enumsNtB5_7JobType6as_str
FN:548,_RNvMs4_NtNtCs1yu0zy1SNdm_13self_sensored6models5enumsNtB5_13MenstrualFlow13privacy_level
FN:536,_RNvMs4_NtNtCs1yu0zy1SNdm_13self_sensored6models5enumsNtB5_13MenstrualFlow15from_ios_string
FN:582,_RNvMs6_NtNtCs1yu0zy1SNdm_13self_sensored6models5enumsNtB5_20CervicalMucusQuality15from_ios_string
FN:594,_RNvMs6_NtNtCs1yu0zy1SNdm_13self_sensored6models5enumsNtB5_20CervicalMucusQuality19fertility_indicator
FN:643,_RNvMs8_NtNtCs1yu0zy1SNdm_13self_sensored6models5enumsNtB5_19OvulationTestResult15fertility_score
FN:631,_RNvMs8_NtNtCs1yu0zy1SNdm_13self_sensored6models5enumsNtB5_19OvulationTestResult15from_ios_string
FN:690,_RNvMsa_NtNtCs1yu0zy1SNdm_13self_sensored6models5enumsNtB5_19PregnancyTestResult13privacy_level
FN:679,_RNvMsa_NtNtCs1yu0zy1SNdm_13self_sensored6models5enumsNtB5_19PregnancyTestResult15from_ios_string
FN:698,_RNvMsa_NtNtCs1yu0zy1SNdm_13self_sensored6models5enumsNtB5_19PregnancyTestResult23requires_enhanced_audit
FN:728,_RNvMsc_NtNtCs1yu0zy1SNdm_13self_sensored6models5enumsNtB5_18TemperatureContext15from_ios_string
FN:740,_RNvMsc_NtNtCs1yu0zy1SNdm_13self_sensored6models5enumsNtB5_18TemperatureContext21is_fertility_relevant
FN:775,_RNvMse_NtNtCs1yu0zy1SNdm_13self_sensored6models5enumsNtB5_14MeditationType15from_ios_string
FN:835,_RNvMsg_NtNtCs1yu0zy1SNdm_13self_sensored6models5enumsNtB5_11StateOfMind10to_valence
FN:823,_RNvMsg_NtNtCs1yu0zy1SNdm_13self_sensored6models5enumsNtB5_11StateOfMind12from_valence
FN:847,_RNvMsg_NtNtCs1yu0zy1SNdm_13self_sensored6models5enumsNtB5_11StateOfMind15from_ios_string
FN:1177,_RNvMsi_NtNtCs1yu0zy1SNdm_13self_sensored6models5enumsNtB5_11SymptomType11is_critical
FN:1096,_RNvMsi_NtNtCs1yu0zy1SNdm_13self_sensored6models5enumsNtB5_11SymptomType12get_category
FN:975,_RNvMsi_NtNtCs1yu0zy1SNdm_13self_sensored6models5enumsNtB5_11SymptomType15from_ios_string
FN:1324,_RNvMsk_NtNtCs1yu0zy1SNdm_13self_sensored6models5enumsNtB5_15SymptomSeverity11is_critical
FN:1296,_RNvMsk_NtNtCs1yu0zy1SNdm_13self_sensored6models5enumsNtB5_15SymptomSeverity15from_ios_string
FN:1308,_RNvMsk_NtNtCs1yu0zy1SNdm_13self_sensored6models5enumsNtB5_15SymptomSeverity16to_numeric_score
FN:1284,_RNvMsk_NtNtCs1yu0zy1SNdm_13self_sensored6models5enumsNtB5_15SymptomSeverity19from_severity_score
FN:1319,_RNvMsk_NtNtCs1yu0zy1SNdm_13self_sensored6models5enumsNtB5_15SymptomSeverity26requires_medical_attention
FN:1441,_RNvMso_NtNtCs1yu0zy1SNdm_13self_sensored6models5enumsNtB5_9BloodType17to_medical_string
FN:1456,_RNvMso_NtNtCs1yu0zy1SNdm_13self_sensored6models5enumsNtB5_9BloodType21get_compatible_donors
FN:1753,_RNvMsu_NtNtCs1yu0zy1SNdm_13self_sensored6models5enumsNtB5_16HygieneEventType12get_category
FN:1693,_RNvMsu_NtNtCs1yu0zy1SNdm_13self_sensored6models5enumsNtB5_16HygieneEventType15from_ios_string
FN:1781,_RNvMsu_NtNtCs1yu0zy1SNdm_13self_sensored6models5enumsNtB5_16HygieneEventType22get_smart_device_types
FN:1721,_RNvMsu_NtNtCs1yu0zy1SNdm_13self_sensored6models5enumsNtB5_16HygieneEventType24get_recommended_duration
FN:1737,_RNvMsu_NtNtCs1yu0zy1SNdm_13self_sensored6models5enumsNtB5_16HygieneEventType31get_recommended_daily_frequency
FN:1769,_RNvMsu_NtNtCs1yu0zy1SNdm_13self_sensored6models5enumsNtB5_16HygieneEventType31supports_public_health_tracking
FN:1764,_RNvMsu_NtNtCs1yu0zy1SNdm_13self_sensored6models5enumsNtB5_16HygieneEventType36is_critical_for_infection_prevention
FN:1842,_RNvMsw_NtNtCs1yu0zy1SNdm_13self_sensored6models5enumsNtB5_18HeartRateEventType17get_threshold_bpm
FN:1859,_RNvMsw_NtNtCs1yu0zy1SNdm_13self_sensored6models5enumsNtB5_18HeartRateEventType20get_default_severity
FN:1872,_RNvMsw_NtNtCs1yu0zy1SNdm_13self_sensored6models5enumsNtB5_18HeartRateEventType23get_medical_description
FN:1916,_RNvMsy_NtNtCs1yu0zy1SNdm_13self_sensored6models5enumsNtB5_20CardiacEventSeverity22get_recommended_action
FN:1926,_RNvMsy_NtNtCs1yu0zy1SNdm_13self_sensored6models5enumsNtB5_20CardiacEventSeverity24get_monitoring_frequency
FN:1936,_RNvMsy_NtNtCs1yu0zy1SNdm_13self_sensored6models5enumsNtB5_20CardiacEventSeverity31requires_immediate_notification
FN:383,_RNvXs1_NtNtCs1yu0zy1SNdm_13self_sensored6models5enumsNtB5_11WorkoutTypeNtNtCs1p5UDGgVI4d_4core3fmt7Display3fmt
FN:557,_RNvXs5_NtNtCs1yu0zy1SNdm_13self_sensored6models5enumsNtB5_13MenstrualFlowNtNtCs1p5UDGgVI4d_4core3fmt7Display3fmt
FN:606,_RNvXs7_NtNtCs1yu0zy1SNdm_13self_sensored6models5enumsNtB5_20CervicalMucusQualityNtNtCs1p5UDGgVI4d_4core3fmt7Display3fmt
FN:655,_RNvXs9_NtNtCs1yu0zy1SNdm_13self_sensored6models5enumsNtB5_19OvulationTestResultNtNtCs1p5UDGgVI4d_4core3fmt7Display3fmt
FN:44,_RNvXs_NtNtCs1yu0zy1SNdm_13self_sensored6models5enumsNtB4_15ActivityContextNtNtCs1p5UDGgVI4d_4core3fmt7Display3fmt
FN:704,_RNvXsb_NtNtCs1yu0zy1SNdm_13self_sensored6models5enumsNtB5_19PregnancyTestResultNtNtCs1p5UDGgVI4d_4core3fmt7Display3fmt
FN:746,_RNvXsd_NtNtCs1yu0zy1SNdm_13self_sensored6models5enumsNtB5_18TemperatureContextNtNtCs1p5UDGgVI4d_4core3fmt7Display3fmt
FN:792,_RNvXsf_NtNtCs1yu0zy1SNdm_13self_sensored6models5enumsNtB5_14MeditationTypeNtNtCs1p5UDGgVI4d_4core3fmt7Display3fmt
FN:862,_RNvXsh_NtNtCs1yu0zy1SNdm_13self_sensored6models5enumsNtB5_11StateOfMindNtNtCs1p5UDGgVI4d_4core3fmt7Display3fmt
FN:1192,_RNvXsj_NtNtCs1yu0zy1SNdm_13self_sensored6models5enumsNtB5_11SymptomTypeNtNtCs1p5UDGgVI4d_4core3fmt7Display3fmt
FN:1330,_RNvXsl_NtNtCs1yu0zy1SNdm_13self_sensored6models5enumsNtB5_15SymptomSeverityNtNtCs1p5UDGgVI4d_4core3fmt7Display3fmt
FN:1384,_RNvXsn_NtNtCs1yu0zy1SNdm_13self_sensored6models5enumsNtB5_13BiologicalSexNtNtCs1p5UDGgVI4d_4core3fmt7Display3fmt
FN:1501,_RNvXsp_NtNtCs1yu0zy1SNdm_13self_sensored6models5enumsNtB5_9BloodTypeNtNtCs1p5UDGgVI4d_4core3fmt7Display3fmt
FN:1594,_RNvXsr_NtNtCs1yu0zy1SNdm_13self_sensored6models5enumsNtB5_19FitzpatrickSkinTypeNtNtCs1p5UDGgVI4d_4core3fmt7Display3fmt
FN:1660,_RNvXst_NtNtCs1yu0zy1SNdm_13self_sensored6models5enumsNtB5_16ActivityMoveModeNtNtCs1p5UDGgVI4d_4core3fmt7Display3fmt
FN:1806,_RNvXsv_NtNtCs1yu0zy1SNdm_13self_sensored6models5enumsNtB5_16HygieneEventTypeNtNtCs1p5UDGgVI4d_4core3fmt7Display3fmt
FN:1886,_RNvXsx_NtNtCs1yu0zy1SNdm_13self_sensored6models5enumsNtB5_18HeartRateEventTypeNtNtCs1p5UDGgVI4d_4core3fmt7Display3fmt
FN:1942,_RNvXsz_NtNtCs1yu0zy1SNdm_13self_sensored6models5enumsNtB5_20CardiacEventSeverityNtNtCs1p5UDGgVI4d_4core3fmt7Display3fmt
FN:1360,_RNvMsm_NtNtCs1yu0zy1SNdm_13self_sensored6models5enumsNtB5_13BiologicalSex15from_ios_string
FN:1369,_RNvMsm_NtNtCs1yu0zy1SNdm_13self_sensored6models5enumsNtB5_13BiologicalSex25get_heart_rate_adjustment
FN:1378,_RNvMsm_NtNtCs1yu0zy1SNdm_13self_sensored6models5enumsNtB5_13BiologicalSex6is_set
FN:1420,_RNvMso_NtNtCs1yu0zy1SNdm_13self_sensored6models5enumsNtB5_9BloodType15from_ios_string
FN:1495,_RNvMso_NtNtCs1yu0zy1SNdm_13self_sensored6models5enumsNtB5_9BloodType6is_set
FN:1539,_RNvMsq_NtNtCs1yu0zy1SNdm_13self_sensored6models5enumsNtB5_19FitzpatrickSkinType15from_ios_string
FN:1575,_RNvMsq_NtNtCs1yu0zy1SNdm_13self_sensored6models5enumsNtB5_19FitzpatrickSkinType15get_description
FN:1552,_RNvMsq_NtNtCs1yu0zy1SNdm_13self_sensored6models5enumsNtB5_19FitzpatrickSkinType19get_recommended_spf
FN:1562,_RNvMsq_NtNtCs1yu0zy1SNdm_13self_sensored6models5enumsNtB5_19FitzpatrickSkinType21get_burn_time_minutes
FN:1588,_RNvMsq_NtNtCs1yu0zy1SNdm_13self_sensored6models5enumsNtB5_19FitzpatrickSkinType6is_set
FN:1622,_RNvMss_NtNtCs1yu0zy1SNdm_13self_sensored6models5enumsNtB5_16ActivityMoveMode15from_ios_string
FN:1640,_RNvMss_NtNtCs1yu0zy1SNdm_13self_sensored6models5enumsNtB5_16ActivityMoveMode15get_unit_string
FN:1649,_RNvMss_NtNtCs1yu0zy1SNdm_13self_sensored6models5enumsNtB5_16ActivityMoveMode21is_accessibility_mode
FN:1631,_RNvMss_NtNtCs1yu0zy1SNdm_13self_sensored6models5enumsNtB5_16ActivityMoveMode22get_default_daily_goal
FN:1654,_RNvMss_NtNtCs1yu0zy1SNdm_13self_sensored6models5enumsNtB5_16ActivityMoveMode6is_set
FNDA:0,_RNCNvMsw_NtNtCs1yu0zy1SNdm_13self_sensored6models5enumsNtB7_18HeartRateEventType17get_threshold_bpm0Bb_
FNDA:0,_RNvMNtNtCs1yu0zy1SNdm_13self_sensored6models5enumsNtB2_15ActivityContext15from_ios_string
FNDA:0,_RNvMs0_NtNtCs1yu0zy1SNdm_13self_sensored6models5enumsNtB5_11WorkoutType15from_ios_string
FNDA:0,_RNvMs0_NtNtCs1yu0zy1SNdm_13self_sensored6models5enumsNtB5_11WorkoutType8category
FNDA:0,_RNvMs2_NtNtCs1yu0zy1SNdm_13self_sensored6models5enumsNtB5_9JobStatus6as_str
FNDA:0,_RNvMs3_NtNtCs1yu0zy1SNdm_13self_sensored6models5enumsNtB5_7JobType6as_str
FNDA:0,_RNvMs4_NtNtCs1yu0zy1SNdm_13self_sensored6models5enumsNtB5_13MenstrualFlow13privacy_level
FNDA:0,_RNvMs4_NtNtCs1yu0zy1SNdm_13self_sensored6models5enumsNtB5_13MenstrualFlow15from_ios_string
FNDA:0,_RNvMs6_NtNtCs1yu0zy1SNdm_13self_sensored6models5enumsNtB5_20CervicalMucusQuality15from_ios_string
FNDA:0,_RNvMs6_NtNtCs1yu0zy1SNdm_13self_sensored6models5enumsNtB5_20CervicalMucusQuality19fertility_indicator
FNDA:0,_RNvMs8_NtNtCs1yu0zy1SNdm_13self_sensored6models5enumsNtB5_19OvulationTestResult15fertility_score
FNDA:0,_RNvMs8_NtNtCs1yu0zy1SNdm_13self_sensored6models5enumsNtB5_19OvulationTestResult15from_ios_string
FNDA:0,_RNvMsa_NtNtCs1yu0zy1SNdm_13self_sensored6models5enumsNtB5_19PregnancyTestResult13privacy_level
FNDA:0,_RNvMsa_NtNtCs1yu0zy1SNdm_13self_sensored6models5enumsNtB5_19PregnancyTestResult15from_ios_string
FNDA:0,_RNvMsa_NtNtCs1yu0zy1SNdm_13self_sensored6models5enumsNtB5_19PregnancyTestResult23requires_enhanced_audit
FNDA:0,_RNvMsc_NtNtCs1yu0zy1SNdm_13self_sensored6models5enumsNtB5_18TemperatureContext15from_ios_string
FNDA:0,_RNvMsc_NtNtCs1yu0zy1SNdm_13self_sensored6models5enumsNtB5_18TemperatureContext21is_fertility_relevant
FNDA:0,_RNvMse_NtNtCs1yu0zy1SNdm_13self_sensored6models5enumsNtB5_14MeditationType15from_ios_string
FNDA:0,_RNvMsg_NtNtCs1yu0zy1SNdm_13self_sensored6models5enumsNtB5_11StateOfMind10to_valence
FNDA:0,_RNvMsg_NtNtCs1yu0zy1SNdm_13self_sensored6models5enumsNtB5_11StateOfMind12from_valence
FNDA:0,_RNvMsg_NtNtCs1yu0zy1SNdm_13self_sensored6models5enumsNtB5_11StateOfMind15from_ios_string
FNDA:0,_RNvMsi_NtNtCs1yu0zy1SNdm_13self_sensored6models5enumsNtB5_11SymptomType11is_critical
FNDA:0,_RNvMsi_NtNtCs1yu0zy1SNdm_13self_sensored6models5enumsNtB5_11SymptomType12get_category
FNDA:0,_RNvMsi_NtNtCs1yu0zy1SNdm_13self_sensored6models5enumsNtB5_11SymptomType15from_ios_string
FNDA:0,_RNvMsk_NtNtCs1yu0zy1SNdm_13self_sensored6models5enumsNtB5_15SymptomSeverity11is_critical
FNDA:0,_RNvMsk_NtNtCs1yu0zy1SNdm_13self_sensored6models5enumsNtB5_15SymptomSeverity15from_ios_string
FNDA:0,_RNvMsk_NtNtCs1yu0zy1SNdm_13self_sensored6models5enumsNtB5_15SymptomSeverity16to_numeric_score
FNDA:0,_RNvMsk_NtNtCs1yu0zy1SNdm_13self_sensored6models5enumsNtB5_15SymptomSeverity19from_severity_score
FNDA:0,_RNvMsk_NtNtCs1yu0zy1SNdm_13self_sensored6models5enumsNtB5_15SymptomSeverity26requires_medical_attention
FNDA:0,_RNvMso_NtNtCs1yu0zy1SNdm_13self_sensored6models5enumsNtB5_9BloodType17to_medical_string
FNDA:0,_RNvMso_NtNtCs1yu0zy1SNdm_13self_sensored6models5enumsNtB5_9BloodType21get_compatible_donors
FNDA:0,_RNvMsu_NtNtCs1yu0zy1SNdm_13self_sensored6models5enumsNtB5_16HygieneEventType12get_category
FNDA:0,_RNvMsu_NtNtCs1yu0zy1SNdm_13self_sensored6models5enumsNtB5_16HygieneEventType15from_ios_string
FNDA:0,_RNvMsu_NtNtCs1yu0zy1SNdm_13self_sensored6models5enumsNtB5_16HygieneEventType22get_smart_device_types
FNDA:0,_RNvMsu_NtNtCs1yu0zy1SNdm_13self_sensored6models5enumsNtB5_16HygieneEventType24get_recommended_duration
FNDA:0,_RNvMsu_NtNtCs1yu0zy1SNdm_13self_sensored6models5enumsNtB5_16HygieneEventType31get_recommended_daily_frequency
FNDA:0,_RNvMsu_NtNtCs1yu0zy1SNdm_13self_sensored6models5enumsNtB5_16HygieneEventType31supports_public_health_tracking
FNDA:0,_RNvMsu_NtNtCs1yu0zy1SNdm_13self_sensored6models5enumsNtB5_16HygieneEventType36is_critical_for_infection_prevention
FNDA:0,_RNvMsw_NtNtCs1yu0zy1SNdm_13self_sensored6models5enumsNtB5_18HeartRateEventType17get_threshold_bpm
FNDA:0,_RNvMsw_NtNtCs1yu0zy1SNdm_13self_sensored6models5enumsNtB5_18HeartRateEventType20get_default_severity
FNDA:0,_RNvMsw_NtNtCs1yu0zy1SNdm_13self_sensored6models5enumsNtB5_18HeartRateEventType23get_medical_description
FNDA:0,_RNvMsy_NtNtCs1yu0zy1SNdm_13self_sensored6models5enumsNtB5_20CardiacEventSeverity22get_recommended_action
FNDA:0,_RNvMsy_NtNtCs1yu0zy1SNdm_13self_sensored6models5enumsNtB5_20CardiacEventSeverity24get_monitoring_frequency
FNDA:0,_RNvMsy_NtNtCs1yu0zy1SNdm_13self_sensored6models5enumsNtB5_20CardiacEventSeverity31requires_immediate_notification
FNDA:0,_RNvXs1_NtNtCs1yu0zy1SNdm_13self_sensored6models5enumsNtB5_11WorkoutTypeNtNtCs1p5UDGgVI4d_4core3fmt7Display3fmt
FNDA:0,_RNvXs5_NtNtCs1yu0zy1SNdm_13self_sensored6models5enumsNtB5_13MenstrualFlowNtNtCs1p5UDGgVI4d_4core3fmt7Display3fmt
FNDA:0,_RNvXs7_NtNtCs1yu0zy1SNdm_13self_sensored6models5enumsNtB5_20CervicalMucusQualityNtNtCs1p5UDGgVI4d_4core3fmt7Display3fmt
FNDA:0,_RNvXs9_NtNtCs1yu0zy1SNdm_13self_sensored6models5enumsNtB5_19OvulationTestResultNtNtCs1p5UDGgVI4d_4core3fmt7Display3fmt
FNDA:0,_RNvXs_NtNtCs1yu0zy1SNdm_13self_sensored6models5enumsNtB4_15ActivityContextNtNtCs1p5UDGgVI4d_4core3fmt7Display3fmt
FNDA:0,_RNvXsb_NtNtCs1yu0zy1SNdm_13self_sensored6models5enumsNtB5_19PregnancyTestResultNtNtCs1p5UDGgVI4d_4core3fmt7Display3fmt
FNDA:0,_RNvXsd_NtNtCs1yu0zy1SNdm_13self_sensored6models5enumsNtB5_18TemperatureContextNtNtCs1p5UDGgVI4d_4core3fmt7Display3fmt
FNDA:0,_RNvXsf_NtNtCs1yu0zy1SNdm_13self_sensored6models5enumsNtB5_14MeditationTypeNtNtCs1p5UDGgVI4d_4core3fmt7Display3fmt
FNDA:0,_RNvXsh_NtNtCs1yu0zy1SNdm_13self_sensored6models5enumsNtB5_11StateOfMindNtNtCs1p5UDGgVI4d_4core3fmt7Display3fmt
FNDA:0,_RNvXsj_NtNtCs1yu0zy1SNdm_13self_sensored6models5enumsNtB5_11SymptomTypeNtNtCs1p5UDGgVI4d_4core3fmt7Display3fmt
FNDA:0,_RNvXsl_NtNtCs1yu0zy1SNdm_13self_sensored6models5enumsNtB5_15SymptomSeverityNtNtCs1p5UDGgVI4d_4core3fmt7Display3fmt
FNDA:0,_RNvXsn_NtNtCs1yu0zy1SNdm_13self_sensored6models5enumsNtB5_13BiologicalSexNtNtCs1p5UDGgVI4d_4core3fmt7Display3fmt
FNDA:0,_RNvXsp_NtNtCs1yu0zy1SNdm_13self_sensored6models5enumsNtB5_9BloodTypeNtNtCs1p5UDGgVI4d_4core3fmt7Display3fmt
FNDA:0,_RNvXsr_NtNtCs1yu0zy1SNdm_13self_sensored6models5enumsNtB5_19FitzpatrickSkinTypeNtNtCs1p5UDGgVI4d_4core3fmt7Display3fmt
FNDA:0,_RNvXst_NtNtCs1yu0zy1SNdm_13self_sensored6models5enumsNtB5_16ActivityMoveModeNtNtCs1p5UDGgVI4d_4core3fmt7Display3fmt
FNDA:0,_RNvXsv_NtNtCs1yu0zy1SNdm_13self_sensored6models5enumsNtB5_16HygieneEventTypeNtNtCs1p5UDGgVI4d_4core3fmt7Display3fmt
FNDA:0,_RNvXsx_NtNtCs1yu0zy1SNdm_13self_sensored6models5enumsNtB5_18HeartRateEventTypeNtNtCs1p5UDGgVI4d_4core3fmt7Display3fmt
FNDA:0,_RNvXsz_NtNtCs1yu0zy1SNdm_13self_sensored6models5enumsNtB5_20CardiacEventSeverityNtNtCs1p5UDGgVI4d_4core3fmt7Display3fmt
FNDA:1,_RNvMsm_NtNtCs1yu0zy1SNdm_13self_sensored6models5enumsNtB5_13BiologicalSex15from_ios_string
FNDA:2,_RNvMsm_NtNtCs1yu0zy1SNdm_13self_sensored6models5enumsNtB5_13BiologicalSex25get_heart_rate_adjustment
FNDA:5,_RNvMsm_NtNtCs1yu0zy1SNdm_13self_sensored6models5enumsNtB5_13BiologicalSex6is_set
FNDA:1,_RNvMso_NtNtCs1yu0zy1SNdm_13self_sensored6models5enumsNtB5_9BloodType15from_ios_string
FNDA:3,_RNvMso_NtNtCs1yu0zy1SNdm_13self_sensored6models5enumsNtB5_9BloodType6is_set
FNDA:1,_RNvMsq_NtNtCs1yu0zy1SNdm_13self_sensored6models5enumsNtB5_19FitzpatrickSkinType15from_ios_string
FNDA:1,_RNvMsq_NtNtCs1yu0zy1SNdm_13self_sensored6models5enumsNtB5_19FitzpatrickSkinType15get_description
FNDA:1,_RNvMsq_NtNtCs1yu0zy1SNdm_13self_sensored6models5enumsNtB5_19FitzpatrickSkinType19get_recommended_spf
FNDA:1,_RNvMsq_NtNtCs1yu0zy1SNdm_13self_sensored6models5enumsNtB5_19FitzpatrickSkinType21get_burn_time_minutes
FNDA:5,_RNvMsq_NtNtCs1yu0zy1SNdm_13self_sensored6models5enumsNtB5_19FitzpatrickSkinType6is_set
FNDA:1,_RNvMss_NtNtCs1yu0zy1SNdm_13self_sensored6models5enumsNtB5_16ActivityMoveMode15from_ios_string
FNDA:1,_RNvMss_NtNtCs1yu0zy1SNdm_13self_sensored6models5enumsNtB5_16ActivityMoveMode15get_unit_string
FNDA:1,_RNvMss_NtNtCs1yu0zy1SNdm_13self_sensored6models5enumsNtB5_16ActivityMoveMode21is_accessibility_mode
FNDA:1,_RNvMss_NtNtCs1yu0zy1SNdm_13self_sensored6models5enumsNtB5_16ActivityMoveMode22get_default_daily_goal
FNDA:4,_RNvMss_NtNtCs1yu0zy1SNdm_13self_sensored6models5enumsNtB5_16ActivityMoveMode6is_set
FNF:77
FNH:15
DA:25,0
DA:26,0
DA:27,0
DA:28,0
DA:29,0
DA:30,0
DA:31,0
DA:32,0
DA:33,0
DA:34,0
DA:35,0
DA:36,0
DA:37,0
DA:38,0
DA:40,0
DA:44,0
DA:45,0
DA:46,0
DA:47,0
DA:48,0
DA:49,0
DA:50,0
DA:51,0
DA:52,0
DA:53,0
DA:54,0
DA:55,0
DA:56,0
DA:58,0
DA:59,0
DA:174,0
DA:175,0
DA:177,0
DA:178,0
DA:179,0
DA:180,0
DA:182,0
DA:183,0
DA:184,0
DA:185,0
DA:186,0
DA:187,0
DA:188,0
DA:189,0
DA:190,0
DA:191,0
DA:192,0
DA:193,0
DA:194,0
DA:195,0
DA:196,0
DA:197,0
DA:198,0
DA:200,0
DA:201,0
DA:202,0
DA:203,0
DA:204,0
DA:205,0
DA:206,0
DA:207,0
DA:208,0
DA:209,0
DA:210,0
DA:212,0
DA:213,0
DA:214,0
DA:215,0
DA:217,0
DA:218,0
DA:219,0
DA:220,0
DA:221,0
DA:222,0
DA:223,0
DA:224,0
DA:225,0
DA:226,0
DA:227,0
DA:228,0
DA:229,0
DA:230,0
DA:231,0
DA:232,0
DA:233,0
DA:234,0
DA:236,0
DA:237,0
DA:238,0
DA:239,0
DA:240,0
DA:241,0
DA:242,0
DA:245,0
DA:246,0
DA:247,0
DA:248,0
DA:249,0
DA:250,0
DA:251,0
DA:252,0
DA:253,0
DA:254,0
DA:255,0
DA:256,0
DA:257,0
DA:258,0
DA:261,0
DA:262,0
DA:263,0
DA:266,0
DA:267,0
DA:270,0
DA:271,0
DA:272,0
DA:274,0
DA:277,0
DA:278,0
DA:289,0
DA:294,0
DA:308,0
DA:323,0
DA:335,0
DA:343,0
DA:347,0
DA:352,0
DA:357,0
DA:366,0
DA:377,0
DA:379,0
DA:383,0
DA:384,0
DA:386,0
DA:387,0
DA:388,0
DA:389,0
DA:390,0
DA:391,0
DA:392,0
DA:393,0
DA:394,0
DA:395,0
DA:396,0
DA:397,0
DA:398,0
DA:399,0
DA:400,0
DA:401,0
DA:402,0
DA:403,0
DA:404,0
DA:405,0
DA:406,0
DA:407,0
DA:408,0
DA:409,0
DA:410,0
DA:411,0
DA:412,0
DA:413,0
DA:414,0
DA:415,0
DA:416,0
DA:417,0
DA:418,0
DA:419,0
DA:420,0
DA:421,0
DA:422,0
DA:423,0
DA:424,0
DA:425,0
DA:426,0
DA:427,0
DA:428,0
DA:429,0
DA:430,0
DA:431,0
DA:432,0
DA:433,0
DA:434,0
DA:435,0
DA:436,0
DA:437,0
DA:438,0
DA:439,0
DA:440,0
DA:441,0
DA:444,0
DA:445,0
DA:446,0
DA:447,0
DA:448,0
DA:449,0
DA:450,0
DA:451,0
DA:452,0
DA:453,0
DA:454,0
DA:455,0
DA:456,0
DA:457,0
DA:460,0
DA:461,0
DA:462,0
DA:465,0
DA:466,0
DA:469,0
DA:470,0
DA:471,0
DA:473,0
DA:474,0
DA:489,0
DA:490,0
DA:491,0
DA:492,0
DA:493,0
DA:494,0
DA:496,0
DA:510,0
DA:511,0
DA:512,0
DA:513,0
DA:514,0
DA:516,0
DA:536,0
DA:537,0
DA:538,0
DA:539,0
DA:540,0
DA:541,0
DA:542,0
DA:543,0
DA:545,0
DA:548,0
DA:549,0
DA:550,0
DA:551,0
DA:553,0
DA:557,0
DA:558,0
DA:559,0
DA:560,0
DA:561,0
DA:562,0
DA:563,0
DA:565,0
DA:566,0
DA:582,0
DA:583,0
DA:584,0
DA:585,0
DA:586,0
DA:587,0
DA:588,0
DA:589,0
DA:591,0
DA:594,0
DA:595,0
DA:596,0
DA:597,0
DA:598,0
DA:599,0
DA:600,0
DA:602,0
DA:606,0
DA:607,0
DA:608,0
DA:609,0
DA:610,0
DA:611,0
DA:612,0
DA:614,0
DA:615,0
DA:631,0
DA:632,0
DA:633,0
DA:634,0
DA:635,0
DA:636,0
DA:637,0
DA:638,0
DA:640,0
DA:643,0
DA:644,0
DA:645,0
DA:646,0
DA:647,0
DA:648,0
DA:649,0
DA:651,0
DA:655,0
DA:656,0
DA:657,0
DA:658,0
DA:659,0
DA:660,0
DA:661,0
DA:663,0
DA:664,0
DA:679,0
DA:680,0
DA:681,0
DA:682,0
DA:683,0
DA:684,0
DA:685,0
DA:687,0
DA:690,0
DA:691,0
DA:692,0
DA:693,0
DA:695,0
DA:698,0
DA:699,0
DA:700,0
DA:704,0
DA:705,0
DA:706,0
DA:707,0
DA:708,0
DA:709,0
DA:711,0
DA:712,0
DA:728,0
DA:729,0
DA:730,0
DA:731,0
DA:732,0
DA:733,0
DA:734,0
DA:735,0
DA:737,0
DA:740,0
DA:741,0
DA:742,0
DA:746,0
DA:747,0
DA:748,0
DA:749,0
DA:750,0
DA:751,0
DA:752,0
DA:754,0
DA:755,0
DA:775,0
DA:776,0
DA:777,0
DA:778,0
DA:779,0
DA:780,0
DA:781,0
DA:782,0
DA:783,0
DA:784,0
DA:785,0
DA:786,0
DA:788,0
DA:792,0
DA:793,0
DA:794,0
DA:795,0
DA:796,0
DA:797,0
DA:798,0
DA:799,0
DA:800,0
DA:801,0
DA:802,0
DA:803,0
DA:805,0
DA:806,0
DA:823,0
DA:824,0
DA:825,0
DA:826,0
DA:827,0
DA:828,0
DA:829,0
DA:830,0
DA:831,0
DA:833,0
DA:835,0
DA:836,0
DA:837,0
DA:838,0
DA:839,0
DA:840,0
DA:841,0
DA:842,0
DA:843,0
DA:845,0
DA:847,0
DA:848,0
DA:849,0
DA:850,0
DA:851,0
DA:852,0
DA:853,0
DA:854,0
DA:855,0
DA:856,0
DA:858,0
DA:862,0
DA:863,0
DA:864,0
DA:865,0
DA:866,0
DA:867,0
DA:868,0
DA:869,0
DA:870,0
DA:872,0
DA:873,0
DA:975,0
DA:976,0
DA:977,0
DA:978,0
DA:979,0
DA:980,0
DA:983,0
DA:984,0
DA:985,0
DA:986,0
DA:987,0
DA:988,0
DA:989,0
DA:990,0
DA:991,0
DA:992,0
DA:995,0
DA:996,0
DA:997,0
DA:999,0
DA:1000,0
DA:1001,0
DA:1002,0
DA:1003,0
DA:1004,0
DA:1007,0
DA:1008,0
DA:1009,0
DA:1010,0
DA:1011,0
DA:1012,0
DA:1013,0
DA:1014,0
DA:1015,0
DA:1019,0
DA:1020,0
DA:1021,0
DA:1022,0
DA:1023,0
DA:1025,0
DA:1026,0
DA:1027,0
DA:1029,0
DA:1030,0
DA:1031,0
DA:1034,0
DA:1035,0
DA:1036,0
DA:1037,0
DA:1038,0
DA:1040,0
DA:1041,0
DA:1045,0
DA:1046,0
DA:1047,0
DA:1048,0
DA:1049,0
DA:1050,0
DA:1051,0
DA:1054,0
DA:1055,0
DA:1056,0
DA:1057,0
DA:1058,0
DA:1059,0
DA:1060,0
DA:1061,0
DA:1062,0
DA:1063,0
DA:1066,0
DA:1067,0
DA:1068,0
DA:1070,0
DA:1071,0
DA:1073,0
DA:1074,0
DA:1075,0
DA:1077,0
DA:1078,0
DA:1079,0
DA:1080,0
DA:1081,0
DA:1083,0
DA:1084,0
DA:1086,0
DA:1087,0
DA:1088,0
DA:1091,0
DA:1093,0
DA:1096,0
DA:1097,0
DA:1109,0
DA:1121,0
DA:1131,0
DA:1144,0
DA:1151,0
DA:1159,0
DA:1172,0
DA:1174,0
DA:1177,0
DA:1178,0
DA:1179,0
DA:1188,0
DA:1192,0
DA:1193,0
DA:1194,0
DA:1195,0
DA:1196,0
DA:1197,0
DA:1198,0
DA:1199,0
DA:1200,0
DA:1201,0
DA:1202,0
DA:1203,0
DA:1204,0
DA:1205,0
DA:1206,0
DA:1207,0
DA:1208,0
DA:1209,0
DA:1210,0
DA:1211,0
DA:1212,0
DA:1213,0
DA:1214,0
DA:1215,0
DA:1216,0
DA:1217,0
DA:1218,0
DA:1219,0
DA:1220,0
DA:1221,0
DA:1222,0
DA:1223,0
DA:1224,0
DA:1225,0
DA:1226,0
DA:1227,0
DA:1228,0
DA:1229,0
DA:1230,0
DA:1231,0
DA:1232,0
DA:1233,0
DA:1234,0
DA:1235,0
DA:1236,0
DA:1237,0
DA:1238,0
DA:1239,0
DA:1240,0
DA:1241,0
DA:1242,0
DA:1243,0
DA:1244,0
DA:1245,0
DA:1246,0
DA:1247,0
DA:1248,0
DA:1249,0
DA:1250,0
DA:1253,0
DA:1254,0
DA:1255,0
DA:1256,0
DA:1257,0
DA:1258,0
DA:1259,0
DA:1260,0
DA:1261,0
DA:1262,0
DA:1263,0
DA:1264,0
DA:1266,0
DA:1267,0
DA:1284,0
DA:1285,0
DA:1286,0
DA:1287,0
DA:1288,0
DA:1289,0
DA:1290,0
DA:1291,0
DA:1293,0
DA:1296,0
DA:1297,0
DA:1298,0
DA:1299,0
DA:1300,0
DA:1301,0
DA:1302,0
DA:1303,0
DA:1305,0
DA:1308,0
DA:1309,0
DA:1310,0
DA:1311,0
DA:1312,0
DA:1313,0
DA:1314,0
DA:1316,0
DA:1319,0
DA:1320,0
DA:1321,0
DA:1324,0
DA:1325,0
DA:1326,0
DA:1330,0
DA:1331,0
DA:1332,0
DA:1333,0
DA:1334,0
DA:1335,0
DA:1336,0
DA:1338,0
DA:1339,0
DA:1360,1
DA:1361,1
DA:1362,1
DA:1363,1
DA:1364,0
DA:1366,1
DA:1369,2
DA:1370,2
DA:1371,0
DA:1372,2
DA:1373,0
DA:1375,2
DA:1378,5
DA:1379,5
DA:1380,5
DA:1384,0
DA:1385,0
DA:1386,0
DA:1387,0
DA:1388,0
DA:1390,0
DA:1391,0
DA:1420,1
DA:1421,1
DA:1422,1
DA:1423,1
DA:1424,1
DA:1425,1
DA:1426,1
DA:1428,1
DA:1429,0
DA:1430,0
DA:1431,0
DA:1432,0
DA:1433,0
DA:1434,0
DA:1435,0
DA:1436,0
DA:1438,1
DA:1441,0
DA:1442,0
DA:1443,0
DA:1444,0
DA:1445,0
DA:1446,0
DA:1447,0
DA:1448,0
DA:1449,0
DA:1450,0
DA:1451,0
DA:1453,0
DA:1456,0
DA:1457,0
DA:1458,0
DA:1459,0
DA:1460,0
DA:1461,0
DA:1462,0
DA:1464,0
DA:1465,0
DA:1466,0
DA:1467,0
DA:1468,0
DA:1469,0
DA:1471,0
DA:1472,0
DA:1473,0
DA:1474,0
DA:1475,0
DA:1476,0
DA:1477,0
DA:1478,0
DA:1479,0
DA:1480,0
DA:1482,0
DA:1483,0
DA:1484,0
DA:1485,0
DA:1486,0
DA:1488,0
DA:1489,0
DA:1490,0
DA:1492,0
DA:1495,3
DA:1496,3
DA:1497,3
DA:1501,0
DA:1502,0
DA:1503,0
DA:1504,0
DA:1505,0
DA:1506,0
DA:1507,0
DA:1508,0
DA:1509,0
DA:1510,0
DA:1511,0
DA:1513,0
DA:1514,0
DA:1539,1
DA:1540,1
DA:1541,1
DA:1542,1
DA:1543,1
DA:1544,0
DA:1545,0
DA:1546,0
DA:1547,0
DA:1549,1
DA:1552,1
DA:1553,1
DA:1554,1
DA:1555,0
DA:1556,0
DA:1557,0
DA:1559,1
DA:1562,1
DA:1563,1
DA:1564,0
DA:1565,1
DA:1566,0
DA:1567,0
DA:1568,0
DA:1569,0
DA:1570,0
DA:1572,1
DA:1575,1
DA:1576,1
DA:1577,0
DA:1578,1
DA:1579,0
DA:1580,0
DA:1581,0
DA:1582,0
DA:1583,0
DA:1585,1
DA:1588,5
DA:1589,5
DA:1590,5
DA:1594,0
DA:1595,0
DA:1596,0
DA:1597,0
DA:1598,0
DA:1599,0
DA:1600,0
DA:1601,0
DA:1602,0
DA:1604,0
DA:1605,0
DA:1622,1
DA:1623,1
DA:1624,1
DA:1625,0
DA:1626,0
DA:1628,1
DA:1631,1
DA:1632,1
DA:1633,0
DA:1634,1
DA:1635,0
DA:1637,1
DA:1640,1
DA:1641,1
DA:1642,0
DA:1643,1
DA:1644,0
DA:1646,1
DA:1649,1
DA:1650,1
DA:1651,1
DA:1654,4
DA:1655,4
DA:1656,4
DA:1660,0
DA:1661,0
DA:1662,0
DA:1663,0
DA:1664,0
DA:1666,0
DA:1667,0
DA:1693,0
DA:1694,0
DA:1695,0
DA:1696,0
DA:1697,0
DA:1698,0
DA:1700,0
DA:1701,0
DA:1702,0
DA:1704,0
DA:1705,0
DA:1707,0
DA:1708,0
DA:1709,0
DA:1710,0
DA:1711,0
DA:1712,0
DA:1713,0
DA:1715,0
DA:1716,0
DA:1718,0
DA:1721,0
DA:1722,0
DA:1723,0
DA:1724,0
DA:1725,0
DA:1726,0
DA:1727,0
DA:1728,0
DA:1729,0
DA:1730,0
DA:1731,0
DA:1732,0
DA:1734,0
DA:1737,0
DA:1738,0
DA:1739,0
DA:1740,0
DA:1741,0
DA:1742,0
DA:1743,0
DA:1744,0
DA:1745,0
DA:1746,0
DA:1747,0
DA:1748,0
DA:1750,0
DA:1753,0
DA:1754,0
DA:1755,0
DA:1756,0
DA:1757,0
DA:1758,0
DA:1759,0
DA:1761,0
DA:1764,0
DA:1765,0
DA:1766,0
DA:1769,0
DA:1770,0
DA:1771,0
DA:1778,0
DA:1781,0
DA:1782,0
DA:1783,0
DA:1784,0
DA:1785,0
DA:1786,0
DA:1788,0
DA:1789,0
DA:1790,0
DA:1791,0
DA:1792,0
DA:1793,0
DA:1794,0
DA:1795,0
DA:1796,0
DA:1797,0
DA:1798,0
DA:1799,0
DA:1802,0
DA:1806,0
DA:1807,0
DA:1808,0
DA:1809,0
DA:1810,0
DA:1811,0
DA:1812,0
DA:1813,0
DA:1814,0
DA:1815,0
DA:1816,0
DA:1817,0
DA:1819,0
DA:1820,0
DA:1842,0
DA:1843,0
DA:1846,0
DA:1847,0
DA:1849,0
DA:1850,0
DA:1851,0
DA:1852,0
DA:1853,0
DA:1854,0
DA:1856,0
DA:1859,0
DA:1860,0
DA:1861,0
DA:1862,0
DA:1863,0
DA:1864,0
DA:1865,0
DA:1866,0
DA:1867,0
DA:1869,0
DA:1872,0
DA:1873,0
DA:1874,0
DA:1875,0
DA:1876,0
DA:1877,0
DA:1878,0
DA:1879,0
DA:1880,0
DA:1882,0
DA:1886,0
DA:1887,0
DA:1888,0
DA:1889,0
DA:1890,0
DA:1891,0
DA:1892,0
DA:1893,0
DA:1894,0
DA:1896,0
DA:1897,0
DA:1916,0
DA:1917,0
DA:1918,0
DA:1919,0
DA:1920,0
DA:1921,0
DA:1923,0
DA:1926,0
DA:1927,0
DA:1928,0
DA:1929,0
DA:1930,0
DA:1931,0
DA:1933,0
DA:1936,0
DA:1937,0
DA:1938,0
DA:1942,0
DA:1943,0
DA:1944,0
DA:1945,0
DA:1946,0
DA:1947,0
DA:1949,0
DA:1950,0
BRF:0
BRH:0
LF:975
LH:63
end_of_record
SF:/mnt/datadrive_m2/self-sensored/src/models/health_metrics.rs
FN:1362,_RNCNvMs5_NtNtCs1yu0zy1SNdm_13self_sensored6models14health_metricsNtB7_11SleepMetric14get_efficiency0Bb_
FN:1363,_RNCNvMs5_NtNtCs1yu0zy1SNdm_13self_sensored6models14health_metricsNtB7_11SleepMetric14get_efficiencys_0Bb_
FN:2025,_RNCNvMs9_NtNtCs1yu0zy1SNdm_13self_sensored6models14health_metricsNtB7_17TemperatureMetric16basal_temp_spike0Bb_
FN:2019,_RNCNvMs9_NtNtCs1yu0zy1SNdm_13self_sensored6models14health_metricsNtB7_17TemperatureMetric9has_fever0Bb_
FN:2329,_RNCNvMsd_NtNtCs1yu0zy1SNdm_13self_sensored6models14health_metricsNtB7_17MindfulnessMetric23is_high_quality_session0Bb_
FN:2330,_RNCNvMsd_NtNtCs1yu0zy1SNdm_13self_sensored6models14health_metricsNtB7_17MindfulnessMetric23is_high_quality_sessions_0Bb_
FN:2458,_RNCNvMse_NtNtCs1yu0zy1SNdm_13self_sensored6models14health_metricsNtB7_18MentalHealthMetric14wellness_score0Bb_
FN:2460,_RNCNvMse_NtNtCs1yu0zy1SNdm_13self_sensored6models14health_metricsNtB7_18MentalHealthMetric14wellness_scores0_0Bb_
FN:2461,_RNCNvMse_NtNtCs1yu0zy1SNdm_13self_sensored6models14health_metricsNtB7_18MentalHealthMetric14wellness_scores1_0Bb_
FN:2459,_RNCNvMse_NtNtCs1yu0zy1SNdm_13self_sensored6models14health_metricsNtB7_18MentalHealthMetric14wellness_scores_0Bb_
FN:2448,_RNCNvMse_NtNtCs1yu0zy1SNdm_13self_sensored6models14health_metricsNtB7_18MentalHealthMetric17is_positive_entry0Bb_
FN:2450,_RNCNvMse_NtNtCs1yu0zy1SNdm_13self_sensored6models14health_metricsNtB7_18MentalHealthMetric17is_positive_entrys0_0Bb_
FN:2451,_RNCNvMse_NtNtCs1yu0zy1SNdm_13self_sensored6models14health_metricsNtB7_18MentalHealthMetric17is_positive_entrys1_0Bb_
FN:2449,_RNCNvMse_NtNtCs1yu0zy1SNdm_13self_sensored6models14health_metricsNtB7_18MentalHealthMetric17is_positive_entrys_0Bb_
FN:2440,_RNCNvMse_NtNtCs1yu0zy1SNdm_13self_sensored6models14health_metricsNtB7_18MentalHealthMetric26indicates_clinical_concern0Bb_
FN:2443,_RNCNvMse_NtNtCs1yu0zy1SNdm_13self_sensored6models14health_metricsNtB7_18MentalHealthMetric26indicates_clinical_concerns_0Bb_
FN:2535,_RNCNvMsf_NtNtCs1yu0zy1SNdm_13self_sensored6models14health_metricsNtB7_15MenstrualMetric15get_cycle_phase0Bb_
FN:3100,_RNCNvMsj_NtNtCs1yu0zy1SNdm_13self_sensored6models14health_metricsNtB7_15NutritionMetric17is_high_hydration0Bb_
FN:3129,_RNCNvMsj_NtNtCs1yu0zy1SNdm_13self_sensored6models14health_metricsNtB7_15NutritionMetric20has_excessive_sodium0Bb_
FN:3106,_RNCNvMsj_NtNtCs1yu0zy1SNdm_13self_sensored6models14health_metricsNtB7_15NutritionMetric22exceeds_caffeine_limit0Bb_
FN:3280,_RNCNvMsk_NtNtCs1yu0zy1SNdm_13self_sensored6models14health_metricsNtB7_13SymptomMetric17generate_analysis0Bb_
FN:3314,_RNCNvMsk_NtNtCs1yu0zy1SNdm_13self_sensored6models14health_metricsNtB7_13SymptomMetric24generate_recommendations0Bb_
FN:3408,_RNCNvMsl_NtNtCs1yu0zy1SNdm_13self_sensored6models14health_metricsNtB7_15MetabolicMetric22indicates_intoxication0Bb_
FN:3414,_RNCNvMsl_NtNtCs1yu0zy1SNdm_13self_sensored6models14health_metricsNtB7_15MetabolicMetric31is_significant_insulin_delivery0Bb_
FN:377,_RNvMNtNtCs1yu0zy1SNdm_13self_sensored6models14health_metricsNtB2_12WorkoutRoute21validate_route_points
FN:321,_RNvMNtNtCs1yu0zy1SNdm_13self_sensored6models14health_metricsNtB2_12WorkoutRoute29calculate_metrics_from_points
FN:574,_RNvMs0_NtNtCs1yu0zy1SNdm_13self_sensored6models14health_metricsNtB5_11WorkoutData16duration_seconds
FN:499,_RNvMs0_NtNtCs1yu0zy1SNdm_13self_sensored6models14health_metricsNtB5_11WorkoutData20validate_with_config
FN:495,_RNvMs0_NtNtCs1yu0zy1SNdm_13self_sensored6models14health_metricsNtB5_11WorkoutData8validate
FN:922,_RNvMs2_NtNtCs1yu0zy1SNdm_13self_sensored6models14health_metricsNtB5_15HeartRateMetric20validate_with_config
FN:992,_RNvMs2_NtNtCs1yu0zy1SNdm_13self_sensored6models14health_metricsNtB5_15HeartRateMetric29validate_with_characteristics
FN:918,_RNvMs2_NtNtCs1yu0zy1SNdm_13self_sensored6models14health_metricsNtB5_15HeartRateMetric8validate
FN:1208,_RNvMs3_NtNtCs1yu0zy1SNdm_13self_sensored6models14health_metricsNtB5_14HeartRateEvent19get_medical_urgency
FN:1226,_RNvMs3_NtNtCs1yu0zy1SNdm_13self_sensored6models14health_metricsNtB5_14HeartRateEvent20calculate_risk_score
FN:1071,_RNvMs3_NtNtCs1yu0zy1SNdm_13self_sensored6models14health_metricsNtB5_14HeartRateEvent20validate_with_config
FN:1160,_RNvMs3_NtNtCs1yu0zy1SNdm_13self_sensored6models14health_metricsNtB5_14HeartRateEvent29validate_with_characteristics
FN:1066,_RNvMs3_NtNtCs1yu0zy1SNdm_13self_sensored6models14health_metricsNtB5_14HeartRateEvent8validate
FN:1268,_RNvMs4_NtNtCs1yu0zy1SNdm_13self_sensored6models14health_metricsNtB5_19BloodPressureMetric20validate_with_config
FN:1264,_RNvMs4_NtNtCs1yu0zy1SNdm_13self_sensored6models14health_metricsNtB5_19BloodPressureMetric8validate
FN:1360,_RNvMs5_NtNtCs1yu0zy1SNdm_13self_sensored6models14health_metricsNtB5_11SleepMetric14get_efficiency
FN:1348,_RNvMs5_NtNtCs1yu0zy1SNdm_13self_sensored6models14health_metricsNtB5_11SleepMetric20calculate_efficiency
FN:1308,_RNvMs5_NtNtCs1yu0zy1SNdm_13self_sensored6models14health_metricsNtB5_11SleepMetric20validate_with_config
FN:1304,_RNvMs5_NtNtCs1yu0zy1SNdm_13self_sensored6models14health_metricsNtB5_11SleepMetric8validate
FN:1372,_RNvMs6_NtNtCs1yu0zy1SNdm_13self_sensored6models14health_metricsNtB5_14ActivityMetric20validate_with_config
FN:1529,_RNvMs6_NtNtCs1yu0zy1SNdm_13self_sensored6models14health_metricsNtB5_14ActivityMetric29validate_with_characteristics
FN:1368,_RNvMs6_NtNtCs1yu0zy1SNdm_13self_sensored6models14health_metricsNtB5_14ActivityMetric8validate
FN:1732,_RNvMs7_NtNtCs1yu0zy1SNdm_13self_sensored6models14health_metricsNtB5_21BodyMeasurementMetric13calculate_bmi
FN:1641,_RNvMs7_NtNtCs1yu0zy1SNdm_13self_sensored6models14health_metricsNtB5_21BodyMeasurementMetric20validate_with_config
FN:1765,_RNvMs7_NtNtCs1yu0zy1SNdm_13self_sensored6models14health_metricsNtB5_21BodyMeasurementMetric23is_multi_metric_reading
FN:1746,_RNvMs7_NtNtCs1yu0zy1SNdm_13self_sensored6models14health_metricsNtB5_21BodyMeasurementMetric24validate_bmi_consistency
FN:1637,_RNvMs7_NtNtCs1yu0zy1SNdm_13self_sensored6models14health_metricsNtB5_21BodyMeasurementMetric8validate
FN:1902,_RNvMs8_NtNtCs1yu0zy1SNdm_13self_sensored6models14health_metricsNtB5_17RespiratoryMetric11is_critical
FN:1786,_RNvMs8_NtNtCs1yu0zy1SNdm_13self_sensored6models14health_metricsNtB5_17RespiratoryMetric20validate_with_config
FN:1928,_RNvMs8_NtNtCs1yu0zy1SNdm_13self_sensored6models14health_metricsNtB5_17RespiratoryMetric21is_critical_condition
FN:1782,_RNvMs8_NtNtCs1yu0zy1SNdm_13self_sensored6models14health_metricsNtB5_17RespiratoryMetric8validate
FN:2023,_RNvMs9_NtNtCs1yu0zy1SNdm_13self_sensored6models14health_metricsNtB5_17TemperatureMetric16basal_temp_spike
FN:2029,_RNvMs9_NtNtCs1yu0zy1SNdm_13self_sensored6models14health_metricsNtB5_17TemperatureMetric19primary_temperature
FN:1966,_RNvMs9_NtNtCs1yu0zy1SNdm_13self_sensored6models14health_metricsNtB5_17TemperatureMetric20validate_with_config
FN:1962,_RNvMs9_NtNtCs1yu0zy1SNdm_13self_sensored6models14health_metricsNtB5_17TemperatureMetric8validate
FN:2018,_RNvMs9_NtNtCs1yu0zy1SNdm_13self_sensored6models14health_metricsNtB5_17TemperatureMetric9has_fever
FN:489,_RNvMs_NtNtCs1yu0zy1SNdm_13self_sensored6models14health_metricsNtB4_13GpsCoordinate16to_postgis_point
FN:472,_RNvMs_NtNtCs1yu0zy1SNdm_13self_sensored6models14health_metricsNtB4_13GpsCoordinate20validate_with_config
FN:468,_RNvMs_NtNtCs1yu0zy1SNdm_13self_sensored6models14health_metricsNtB4_13GpsCoordinate8validate
FN:2041,_RNvMsa_NtNtCs1yu0zy1SNdm_13self_sensored6models14health_metricsNtB5_19EnvironmentalMetric20validate_with_config
FN:2037,_RNvMsa_NtNtCs1yu0zy1SNdm_13self_sensored6models14health_metricsNtB5_19EnvironmentalMetric8validate
FN:2113,_RNvMsb_NtNtCs1yu0zy1SNdm_13self_sensored6models14health_metricsNtB5_19AudioExposureMetric20validate_with_config
FN:2109,_RNvMsb_NtNtCs1yu0zy1SNdm_13self_sensored6models14health_metricsNtB5_19AudioExposureMetric8validate
FN:2198,_RNvMsc_NtNtCs1yu0zy1SNdm_13self_sensored6models14health_metricsNtB5_17SafetyEventMetric20validate_with_config
FN:2194,_RNvMsc_NtNtCs1yu0zy1SNdm_13self_sensored6models14health_metricsNtB5_17SafetyEventMetric8validate
FN:2334,_RNvMsd_NtNtCs1yu0zy1SNdm_13self_sensored6models14health_metricsNtB5_17MindfulnessMetric19effectiveness_score
FN:2315,_RNvMsd_NtNtCs1yu0zy1SNdm_13self_sensored6models14health_metricsNtB5_17MindfulnessMetric19get_meditation_type
FN:2322,_RNvMsd_NtNtCs1yu0zy1SNdm_13self_sensored6models14health_metricsNtB5_17MindfulnessMetric19set_meditation_type
FN:2249,_RNvMsd_NtNtCs1yu0zy1SNdm_13self_sensored6models14health_metricsNtB5_17MindfulnessMetric20validate_with_config
FN:2327,_RNvMsd_NtNtCs1yu0zy1SNdm_13self_sensored6models14health_metricsNtB5_17MindfulnessMetric23is_high_quality_session
FN:2245,_RNvMsd_NtNtCs1yu0zy1SNdm_13self_sensored6models14health_metricsNtB5_17MindfulnessMetric8validate
FN:2457,_RNvMse_NtNtCs1yu0zy1SNdm_13self_sensored6models14health_metricsNtB5_18MentalHealthMetric14wellness_score
FN:2428,_RNvMse_NtNtCs1yu0zy1SNdm_13self_sensored6models14health_metricsNtB5_18MentalHealthMetric17get_state_of_mind
FN:2447,_RNvMse_NtNtCs1yu0zy1SNdm_13self_sensored6models14health_metricsNtB5_18MentalHealthMetric17is_positive_entry
FN:2433,_RNvMse_NtNtCs1yu0zy1SNdm_13self_sensored6models14health_metricsNtB5_18MentalHealthMetric17set_state_of_mind
FN:2467,_RNvMse_NtNtCs1yu0zy1SNdm_13self_sensored6models14health_metricsNtB5_18MentalHealthMetric19has_encrypted_notes
FN:2352,_RNvMse_NtNtCs1yu0zy1SNdm_13self_sensored6models14health_metricsNtB5_18MentalHealthMetric20validate_with_config
FN:2472,_RNvMse_NtNtCs1yu0zy1SNdm_13self_sensored6models14health_metricsNtB5_18MentalHealthMetric21get_sensitivity_level
FN:2438,_RNvMse_NtNtCs1yu0zy1SNdm_13self_sensored6models14health_metricsNtB5_18MentalHealthMetric26indicates_clinical_concern
FN:2348,_RNvMse_NtNtCs1yu0zy1SNdm_13self_sensored6models14health_metricsNtB5_18MentalHealthMetric8validate
FN:2534,_RNvMsf_NtNtCs1yu0zy1SNdm_13self_sensored6models14health_metricsNtB5_15MenstrualMetric15get_cycle_phase
FN:2523,_RNvMsf_NtNtCs1yu0zy1SNdm_13self_sensored6models14health_metricsNtB5_15MenstrualMetric17get_privacy_level
FN:2483,_RNvMsf_NtNtCs1yu0zy1SNdm_13self_sensored6models14health_metricsNtB5_15MenstrualMetric20validate_with_config
FN:2528,_RNvMsf_NtNtCs1yu0zy1SNdm_13self_sensored6models14health_metricsNtB5_15MenstrualMetric23requires_enhanced_audit
FN:2479,_RNvMsf_NtNtCs1yu0zy1SNdm_13self_sensored6models14health_metricsNtB5_15MenstrualMetric8validate
FN:2617,_RNvMsg_NtNtCs1yu0zy1SNdm_13self_sensored6models14health_metricsNtB5_15FertilityMetric17get_privacy_level
FN:2669,_RNvMsg_NtNtCs1yu0zy1SNdm_13self_sensored6models14health_metricsNtB5_15FertilityMetric20get_fertility_status
FN:2551,_RNvMsg_NtNtCs1yu0zy1SNdm_13self_sensored6models14health_metricsNtB5_15FertilityMetric20validate_with_config
FN:2680,_RNvMsg_NtNtCs1yu0zy1SNdm_13self_sensored6models14health_metricsNtB5_15FertilityMetric23is_peak_fertility_mucus
FN:2628,_RNvMsg_NtNtCs1yu0zy1SNdm_13self_sensored6models14health_metricsNtB5_15FertilityMetric23requires_enhanced_audit
FN:2634,_RNvMsg_NtNtCs1yu0zy1SNdm_13self_sensored6models14health_metricsNtB5_15FertilityMetric31calculate_fertility_probability
FN:2547,_RNvMsg_NtNtCs1yu0zy1SNdm_13self_sensored6models14health_metricsNtB5_15FertilityMetric8validate
FN:2726,_RNvMsh_NtNtCs1yu0zy1SNdm_13self_sensored6models14health_metricsNtB5_18BloodGlucoseMetric16glucose_category
FN:2693,_RNvMsh_NtNtCs1yu0zy1SNdm_13self_sensored6models14health_metricsNtB5_18BloodGlucoseMetric20validate_with_config
FN:2721,_RNvMsh_NtNtCs1yu0zy1SNdm_13self_sensored6models14health_metricsNtB5_18BloodGlucoseMetric25is_critical_glucose_level
FN:2689,_RNvMsh_NtNtCs1yu0zy1SNdm_13self_sensored6models14health_metricsNtB5_18BloodGlucoseMetric8validate
FN:2769,_RNvMsi_NtNtCs1yu0zy1SNdm_13self_sensored6models14health_metricsNtB5_12HealthMetric11metric_type
FN:2744,_RNvMsi_NtNtCs1yu0zy1SNdm_13self_sensored6models14health_metricsNtB5_12HealthMetric20validate_with_config
FN:2740,_RNvMsi_NtNtCs1yu0zy1SNdm_13self_sensored6models14health_metricsNtB5_12HealthMetric8validate
FN:3133,_RNvMsj_NtNtCs1yu0zy1SNdm_13self_sensored6models14health_metricsNtB5_15NutritionMetric16hydration_status
FN:3145,_RNvMsj_NtNtCs1yu0zy1SNdm_13self_sensored6models14health_metricsNtB5_15NutritionMetric16is_balanced_meal
FN:3099,_RNvMsj_NtNtCs1yu0zy1SNdm_13self_sensored6models14health_metricsNtB5_15NutritionMetric17is_high_hydration
FN:3128,_RNvMsj_NtNtCs1yu0zy1SNdm_13self_sensored6models14health_metricsNtB5_15NutritionMetric20has_excessive_sodium
FN:2821,_RNvMsj_NtNtCs1yu0zy1SNdm_13self_sensored6models14health_metricsNtB5_15NutritionMetric20validate_with_config
FN:3104,_RNvMsj_NtNtCs1yu0zy1SNdm_13self_sensored6models14health_metricsNtB5_15NutritionMetric22exceeds_caffeine_limit
FN:3110,_RNvMsj_NtNtCs1yu0zy1SNdm_13self_sensored6models14health_metricsNtB5_15NutritionMetric26macronutrient_distribution
FN:2817,_RNvMsj_NtNtCs1yu0zy1SNdm_13self_sensored6models14health_metricsNtB5_15NutritionMetric8validate
FN:3202,_RNvMsk_NtNtCs1yu0zy1SNdm_13self_sensored6models14health_metricsNtB5_13SymptomMetric12get_category
FN:3272,_RNvMsk_NtNtCs1yu0zy1SNdm_13self_sensored6models14health_metricsNtB5_13SymptomMetric17generate_analysis
FN:3354,_RNvMsk_NtNtCs1yu0zy1SNdm_13self_sensored6models14health_metricsNtB5_13SymptomMetric17get_urgency_level
FN:3349,_RNvMsk_NtNtCs1yu0zy1SNdm_13self_sensored6models14health_metricsNtB5_13SymptomMetric18is_episode_symptom
FN:3207,_RNvMsk_NtNtCs1yu0zy1SNdm_13self_sensored6models14health_metricsNtB5_13SymptomMetric20is_medical_emergency
FN:3168,_RNvMsk_NtNtCs1yu0zy1SNdm_13self_sensored6models14health_metricsNtB5_13SymptomMetric20validate_with_config
FN:3286,_RNvMsk_NtNtCs1yu0zy1SNdm_13self_sensored6models14health_metricsNtB5_13SymptomMetric24generate_recommendations
FN:3230,_RNvMsk_NtNtCs1yu0zy1SNdm_13self_sensored6models14health_metricsNtB5_13SymptomMetric26requires_medical_attention
FN:3163,_RNvMsk_NtNtCs1yu0zy1SNdm_13self_sensored6models14health_metricsNtB5_13SymptomMetric8validate
FN:3374,_RNvMsl_NtNtCs1yu0zy1SNdm_13self_sensored6models14health_metricsNtB5_15MetabolicMetric20validate_with_config
FN:3407,_RNvMsl_NtNtCs1yu0zy1SNdm_13self_sensored6models14health_metricsNtB5_15MetabolicMetric22indicates_intoxication
FN:3418,_RNvMsl_NtNtCs1yu0zy1SNdm_13self_sensored6models14health_metricsNtB5_15MetabolicMetric24alcohol_impairment_level
FN:3412,_RNvMsl_NtNtCs1yu0zy1SNdm_13self_sensored6models14health_metricsNtB5_15MetabolicMetric31is_significant_insulin_delivery
FN:3370,_RNvMsl_NtNtCs1yu0zy1SNdm_13self_sensored6models14health_metricsNtB5_15MetabolicMetric8validate
FN:3620,_RNvMsm_NtNtCs1yu0zy1SNdm_13self_sensored6models14health_metricsNtB5_13HygieneMetric14habit_strength
FN:3615,_RNvMsm_NtNtCs1yu0zy1SNdm_13self_sensored6models14health_metricsNtB5_13HygieneMetric15has_achievement
FN:3605,_RNvMsm_NtNtCs1yu0zy1SNdm_13self_sensored6models14health_metricsNtB5_13HygieneMetric19was_device_detected
FN:3600,_RNvMsm_NtNtCs1yu0zy1SNdm_13self_sensored6models14health_metricsNtB5_13HygieneMetric20get_hygiene_category
FN:3479,_RNvMsm_NtNtCs1yu0zy1SNdm_13self_sensored6models14health_metricsNtB5_13HygieneMetric20validate_with_config
FN:3549,_RNvMsm_NtNtCs1yu0zy1SNdm_13self_sensored6models14health_metricsNtB5_13HygieneMetric23meets_health_guidelines
FN:3631,_RNvMsm_NtNtCs1yu0zy1SNdm_13self_sensored6models14health_metricsNtB5_13HygieneMetric24requires_medical_context
FN:3610,_RNvMsm_NtNtCs1yu0zy1SNdm_13self_sensored6models14health_metricsNtB5_13HygieneMetric24was_during_health_crisis
FN:3559,_RNvMsm_NtNtCs1yu0zy1SNdm_13self_sensored6models14health_metricsNtB5_13HygieneMetric26calculate_compliance_score
FN:3595,_RNvMsm_NtNtCs1yu0zy1SNdm_13self_sensored6models14health_metricsNtB5_13HygieneMetric36is_critical_for_infection_prevention
FN:449,_RNvNtNtCs1yu0zy1SNdm_13self_sensored6models14health_metrics18haversine_distance
FN:903,_RNvXs1_NtNtCs1yu0zy1SNdm_13self_sensored6models14health_metricsNtB5_15ProcessingErrorNtNtCs1p5UDGgVI4d_4core3fmt7Display3fmt
FNDA:0,_RNCNvMs5_NtNtCs1yu0zy1SNdm_13self_sensored6models14health_metricsNtB7_11SleepMetric14get_efficiency0Bb_
FNDA:0,_RNCNvMs5_NtNtCs1yu0zy1SNdm_13self_sensored6models14health_metricsNtB7_11SleepMetric14get_efficiencys_0Bb_
FNDA:0,_RNCNvMs9_NtNtCs1yu0zy1SNdm_13self_sensored6models14health_metricsNtB7_17TemperatureMetric16basal_temp_spike0Bb_
FNDA:0,_RNCNvMs9_NtNtCs1yu0zy1SNdm_13self_sensored6models14health_metricsNtB7_17TemperatureMetric9has_fever0Bb_
FNDA:0,_RNCNvMsd_NtNtCs1yu0zy1SNdm_13self_sensored6models14health_metricsNtB7_17MindfulnessMetric23is_high_quality_session0Bb_
FNDA:0,_RNCNvMsd_NtNtCs1yu0zy1SNdm_13self_sensored6models14health_metricsNtB7_17MindfulnessMetric23is_high_quality_sessions_0Bb_
FNDA:0,_RNCNvMse_NtNtCs1yu0zy1SNdm_13self_sensored6models14health_metricsNtB7_18MentalHealthMetric14wellness_score0Bb_
FNDA:0,_RNCNvMse_NtNtCs1yu0zy1SNdm_13self_sensored6models14health_metricsNtB7_18MentalHealthMetric14wellness_scores0_0Bb_
FNDA:0,_RNCNvMse_NtNtCs1yu0zy1SNdm_13self_sensored6models14health_metricsNtB7_18MentalHealthMetric14wellness_scores1_0Bb_
FNDA:0,_RNCNvMse_NtNtCs1yu0zy1SNdm_13self_sensored6models14health_metricsNtB7_18MentalHealthMetric14wellness_scores_0Bb_
FNDA:0,_RNCNvMse_NtNtCs1yu0zy1SNdm_13self_sensored6models14health_metricsNtB7_18MentalHealthMetric17is_positive_entry0Bb_
FNDA:0,_RNCNvMse_NtNtCs1yu0zy1SNdm_13self_sensored6models14health_metricsNtB7_18MentalHealthMetric17is_positive_entrys0_0Bb_
FNDA:0,_RNCNvMse_NtNtCs1yu0zy1SNdm_13self_sensored6models14health_metricsNtB7_18MentalHealthMetric17is_positive_entrys1_0Bb_
FNDA:0,_RNCNvMse_NtNtCs1yu0zy1SNdm_13self_sensored6models14health_metricsNtB7_18MentalHealthMetric17is_positive_entrys_0Bb_
FNDA:0,_RNCNvMse_NtNtCs1yu0zy1SNdm_13self_sensored6models14health_metricsNtB7_18MentalHealthMetric26indicates_clinical_concern0Bb_
FNDA:0,_RNCNvMse_NtNtCs1yu0zy1SNdm_13self_sensored6models14health_metricsNtB7_18MentalHealthMetric26indicates_clinical_concerns_0Bb_
FNDA:0,_RNCNvMsf_NtNtCs1yu0zy1SNdm_13self_sensored6models14health_metricsNtB7_15MenstrualMetric15get_cycle_phase0Bb_
FNDA:0,_RNCNvMsj_NtNtCs1yu0zy1SNdm_13self_sensored6models14health_metricsNtB7_15NutritionMetric17is_high_hydration0Bb_
FNDA:0,_RNCNvMsj_NtNtCs1yu0zy1SNdm_13self_sensored6models14health_metricsNtB7_15NutritionMetric20has_excessive_sodium0Bb_
FNDA:0,_RNCNvMsj_NtNtCs1yu0zy1SNdm_13self_sensored6models14health_metricsNtB7_15NutritionMetric22exceeds_caffeine_limit0Bb_
FNDA:0,_RNCNvMsk_NtNtCs1yu0zy1SNdm_13self_sensored6models14health_metricsNtB7_13SymptomMetric17generate_analysis0Bb_
FNDA:0,_RNCNvMsk_NtNtCs1yu0zy1SNdm_13self_sensored6models14health_metricsNtB7_13SymptomMetric24generate_recommendations0Bb_
FNDA:0,_RNCNvMsl_NtNtCs1yu0zy1SNdm_13self_sensored6models14health_metricsNtB7_15MetabolicMetric22indicates_intoxication0Bb_
FNDA:0,_RNCNvMsl_NtNtCs1yu0zy1SNdm_13self_sensored6models14health_metricsNtB7_15MetabolicMetric31is_significant_insulin_delivery0Bb_
FNDA:0,_RNvMNtNtCs1yu0zy1SNdm_13self_sensored6models14health_metricsNtB2_12WorkoutRoute21validate_route_points
FNDA:0,_RNvMNtNtCs1yu0zy1SNdm_13self_sensored6models14health_metricsNtB2_12WorkoutRoute29calculate_metrics_from_points
FNDA:0,_RNvMs0_NtNtCs1yu0zy1SNdm_13self_sensored6models14health_metricsNtB5_11WorkoutData16duration_seconds
FNDA:0,_RNvMs0_NtNtCs1yu0zy1SNdm_13self_sensored6models14health_metricsNtB5_11WorkoutData20validate_with_config
FNDA:0,_RNvMs0_NtNtCs1yu0zy1SNdm_13self_sensored6models14health_metricsNtB5_11WorkoutData8validate
FNDA:0,_RNvMs2_NtNtCs1yu0zy1SNdm_13self_sensored6models14health_metricsNtB5_15HeartRateMetric20validate_with_config
FNDA:0,_RNvMs2_NtNtCs1yu0zy1SNdm_13self_sensored6models14health_metricsNtB5_15HeartRateMetric29validate_with_characteristics
FNDA:0,_RNvMs2_NtNtCs1yu0zy1SNdm_13self_sensored6models14health_metricsNtB5_15HeartRateMetric8validate
FNDA:0,_RNvMs3_NtNtCs1yu0zy1SNdm_13self_sensored6models14health_metricsNtB5_14HeartRateEvent19get_medical_urgency
FNDA:0,_RNvMs3_NtNtCs1yu0zy1SNdm_13self_sensored6models14health_metricsNtB5_14HeartRateEvent20calculate_risk_score
FNDA:0,_RNvMs3_NtNtCs1yu0zy1SNdm_13self_sensored6models14health_metricsNtB5_14HeartRateEvent20validate_with_config
FNDA:0,_RNvMs3_NtNtCs1yu0zy1SNdm_13self_sensored6models14health_metricsNtB5_14HeartRateEvent29validate_with_characteristics
FNDA:0,_RNvMs3_NtNtCs1yu0zy1SNdm_13self_sensored6models14health_metricsNtB5_14HeartRateEvent8validate
FNDA:0,_RNvMs4_NtNtCs1yu0zy1SNdm_13self_sensored6models14health_metricsNtB5_19BloodPressureMetric20validate_with_config
FNDA:0,_RNvMs4_NtNtCs1yu0zy1SNdm_13self_sensored6models14health_metricsNtB5_19BloodPressureMetric8validate
FNDA:0,_RNvMs5_NtNtCs1yu0zy1SNdm_13self_sensored6models14health_metricsNtB5_11SleepMetric14get_efficiency
FNDA:0,_RNvMs5_NtNtCs1yu0zy1SNdm_13self_sensored6models14health_metricsNtB5_11SleepMetric20calculate_efficiency
FNDA:0,_RNvMs5_NtNtCs1yu0zy1SNdm_13self_sensored6models14health_metricsNtB5_11SleepMetric20validate_with_config
FNDA:0,_RNvMs5_NtNtCs1yu0zy1SNdm_13self_sensored6models14health_metricsNtB5_11SleepMetric8validate
FNDA:0,_RNvMs6_NtNtCs1yu0zy1SNdm_13self_sensored6models14health_metricsNtB5_14ActivityMetric20validate_with_config
FNDA:0,_RNvMs6_NtNtCs1yu0zy1SNdm_13self_sensored6models14health_metricsNtB5_14ActivityMetric29validate_with_characteristics
FNDA:0,_RNvMs6_NtNtCs1yu0zy1SNdm_13self_sensored6models14health_metricsNtB5_14ActivityMetric8validate
FNDA:0,_RNvMs7_NtNtCs1yu0zy1SNdm_13self_sensored6models14health_metricsNtB5_21BodyMeasurementMetric13calculate_bmi
FNDA:0,_RNvMs7_NtNtCs1yu0zy1SNdm_13self_sensored6models14health_metricsNtB5_21BodyMeasurementMetric20validate_with_config
FNDA:0,_RNvMs7_NtNtCs1yu0zy1SNdm_13self_sensored6models14health_metricsNtB5_21BodyMeasurementMetric23is_multi_metric_reading
FNDA:0,_RNvMs7_NtNtCs1yu0zy1SNdm_13self_sensored6models14health_metricsNtB5_21BodyMeasurementMetric24validate_bmi_consistency
FNDA:0,_RNvMs7_NtNtCs1yu0zy1SNdm_13self_sensored6models14health_metricsNtB5_21BodyMeasurementMetric8validate
FNDA:0,_RNvMs8_NtNtCs1yu0zy1SNdm_13self_sensored6models14health_metricsNtB5_17RespiratoryMetric11is_critical
FNDA:0,_RNvMs8_NtNtCs1yu0zy1SNdm_13self_sensored6models14health_metricsNtB5_17RespiratoryMetric20validate_with_config
FNDA:0,_RNvMs8_NtNtCs1yu0zy1SNdm_13self_sensored6models14health_metricsNtB5_17RespiratoryMetric21is_critical_condition
FNDA:0,_RNvMs8_NtNtCs1yu0zy1SNdm_13self_sensored6models14health_metricsNtB5_17RespiratoryMetric8validate
FNDA:0,_RNvMs9_NtNtCs1yu0zy1SNdm_13self_sensored6models14health_metricsNtB5_17TemperatureMetric16basal_temp_spike
FNDA:0,_RNvMs9_NtNtCs1yu0zy1SNdm_13self_sensored6models14health_metricsNtB5_17TemperatureMetric19primary_temperature
FNDA:0,_RNvMs9_NtNtCs1yu0zy1SNdm_13self_sensored6models14health_metricsNtB5_17TemperatureMetric20validate_with_config
FNDA:0,_RNvMs9_NtNtCs1yu0zy1SNdm_13self_sensored6models14health_metricsNtB5_17TemperatureMetric8validate
FNDA:0,_RNvMs9_NtNtCs1yu0zy1SNdm_13self_sensored6models14health_metricsNtB5_17TemperatureMetric9has_fever
FNDA:0,_RNvMs_NtNtCs1yu0zy1SNdm_13self_sensored6models14health_metricsNtB4_13GpsCoordinate16to_postgis_point
FNDA:0,_RNvMs_NtNtCs1yu0zy1SNdm_13self_sensored6models14health_metricsNtB4_13GpsCoordinate20validate_with_config
FNDA:0,_RNvMs_NtNtCs1yu0zy1SNdm_13self_sensored6models14health_metricsNtB4_13GpsCoordinate8validate
FNDA:0,_RNvMsa_NtNtCs1yu0zy1SNdm_13self_sensored6models14health_metricsNtB5_19EnvironmentalMetric20validate_with_config
FNDA:0,_RNvMsa_NtNtCs1yu0zy1SNdm_13self_sensored6models14health_metricsNtB5_19EnvironmentalMetric8validate
FNDA:0,_RNvMsb_NtNtCs1yu0zy1SNdm_13self_sensored6models14health_metricsNtB5_19AudioExposureMetric20validate_with_config
FNDA:0,_RNvMsb_NtNtCs1yu0zy1SNdm_13self_sensored6models14health_metricsNtB5_19AudioExposureMetric8validate
FNDA:0,_RNvMsc_NtNtCs1yu0zy1SNdm_13self_sensored6models14health_metricsNtB5_17SafetyEventMetric20validate_with_config
FNDA:0,_RNvMsc_NtNtCs1yu0zy1SNdm_13self_sensored6models14health_metricsNtB5_17SafetyEventMetric8validate
FNDA:0,_RNvMsd_NtNtCs1yu0zy1SNdm_13self_sensored6models14health_metricsNtB5_17MindfulnessMetric19effectiveness_score
FNDA:0,_RNvMsd_NtNtCs1yu0zy1SNdm_13self_sensored6models14health_metricsNtB5_17MindfulnessMetric19get_meditation_type
FNDA:0,_RNvMsd_NtNtCs1yu0zy1SNdm_13self_sensored6models14health_metricsNtB5_17MindfulnessMetric19set_meditation_type
FNDA:0,_RNvMsd_NtNtCs1yu0zy1SNdm_13self_sensored6models14health_metricsNtB5_17MindfulnessMetric20validate_with_config
FNDA:0,_RNvMsd_NtNtCs1yu0zy1SNdm_13self_sensored6models14health_metricsNtB5_17MindfulnessMetric23is_high_quality_session
FNDA:0,_RNvMsd_NtNtCs1yu0zy1SNdm_13self_sensored6models14health_metricsNtB5_17MindfulnessMetric8validate
FNDA:0,_RNvMse_NtNtCs1yu0zy1SNdm_13self_sensored6models14health_metricsNtB5_18MentalHealthMetric14wellness_score
FNDA:0,_RNvMse_NtNtCs1yu0zy1SNdm_13self_sensored6models14health_metricsNtB5_18MentalHealthMetric17get_state_of_mind
FNDA:0,_RNvMse_NtNtCs1yu0zy1SNdm_13self_sensored6models14health_metricsNtB5_18MentalHealthMetric17is_positive_entry
FNDA:0,_RNvMse_NtNtCs1yu0zy1SNdm_13self_sensored6models14health_metricsNtB5_18MentalHealthMetric17set_state_of_mind
FNDA:0,_RNvMse_NtNtCs1yu0zy1SNdm_13self_sensored6models14health_metricsNtB5_18MentalHealthMetric19has_encrypted_notes
FNDA:0,_RNvMse_NtNtCs1yu0zy1SNdm_13self_sensored6models14health_metricsNtB5_18MentalHealthMetric20validate_with_config
FNDA:0,_RNvMse_NtNtCs1yu0zy1SNdm_13self_sensored6models14health_metricsNtB5_18MentalHealthMetric21get_sensitivity_level
FNDA:0,_RNvMse_NtNtCs1yu0zy1SNdm_13self_sensored6models14health_metricsNtB5_18MentalHealthMetric26indicates_clinical_concern
FNDA:0,_RNvMse_NtNtCs1yu0zy1SNdm_13self_sensored6models14health_metricsNtB5_18MentalHealthMetric8validate
FNDA:0,_RNvMsf_NtNtCs1yu0zy1SNdm_13self_sensored6models14health_metricsNtB5_15MenstrualMetric15get_cycle_phase
FNDA:0,_RNvMsf_NtNtCs1yu0zy1SNdm_13self_sensored6models14health_metricsNtB5_15MenstrualMetric17get_privacy_level
FNDA:0,_RNvMsf_NtNtCs1yu0zy1SNdm_13self_sensored6models14health_metricsNtB5_15MenstrualMetric20validate_with_config
FNDA:0,_RNvMsf_NtNtCs1yu0zy1SNdm_13self_sensored6models14health_metricsNtB5_15MenstrualMetric23requires_enhanced_audit
FNDA:0,_RNvMsf_NtNtCs1yu0zy1SNdm_13self_sensored6models14health_metricsNtB5_15MenstrualMetric8validate
FNDA:0,_RNvMsg_NtNtCs1yu0zy1SNdm_13self_sensored6models14health_metricsNtB5_15FertilityMetric17get_privacy_level
FNDA:0,_RNvMsg_NtNtCs1yu0zy1SNdm_13self_sensored6models14health_metricsNtB5_15FertilityMetric20get_fertility_status
FNDA:0,_RNvMsg_NtNtCs1yu0zy1SNdm_13self_sensored6models14health_metricsNtB5_15FertilityMetric20validate_with_config
FNDA:0,_RNvMsg_NtNtCs1yu0zy1SNdm_13self_sensored6models14health_metricsNtB5_15FertilityMetric23is_peak_fertility_mucus
FNDA:0,_RNvMsg_NtNtCs1yu0zy1SNdm_13self_sensored6models14health_metricsNtB5_15FertilityMetric23requires_enhanced_audit
FNDA:0,_RNvMsg_NtNtCs1yu0zy1SNdm_13self_sensored6models14health_metricsNtB5_15FertilityMetric31calculate_fertility_probability
FNDA:0,_RNvMsg_NtNtCs1yu0zy1SNdm_13self_sensored6models14health_metricsNtB5_15FertilityMetric8validate
FNDA:0,_RNvMsh_NtNtCs1yu0zy1SNdm_13self_sensored6models14health_metricsNtB5_18BloodGlucoseMetric16glucose_category
FNDA:0,_RNvMsh_NtNtCs1yu0zy1SNdm_13self_sensored6models14health_metricsNtB5_18BloodGlucoseMetric20validate_with_config
FNDA:0,_RNvMsh_NtNtCs1yu0zy1SNdm_13self_sensored6models14health_metricsNtB5_18BloodGlucoseMetric25is_critical_glucose_level
FNDA:0,_RNvMsh_NtNtCs1yu0zy1SNdm_13self_sensored6models14health_metricsNtB5_18BloodGlucoseMetric8validate
FNDA:0,_RNvMsi_NtNtCs1yu0zy1SNdm_13self_sensored6models14health_metricsNtB5_12HealthMetric11metric_type
FNDA:0,_RNvMsi_NtNtCs1yu0zy1SNdm_13self_sensored6models14health_metricsNtB5_12HealthMetric20validate_with_config
FNDA:0,_RNvMsi_NtNtCs1yu0zy1SNdm_13self_sensored6models14health_metricsNtB5_12HealthMetric8validate
FNDA:0,_RNvMsj_NtNtCs1yu0zy1SNdm_13self_sensored6models14health_metricsNtB5_15NutritionMetric16hydration_status
FNDA:0,_RNvMsj_NtNtCs1yu0zy1SNdm_13self_sensored6models14health_metricsNtB5_15NutritionMetric16is_balanced_meal
FNDA:0,_RNvMsj_NtNtCs1yu0zy1SNdm_13self_sensored6models14health_metricsNtB5_15NutritionMetric17is_high_hydration
FNDA:0,_RNvMsj_NtNtCs1yu0zy1SNdm_13self_sensored6models14health_metricsNtB5_15NutritionMetric20has_excessive_sodium
FNDA:0,_RNvMsj_NtNtCs1yu0zy1SNdm_13self_sensored6models14health_metricsNtB5_15NutritionMetric20validate_with_config
FNDA:0,_RNvMsj_NtNtCs1yu0zy1SNdm_13self_sensored6models14health_metricsNtB5_15NutritionMetric22exceeds_caffeine_limit
FNDA:0,_RNvMsj_NtNtCs1yu0zy1SNdm_13self_sensored6models14health_metricsNtB5_15NutritionMetric26macronutrient_distribution
FNDA:0,_RNvMsj_NtNtCs1yu0zy1SNdm_13self_sensored6models14health_metricsNtB5_15NutritionMetric8validate
FNDA:0,_RNvMsk_NtNtCs1yu0zy1SNdm_13self_sensored6models14health_metricsNtB5_13SymptomMetric12get_category
FNDA:0,_RNvMsk_NtNtCs1yu0zy1SNdm_13self_sensored6models14health_metricsNtB5_13SymptomMetric17generate_analysis
FNDA:0,_RNvMsk_NtNtCs1yu0zy1SNdm_13self_sensored6models14health_metricsNtB5_13SymptomMetric17get_urgency_level
FNDA:0,_RNvMsk_NtNtCs1yu0zy1SNdm_13self_sensored6models14health_metricsNtB5_13SymptomMetric18is_episode_symptom
FNDA:0,_RNvMsk_NtNtCs1yu0zy1SNdm_13self_sensored6models14health_metricsNtB5_13SymptomMetric20is_medical_emergency
FNDA:0,_RNvMsk_NtNtCs1yu0zy1SNdm_13self_sensored6models14health_metricsNtB5_13SymptomMetric20validate_with_config
FNDA:0,_RNvMsk_NtNtCs1yu0zy1SNdm_13self_sensored6models14health_metricsNtB5_13SymptomMetric24generate_recommendations
FNDA:0,_RNvMsk_NtNtCs1yu0zy1SNdm_13self_sensored6models14health_metricsNtB5_13SymptomMetric26requires_medical_attention
FNDA:0,_RNvMsk_NtNtCs1yu0zy1SNdm_13self_sensored6models14health_metricsNtB5_13SymptomMetric8validate
FNDA:0,_RNvMsl_NtNtCs1yu0zy1SNdm_13self_sensored6models14health_metricsNtB5_15MetabolicMetric20validate_with_config
FNDA:0,_RNvMsl_NtNtCs1yu0zy1SNdm_13self_sensored6models14health_metricsNtB5_15MetabolicMetric22indicates_intoxication
FNDA:0,_RNvMsl_NtNtCs1yu0zy1SNdm_13self_sensored6models14health_metricsNtB5_15MetabolicMetric24alcohol_impairment_level
FNDA:0,_RNvMsl_NtNtCs1yu0zy1SNdm_13self_sensored6models14health_metricsNtB5_15MetabolicMetric31is_significant_insulin_delivery
FNDA:0,_RNvMsl_NtNtCs1yu0zy1SNdm_13self_sensored6models14health_metricsNtB5_15MetabolicMetric8validate
FNDA:0,_RNvMsm_NtNtCs1yu0zy1SNdm_13self_sensored6models14health_metricsNtB5_13HygieneMetric14habit_strength
FNDA:0,_RNvMsm_NtNtCs1yu0zy1SNdm_13self_sensored6models14health_metricsNtB5_13HygieneMetric15has_achievement
FNDA:0,_RNvMsm_NtNtCs1yu0zy1SNdm_13self_sensored6models14health_metricsNtB5_13HygieneMetric19was_device_detected
FNDA:0,_RNvMsm_NtNtCs1yu0zy1SNdm_13self_sensored6models14health_metricsNtB5_13HygieneMetric20get_hygiene_category
FNDA:0,_RNvMsm_NtNtCs1yu0zy1SNdm_13self_sensored6models14health_metricsNtB5_13HygieneMetric20validate_with_config
FNDA:0,_RNvMsm_NtNtCs1yu0zy1SNdm_13self_sensored6models14health_metricsNtB5_13HygieneMetric23meets_health_guidelines
FNDA:0,_RNvMsm_NtNtCs1yu0zy1SNdm_13self_sensored6models14health_metricsNtB5_13HygieneMetric24requires_medical_context
FNDA:0,_RNvMsm_NtNtCs1yu0zy1SNdm_13self_sensored6models14health_metricsNtB5_13HygieneMetric24was_during_health_crisis
FNDA:0,_RNvMsm_NtNtCs1yu0zy1SNdm_13self_sensored6models14health_metricsNtB5_13HygieneMetric26calculate_compliance_score
FNDA:0,_RNvMsm_NtNtCs1yu0zy1SNdm_13self_sensored6models14health_metricsNtB5_13HygieneMetric36is_critical_for_infection_prevention
FNDA:0,_RNvNtNtCs1yu0zy1SNdm_13self_sensored6models14health_metrics18haversine_distance
FNDA:0,_RNvXs1_NtNtCs1yu0zy1SNdm_13self_sensored6models14health_metricsNtB5_15ProcessingErrorNtNtCs1p5UDGgVI4d_4core3fmt7Display3fmt
FNF:137
FNH:0
DA:321,0
DA:322,0
DA:323,0
DA:324,0
DA:326,0
DA:327,0
DA:328,0
DA:329,0
DA:330,0
DA:331,0
DA:332,0
DA:334,0
DA:335,0
DA:336,0
DA:339,0
DA:340,0
DA:341,0
DA:344,0
DA:345,0
DA:346,0
DA:347,0
DA:348,0
DA:349,0
DA:350,0
DA:351,0
DA:352,0
DA:353,0
DA:356,0
DA:357,0
DA:358,0
DA:359,0
DA:363,0
DA:364,0
DA:365,0
DA:366,0
DA:367,0
DA:368,0
DA:369,0
DA:371,0
DA:374,0
DA:377,0
DA:378,0
DA:379,0
DA:380,0
DA:382,0
DA:384,0
DA:385,0
DA:386,0
DA:387,0
DA:388,0
DA:389,0
DA:390,0
DA:391,0
DA:392,0
DA:393,0
DA:394,0
DA:395,0
DA:398,0
DA:399,0
DA:401,0
DA:402,0
DA:403,0
DA:406,0
DA:407,0
DA:409,0
DA:410,0
DA:411,0
DA:414,0
DA:415,0
DA:417,0
DA:418,0
DA:419,0
DA:423,0
DA:424,0
DA:425,0
DA:426,0
DA:427,0
DA:428,0
DA:429,0
DA:430,0
DA:433,0
DA:434,0
DA:449,0
DA:452,0
DA:453,0
DA:454,0
DA:455,0
DA:457,0
DA:458,0
DA:460,0
DA:461,0
DA:462,0
DA:464,0
DA:465,0
DA:468,0
DA:469,0
DA:470,0
DA:472,0
DA:473,0
DA:474,0
DA:475,0
DA:476,0
DA:477,0
DA:478,0
DA:479,0
DA:480,0
DA:481,0
DA:482,0
DA:483,0
DA:484,0
DA:485,0
DA:486,0
DA:489,0
DA:490,0
DA:491,0
DA:495,0
DA:496,0
DA:497,0
DA:499,0
DA:500,0
DA:501,0
DA:502,0
DA:505,0
DA:506,0
DA:507,0
DA:508,0
DA:509,0
DA:510,0
DA:511,0
DA:513,0
DA:514,0
DA:515,0
DA:516,0
DA:517,0
DA:518,0
DA:519,0
DA:520,0
DA:521,0
DA:522,0
DA:523,0
DA:525,0
DA:526,0
DA:527,0
DA:528,0
DA:529,0
DA:530,0
DA:531,0
DA:532,0
DA:533,0
DA:534,0
DA:535,0
DA:537,0
DA:538,0
DA:539,0
DA:540,0
DA:541,0
DA:542,0
DA:543,0
DA:544,0
DA:545,0
DA:546,0
DA:547,0
DA:548,0
DA:550,0
DA:551,0
DA:552,0
DA:553,0
DA:554,0
DA:555,0
DA:556,0
DA:557,0
DA:558,0
DA:560,0
DA:561,0
DA:562,0
DA:563,0
DA:564,0
DA:565,0
DA:566,0
DA:567,0
DA:568,0
DA:570,0
DA:571,0
DA:574,0
DA:575,0
DA:576,0
DA:903,0
DA:904,0
DA:905,0
DA:906,0
DA:907,0
DA:911,0
DA:913,0
DA:918,0
DA:919,0
DA:920,0
DA:922,0
DA:923,0
DA:924,0
DA:925,0
DA:926,0
DA:927,0
DA:928,0
DA:929,0
DA:930,0
DA:931,0
DA:932,0
DA:933,0
DA:934,0
DA:935,0
DA:936,0
DA:937,0
DA:938,0
DA:939,0
DA:940,0
DA:941,0
DA:942,0
DA:943,0
DA:944,0
DA:945,0
DA:948,0
DA:950,0
DA:951,0
DA:952,0
DA:953,0
DA:954,0
DA:955,0
DA:957,0
DA:959,0
DA:960,0
DA:961,0
DA:962,0
DA:963,0
DA:964,0
DA:966,0
DA:968,0
DA:970,0
DA:971,0
DA:972,0
DA:973,0
DA:974,0
DA:975,0
DA:977,0
DA:979,0
DA:981,0
DA:982,0
DA:983,0
DA:984,0
DA:985,0
DA:986,0
DA:988,0
DA:989,0
DA:992,0
DA:993,0
DA:994,0
DA:995,0
DA:996,0
DA:997,0
DA:998,0
DA:999,0
DA:1000,0
DA:1003,0
DA:1004,0
DA:1005,0
DA:1006,0
DA:1008,0
DA:1009,0
DA:1010,0
DA:1011,0
DA:1013,0
DA:1016,0
DA:1017,0
DA:1018,0
DA:1020,0
DA:1021,0
DA:1024,0
DA:1025,0
DA:1028,0
DA:1029,0
DA:1030,0
DA:1031,0
DA:1032,0
DA:1033,0
DA:1034,0
DA:1036,0
DA:1037,0
DA:1038,0
DA:1039,0
DA:1040,0
DA:1041,0
DA:1042,0
DA:1043,0
DA:1045,0
DA:1046,0
DA:1047,0
DA:1048,0
DA:1049,0
DA:1050,0
DA:1051,0
DA:1053,0
DA:1057,0
DA:1060,0
DA:1066,0
DA:1067,0
DA:1068,0
DA:1071,0
DA:1073,0
DA:1074,0
DA:1075,0
DA:1076,0
DA:1077,0
DA:1078,0
DA:1081,0
DA:1082,0
DA:1083,0
DA:1084,0
DA:1085,0
DA:1086,0
DA:1089,0
DA:1090,0
DA:1091,0
DA:1092,0
DA:1093,0
DA:1094,0
DA:1097,0
DA:1100,0
DA:1101,0
DA:1102,0
DA:1103,0
DA:1104,0
DA:1105,0
DA:1109,0
DA:1110,0
DA:1111,0
DA:1112,0
DA:1113,0
DA:1114,0
DA:1118,0
DA:1119,0
DA:1120,0
DA:1121,0
DA:1122,0
DA:1123,0
DA:1125,0
DA:1126,0
DA:1127,0
DA:1128,0
DA:1132,0
DA:1135,0
DA:1136,0
DA:1137,0
DA:1138,0
DA:1139,0
DA:1140,0
DA:1141,0
DA:1145,0
DA:1146,0
DA:1147,0
DA:1148,0
DA:1149,0
DA:1150,0
DA:1151,0
DA:1153,0
DA:1156,0
DA:1157,0
DA:1160,0
DA:1161,0
DA:1162,0
DA:1163,0
DA:1164,0
DA:1166,0
DA:1168,0
DA:1169,0
DA:1172,0
DA:1175,0
DA:1176,0
DA:1178,0
DA:1179,0
DA:1180,0
DA:1181,0
DA:1182,0
DA:1183,0
DA:1187,0
DA:1188,0
DA:1189,0
DA:1190,0
DA:1193,0
DA:1194,0
DA:1195,0
DA:1196,0
DA:1197,0
DA:1198,0
DA:1200,0
DA:1202,0
DA:1204,0
DA:1205,0
DA:1208,0
DA:1209,0
DA:1211,0
DA:1213,0
DA:1215,0
DA:1217,0
DA:1219,0
DA:1221,0
DA:1223,0
DA:1226,0
DA:1227,0
DA:1230,0
DA:1231,0
DA:1232,0
DA:1233,0
DA:1234,0
DA:1238,0
DA:1239,0
DA:1240,0
DA:1241,0
DA:1242,0
DA:1243,0
DA:1244,0
DA:1248,0
DA:1249,0
DA:1250,0
DA:1251,0
DA:1252,0
DA:1253,0
DA:1254,0
DA:1256,0
DA:1259,0
DA:1260,0
DA:1264,0
DA:1265,0
DA:1266,0
DA:1268,0
DA:1270,0
DA:1271,0
DA:1272,0
DA:1273,0
DA:1274,0
DA:1275,0
DA:1276,0
DA:1277,0
DA:1278,0
DA:1279,0
DA:1280,0
DA:1281,0
DA:1284,0
DA:1285,0
DA:1286,0
DA:1287,0
DA:1288,0
DA:1289,0
DA:1291,0
DA:1292,0
DA:1293,0
DA:1294,0
DA:1295,0
DA:1296,0
DA:1297,0
DA:1298,0
DA:1299,0
DA:1300,0
DA:1304,0
DA:1305,0
DA:1306,0
DA:1308,0
DA:1309,0
DA:1310,0
DA:1311,0
DA:1313,0
DA:1314,0
DA:1315,0
DA:1316,0
DA:1317,0
DA:1318,0
DA:1319,0
DA:1320,0
DA:1321,0
DA:1323,0
DA:1324,0
DA:1326,0
DA:1327,0
DA:1328,0
DA:1329,0
DA:1330,0
DA:1331,0
DA:1334,0
DA:1335,0
DA:1336,0
DA:1338,0
DA:1339,0
DA:1340,0
DA:1341,0
DA:1342,0
DA:1344,0
DA:1345,0
DA:1348,0
DA:1349,0
DA:1350,0
DA:1351,0
DA:1352,0
DA:1355,0
DA:1356,0
DA:1357,0
DA:1360,0
DA:1361,0
DA:1362,0
DA:1363,0
DA:1364,0
DA:1368,0
DA:1369,0
DA:1370,0
DA:1372,0
DA:1373,0
DA:1374,0
DA:1375,0
DA:1376,0
DA:1377,0
DA:1378,0
DA:1379,0
DA:1380,0
DA:1381,0
DA:1382,0
DA:1383,0
DA:1384,0
DA:1385,0
DA:1386,0
DA:1387,0
DA:1388,0
DA:1389,0
DA:1390,0
DA:1391,0
DA:1392,0
DA:1393,0
DA:1394,0
DA:1395,0
DA:1396,0
DA:1397,0
DA:1398,0
DA:1399,0
DA:1400,0
DA:1401,0
DA:1402,0
DA:1403,0
DA:1404,0
DA:1405,0
DA:1406,0
DA:1407,0
DA:1408,0
DA:1409,0
DA:1410,0
DA:1411,0
DA:1412,0
DA:1413,0
DA:1414,0
DA:1415,0
DA:1416,0
DA:1417,0
DA:1418,0
DA:1419,0
DA:1420,0
DA:1421,0
DA:1424,0
DA:1425,0
DA:1426,0
DA:1427,0
DA:1428,0
DA:1429,0
DA:1430,0
DA:1431,0
DA:1432,0
DA:1433,0
DA:1434,0
DA:1435,0
DA:1437,0
DA:1438,0
DA:1439,0
DA:1440,0
DA:1442,0
DA:1443,0
DA:1444,0
DA:1445,0
DA:1446,0
DA:1447,0
DA:1448,0
DA:1450,0
DA:1451,0
DA:1452,0
DA:1453,0
DA:1454,0
DA:1455,0
DA:1456,0
DA:1457,0
DA:1458,0
DA:1459,0
DA:1460,0
DA:1461,0
DA:1463,0
DA:1464,0
DA:1465,0
DA:1466,0
DA:1467,0
DA:1468,0
DA:1469,0
DA:1470,0
DA:1471,0
DA:1472,0
DA:1473,0
DA:1476,0
DA:1477,0
DA:1478,0
DA:1479,0
DA:1480,0
DA:1483,0
DA:1484,0
DA:1485,0
DA:1486,0
DA:1487,0
DA:1488,0
DA:1489,0
DA:1492,0
DA:1493,0
DA:1494,0
DA:1495,0
DA:1496,0
DA:1497,0
DA:1498,0
DA:1501,0
DA:1502,0
DA:1503,0
DA:1504,0
DA:1505,0
DA:1506,0
DA:1507,0
DA:1509,0
DA:1510,0
DA:1511,0
DA:1512,0
DA:1513,0
DA:1514,0
DA:1515,0
DA:1517,0
DA:1518,0
DA:1519,0
DA:1520,0
DA:1521,0
DA:1522,0
DA:1523,0
DA:1525,0
DA:1526,0
DA:1529,0
DA:1530,0
DA:1531,0
DA:1532,0
DA:1533,0
DA:1534,0
DA:1535,0
DA:1537,0
DA:1538,0
DA:1540,0
DA:1542,0
DA:1543,0
DA:1545,0
DA:1548,0
DA:1550,0
DA:1552,0
DA:1553,0
DA:1554,0
DA:1555,0
DA:1556,0
DA:1557,0
DA:1558,0
DA:1559,0
DA:1560,0
DA:1561,0
DA:1562,0
DA:1563,0
DA:1565,0
DA:1566,0
DA:1567,0
DA:1568,0
DA:1569,0
DA:1570,0
DA:1571,0
DA:1572,0
DA:1574,0
DA:1575,0
DA:1577,0
DA:1581,0
DA:1582,0
DA:1585,0
DA:1586,0
DA:1587,0
DA:1588,0
DA:1589,0
DA:1590,0
DA:1591,0
DA:1592,0
DA:1593,0
DA:1594,0
DA:1595,0
DA:1597,0
DA:1598,0
DA:1599,0
DA:1600,0
DA:1601,0
DA:1602,0
DA:1603,0
DA:1604,0
DA:1605,0
DA:1606,0
DA:1607,0
DA:1610,0
DA:1611,0
DA:1614,0
DA:1615,0
DA:1616,0
DA:1617,0
DA:1618,0
DA:1619,0
DA:1620,0
DA:1621,0
DA:1622,0
DA:1623,0
DA:1624,0
DA:1626,0
DA:1630,0
DA:1633,0
DA:1637,0
DA:1638,0
DA:1639,0
DA:1641,0
DA:1643,0
DA:1644,0
DA:1645,0
DA:1646,0
DA:1647,0
DA:1648,0
DA:1649,0
DA:1650,0
DA:1653,0
DA:1654,0
DA:1655,0
DA:1656,0
DA:1657,0
DA:1658,0
DA:1659,0
DA:1660,0
DA:1663,0
DA:1664,0
DA:1665,0
DA:1666,0
DA:1667,0
DA:1668,0
DA:1669,0
DA:1670,0
DA:1673,0
DA:1674,0
DA:1675,0
DA:1676,0
DA:1677,0
DA:1678,0
DA:1681,0
DA:1682,0
DA:1683,0
DA:1684,0
DA:1685,0
DA:1686,0
DA:1687,0
DA:1688,0
DA:1691,0
DA:1692,0
DA:1693,0
DA:1694,0
DA:1695,0
DA:1696,0
DA:1697,0
DA:1699,0
DA:1700,0
DA:1701,0
DA:1702,0
DA:1703,0
DA:1704,0
DA:1705,0
DA:1708,0
DA:1709,0
DA:1710,0
DA:1712,0
DA:1713,0
DA:1714,0
DA:1715,0
DA:1716,0
DA:1717,0
DA:1719,0
DA:1720,0
DA:1721,0
DA:1722,0
DA:1723,0
DA:1724,0
DA:1725,0
DA:1727,0
DA:1728,0
DA:1732,0
DA:1733,0
DA:1734,0
DA:1735,0
DA:1736,0
DA:1738,0
DA:1741,0
DA:1743,0
DA:1746,0
DA:1747,0
DA:1748,0
DA:1750,0
DA:1751,0
DA:1754,0
DA:1755,0
DA:1756,0
DA:1757,0
DA:1758,0
DA:1759,0
DA:1760,0
DA:1761,0
DA:1765,0
DA:1767,0
DA:1768,0
DA:1769,0
DA:1770,0
DA:1771,0
DA:1772,0
DA:1773,0
DA:1774,0
DA:1775,0
DA:1777,0
DA:1778,0
DA:1782,0
DA:1783,0
DA:1784,0
DA:1786,0
DA:1788,0
DA:1789,0
DA:1790,0
DA:1791,0
DA:1792,0
DA:1793,0
DA:1794,0
DA:1795,0
DA:1798,0
DA:1799,0
DA:1800,0
DA:1801,0
DA:1802,0
DA:1803,0
DA:1804,0
DA:1807,0
DA:1809,0
DA:1812,0
DA:1814,0
DA:1815,0
DA:1818,0
DA:1819,0
DA:1820,0
DA:1821,0
DA:1822,0
DA:1823,0
DA:1824,0
DA:1825,0
DA:1828,0
DA:1829,0
DA:1830,0
DA:1832,0
DA:1833,0
DA:1834,0
DA:1835,0
DA:1836,0
DA:1837,0
DA:1838,0
DA:1841,0
DA:1842,0
DA:1843,0
DA:1844,0
DA:1845,0
DA:1846,0
DA:1847,0
DA:1848,0
DA:1851,0
DA:1852,0
DA:1855,0
DA:1857,0
DA:1858,0
DA:1859,0
DA:1860,0
DA:1863,0
DA:1864,0
DA:1865,0
DA:1867,0
DA:1868,0
DA:1869,0
DA:1870,0
DA:1871,0
DA:1872,0
DA:1873,0
DA:1874,0
DA:1877,0
DA:1878,0
DA:1879,0
DA:1880,0
DA:1881,0
DA:1882,0
DA:1883,0
DA:1884,0
DA:1885,0
DA:1886,0
DA:1889,0
DA:1890,0
DA:1893,0
DA:1895,0
DA:1896,0
DA:1898,0
DA:1899,0
DA:1902,0
DA:1904,0
DA:1905,0
DA:1906,0
DA:1907,0
DA:1908,0
DA:1911,0
DA:1912,0
DA:1913,0
DA:1914,0
DA:1915,0
DA:1918,0
DA:1919,0
DA:1920,0
DA:1921,0
DA:1922,0
DA:1924,0
DA:1925,0
DA:1928,0
DA:1930,0
DA:1931,0
DA:1932,0
DA:1933,0
DA:1934,0
DA:1937,0
DA:1938,0
DA:1939,0
DA:1940,0
DA:1941,0
DA:1944,0
DA:1945,0
DA:1946,0
DA:1947,0
DA:1948,0
DA:1951,0
DA:1952,0
DA:1953,0
DA:1954,0
DA:1955,0
DA:1957,0
DA:1958,0
DA:1962,0
DA:1963,0
DA:1964,0
DA:1966,0
DA:1968,0
DA:1969,0
DA:1971,0
DA:1972,0
DA:1973,0
DA:1974,0
DA:1975,0
DA:1976,0
DA:1979,0
DA:1980,0
DA:1981,0
DA:1983,0
DA:1984,0
DA:1985,0
DA:1986,0
DA:1987,0
DA:1988,0
DA:1991,0
DA:1992,0
DA:1993,0
DA:1995,0
DA:1996,0
DA:1997,0
DA:1998,0
DA:1999,0
DA:2000,0
DA:2003,0
DA:2004,0
DA:2005,0
DA:2007,0
DA:2008,0
DA:2009,0
DA:2010,0
DA:2011,0
DA:2012,0
DA:2014,0
DA:2015,0
DA:2018,0
DA:2019,0
DA:2020,0
DA:2023,0
DA:2024,0
DA:2025,0
DA:2026,0
DA:2029,0
DA:2030,0
DA:2031,0
DA:2032,0
DA:2033,0
DA:2037,0
DA:2038,0
DA:2039,0
DA:2041,0
DA:2043,0
DA:2044,0
DA:2045,0
DA:2046,0
DA:2047,0
DA:2050,0
DA:2051,0
DA:2052,0
DA:2053,0
DA:2054,0
DA:2055,0
DA:2056,0
DA:2059,0
DA:2060,0
DA:2061,0
DA:2062,0
DA:2063,0
DA:2064,0
DA:2065,0
DA:2068,0
DA:2069,0
DA:2070,0
DA:2071,0
DA:2072,0
DA:2073,0
DA:2074,0
DA:2077,0
DA:2078,0
DA:2079,0
DA:2080,0
DA:2081,0
DA:2082,0
DA:2083,0
DA:2086,0
DA:2087,0
DA:2088,0
DA:2089,0
DA:2090,0
DA:2091,0
DA:2092,0
DA:2093,0
DA:2095,0
DA:2096,0
DA:2097,0
DA:2098,0
DA:2099,0
DA:2100,0
DA:2101,0
DA:2102,0
DA:2104,0
DA:2105,0
DA:2109,0
DA:2110,0
DA:2111,0
DA:2113,0
DA:2115,0
DA:2116,0
DA:2117,0
DA:2118,0
DA:2119,0
DA:2120,0
DA:2121,0
DA:2124,0
DA:2125,0
DA:2126,0
DA:2127,0
DA:2128,0
DA:2129,0
DA:2130,0
DA:2133,0
DA:2134,0
DA:2135,0
DA:2136,0
DA:2137,0
DA:2138,0
DA:2141,0
DA:2142,0
DA:2143,0
DA:2144,0
DA:2145,0
DA:2146,0
DA:2147,0
DA:2148,0
DA:2150,0
DA:2151,0
DA:2152,0
DA:2153,0
DA:2154,0
DA:2157,0
DA:2158,0
DA:2159,0
DA:2160,0
DA:2161,0
DA:2162,0
DA:2163,0
DA:2166,0
DA:2167,0
DA:2169,0
DA:2170,0
DA:2171,0
DA:2172,0
DA:2173,0
DA:2176,0
DA:2177,0
DA:2178,0
DA:2179,0
DA:2180,0
DA:2183,0
DA:2184,0
DA:2185,0
DA:2186,0
DA:2187,0
DA:2189,0
DA:2190,0
DA:2194,0
DA:2195,0
DA:2196,0
DA:2198,0
DA:2200,0
DA:2201,0
DA:2202,0
DA:2205,0
DA:2206,0
DA:2207,0
DA:2208,0
DA:2209,0
DA:2212,0
DA:2213,0
DA:2214,0
DA:2215,0
DA:2216,0
DA:2217,0
DA:2218,0
DA:2219,0
DA:2221,0
DA:2222,0
DA:2223,0
DA:2224,0
DA:2225,0
DA:2226,0
DA:2227,0
DA:2228,0
DA:2231,0
DA:2232,0
DA:2233,0
DA:2236,0
DA:2240,0
DA:2241,0
DA:2245,0
DA:2246,0
DA:2247,0
DA:2249,0
DA:2251,0
DA:2252,0
DA:2254,0
DA:2255,0
DA:2256,0
DA:2257,0
DA:2258,0
DA:2261,0
DA:2262,0
DA:2263,0
DA:2264,0
DA:2265,0
DA:2266,0
DA:2267,0
DA:2270,0
DA:2271,0
DA:2272,0
DA:2273,0
DA:2274,0
DA:2277,0
DA:2278,0
DA:2279,0
DA:2280,0
DA:2281,0
DA:2282,0
DA:2283,0
DA:2285,0
DA:2286,0
DA:2287,0
DA:2288,0
DA:2289,0
DA:2290,0
DA:2291,0
DA:2294,0
DA:2295,0
DA:2296,0
DA:2297,0
DA:2298,0
DA:2299,0
DA:2300,0
DA:2303,0
DA:2304,0
DA:2305,0
DA:2306,0
DA:2307,0
DA:2308,0
DA:2309,0
DA:2311,0
DA:2312,0
DA:2315,0
DA:2316,0
DA:2317,0
DA:2318,0
DA:2319,0
DA:2322,0
DA:2323,0
DA:2324,0
DA:2327,0
DA:2328,0
DA:2329,0
DA:2330,0
DA:2331,0
DA:2334,0
DA:2335,0
DA:2336,0
DA:2337,0
DA:2338,0
DA:2340,0
DA:2343,0
DA:2344,0
DA:2348,0
DA:2349,0
DA:2350,0
DA:2352,0
DA:2354,0
DA:2355,0
DA:2356,0
DA:2357,0
DA:2358,0
DA:2359,0
DA:2360,0
DA:2363,0
DA:2364,0
DA:2365,0
DA:2366,0
DA:2367,0
DA:2370,0
DA:2371,0
DA:2372,0
DA:2373,0
DA:2374,0
DA:2377,0
DA:2378,0
DA:2379,0
DA:2380,0
DA:2381,0
DA:2384,0
DA:2385,0
DA:2386,0
DA:2387,0
DA:2388,0
DA:2391,0
DA:2392,0
DA:2393,0
DA:2394,0
DA:2395,0
DA:2396,0
DA:2397,0
DA:2399,0
DA:2400,0
DA:2401,0
DA:2402,0
DA:2403,0
DA:2404,0
DA:2405,0
DA:2408,0
DA:2409,0
DA:2410,0
DA:2411,0
DA:2412,0
DA:2413,0
DA:2414,0
DA:2417,0
DA:2418,0
DA:2419,0
DA:2420,0
DA:2422,0
DA:2424,0
DA:2425,0
DA:2428,0
DA:2429,0
DA:2430,0
DA:2433,0
DA:2434,0
DA:2435,0
DA:2438,0
DA:2439,0
DA:2440,0
DA:2441,0
DA:2442,0
DA:2443,0
DA:2444,0
DA:2447,0
DA:2448,0
DA:2449,0
DA:2450,0
DA:2451,0
DA:2453,0
DA:2454,0
DA:2457,0
DA:2458,0
DA:2459,0
DA:2460,0
DA:2461,0
DA:2463,0
DA:2464,0
DA:2467,0
DA:2468,0
DA:2469,0
DA:2472,0
DA:2473,0
DA:2474,0
DA:2479,0
DA:2480,0
DA:2481,0
DA:2483,0
DA:2485,0
DA:2486,0
DA:2487,0
DA:2488,0
DA:2489,0
DA:2492,0
DA:2493,0
DA:2494,0
DA:2495,0
DA:2496,0
DA:2497,0
DA:2498,0
DA:2501,0
DA:2502,0
DA:2503,0
DA:2504,0
DA:2505,0
DA:2508,0
DA:2509,0
DA:2510,0
DA:2511,0
DA:2512,0
DA:2515,0
DA:2516,0
DA:2517,0
DA:2519,0
DA:2520,0
DA:2523,0
DA:2524,0
DA:2525,0
DA:2528,0
DA:2530,0
DA:2531,0
DA:2534,0
DA:2535,0
DA:2536,0
DA:2537,0
DA:2538,0
DA:2539,0
DA:2540,0
DA:2541,0
DA:2542,0
DA:2547,0
DA:2548,0
DA:2549,0
DA:2551,0
DA:2553,0
DA:2554,0
DA:2555,0
DA:2556,0
DA:2557,0
DA:2558,0
DA:2561,0
DA:2562,0
DA:2563,0
DA:2564,0
DA:2565,0
DA:2566,0
DA:2567,0
DA:2570,0
DA:2571,0
DA:2572,0
DA:2573,0
DA:2574,0
DA:2575,0
DA:2576,0
DA:2579,0
DA:2580,0
DA:2581,0
DA:2582,0
DA:2583,0
DA:2584,0
DA:2585,0
DA:2588,0
DA:2589,0
DA:2590,0
DA:2591,0
DA:2592,0
DA:2593,0
DA:2594,0
DA:2597,0
DA:2598,0
DA:2599,0
DA:2600,0
DA:2601,0
DA:2602,0
DA:2604,0
DA:2605,0
DA:2606,0
DA:2607,0
DA:2609,0
DA:2611,0
DA:2613,0
DA:2614,0
DA:2617,0
DA:2618,0
DA:2619,0
DA:2620,0
DA:2621,0
DA:2623,0
DA:2625,0
DA:2628,0
DA:2630,0
DA:2631,0
DA:2634,0
DA:2635,0
DA:2636,0
DA:2639,0
DA:2640,0
DA:2643,0
DA:2644,0
DA:2645,0
DA:2646,0
DA:2649,0
DA:2650,0
DA:2651,0
DA:2652,0
DA:2653,0
DA:2654,0
DA:2655,0
DA:2657,0
DA:2658,0
DA:2659,0
DA:2661,0
DA:2662,0
DA:2664,0
DA:2666,0
DA:2669,0
DA:2670,0
DA:2671,0
DA:2672,0
DA:2673,0
DA:2674,0
DA:2675,0
DA:2677,0
DA:2680,0
DA:2681,0
DA:2682,0
DA:2685,0
DA:2689,0
DA:2690,0
DA:2691,0
DA:2693,0
DA:2695,0
DA:2696,0
DA:2698,0
DA:2699,0
DA:2700,0
DA:2701,0
DA:2702,0
DA:2705,0
DA:2706,0
DA:2707,0
DA:2708,0
DA:2709,0
DA:2710,0
DA:2711,0
DA:2712,0
DA:2713,0
DA:2714,0
DA:2715,0
DA:2717,0
DA:2718,0
DA:2721,0
DA:2722,0
DA:2723,0
DA:2726,0
DA:2727,0
DA:2728,0
DA:2729,0
DA:2730,0
DA:2731,0
DA:2732,0
DA:2733,0
DA:2734,0
DA:2736,0
DA:2740,0
DA:2741,0
DA:2742,0
DA:2744,0
DA:2745,0
DA:2746,0
DA:2747,0
DA:2748,0
DA:2749,0
DA:2750,0
DA:2751,0
DA:2752,0
DA:2753,0
DA:2754,0
DA:2755,0
DA:2756,0
DA:2757,0
DA:2758,0
DA:2759,0
DA:2760,0
DA:2761,0
DA:2762,0
DA:2763,0
DA:2764,0
DA:2765,0
DA:2767,0
DA:2769,0
DA:2770,0
DA:2771,0
DA:2772,0
DA:2773,0
DA:2774,0
DA:2775,0
DA:2776,0
DA:2777,0
DA:2778,0
DA:2779,0
DA:2780,0
DA:2781,0
DA:2782,0
DA:2783,0
DA:2784,0
DA:2785,0
DA:2786,0
DA:2787,0
DA:2788,0
DA:2789,0
DA:2790,0
DA:2792,0
DA:2817,0
DA:2818,0
DA:2819,0
DA:2821,0
DA:2823,0
DA:2824,0
DA:2825,0
DA:2826,0
DA:2827,0
DA:2828,0
DA:2829,0
DA:2831,0
DA:2832,0
DA:2833,0
DA:2834,0
DA:2835,0
DA:2836,0
DA:2837,0
DA:2840,0
DA:2841,0
DA:2842,0
DA:2843,0
DA:2844,0
DA:2845,0
DA:2846,0
DA:2848,0
DA:2849,0
DA:2850,0
DA:2851,0
DA:2852,0
DA:2853,0
DA:2854,0
DA:2856,0
DA:2857,0
DA:2858,0
DA:2859,0
DA:2860,0
DA:2861,0
DA:2862,0
DA:2864,0
DA:2865,0
DA:2866,0
DA:2867,0
DA:2868,0
DA:2869,0
DA:2870,0
DA:2872,0
DA:2873,0
DA:2874,0
DA:2875,0
DA:2876,0
DA:2877,0
DA:2878,0
DA:2880,0
DA:2881,0
DA:2882,0
DA:2883,0
DA:2884,0
DA:2885,0
DA:2886,0
DA:2888,0
DA:2889,0
DA:2890,0
DA:2891,0
DA:2892,0
DA:2893,0
DA:2894,0
DA:2896,0
DA:2897,0
DA:2898,0
DA:2899,0
DA:2900,0
DA:2901,0
DA:2902,0
DA:2904,0
DA:2905,0
DA:2906,0
DA:2907,0
DA:2908,0
DA:2909,0
DA:2910,0
DA:2912,0
DA:2913,0
DA:2914,0
DA:2915,0
DA:2916,0
DA:2917,0
DA:2918,0
DA:2920,0
DA:2921,0
DA:2922,0
DA:2923,0
DA:2924,0
DA:2925,0
DA:2926,0
DA:2929,0
DA:2930,0
DA:2931,0
DA:2932,0
DA:2933,0
DA:2934,0
DA:2935,0
DA:2937,0
DA:2938,0
DA:2939,0
DA:2940,0
DA:2941,0
DA:2942,0
DA:2943,0
DA:2945,0
DA:2946,0
DA:2947,0
DA:2948,0
DA:2949,0
DA:2950,0
DA:2951,0
DA:2953,0
DA:2954,0
DA:2955,0
DA:2956,0
DA:2957,0
DA:2958,0
DA:2959,0
DA:2961,0
DA:2962,0
DA:2963,0
DA:2964,0
DA:2965,0
DA:2966,0
DA:2967,0
DA:2969,0
DA:2970,0
DA:2971,0
DA:2972,0
DA:2973,0
DA:2974,0
DA:2975,0
DA:2978,0
DA:2979,0
DA:2980,0
DA:2981,0
DA:2982,0
DA:2983,0
DA:2984,0
DA:2986,0
DA:2987,0
DA:2988,0
DA:2989,0
DA:2990,0
DA:2991,0
DA:2992,0
DA:2994,0
DA:2995,0
DA:2996,0
DA:2997,0
DA:2998,0
DA:2999,0
DA:3000,0
DA:3002,0
DA:3003,0
DA:3004,0
DA:3005,0
DA:3006,0
DA:3007,0
DA:3008,0
DA:3010,0
DA:3011,0
DA:3012,0
DA:3013,0
DA:3014,0
DA:3015,0
DA:3016,0
DA:3018,0
DA:3019,0
DA:3020,0
DA:3021,0
DA:3022,0
DA:3023,0
DA:3024,0
DA:3026,0
DA:3027,0
DA:3028,0
DA:3029,0
DA:3030,0
DA:3031,0
DA:3032,0
DA:3034,0
DA:3035,0
DA:3036,0
DA:3037,0
DA:3038,0
DA:3039,0
DA:3040,0
DA:3042,0
DA:3043,0
DA:3044,0
DA:3045,0
DA:3046,0
DA:3047,0
DA:3048,0
DA:3051,0
DA:3052,0
DA:3053,0
DA:3054,0
DA:3055,0
DA:3056,0
DA:3057,0
DA:3059,0
DA:3060,0
DA:3061,0
DA:3062,0
DA:3063,0
DA:3064,0
DA:3065,0
DA:3067,0
DA:3068,0
DA:3069,0
DA:3070,0
DA:3071,0
DA:3072,0
DA:3073,0
DA:3075,0
DA:3076,0
DA:3077,0
DA:3078,0
DA:3079,0
DA:3080,0
DA:3081,0
DA:3084,0
DA:3085,0
DA:3086,0
DA:3087,0
DA:3088,0
DA:3089,0
DA:3090,0
DA:3091,0
DA:3092,0
DA:3093,0
DA:3095,0
DA:3096,0
DA:3099,0
DA:3100,0
DA:3101,0
DA:3104,0
DA:3105,0
DA:3106,0
DA:3107,0
DA:3110,0
DA:3111,0
DA:3112,0
DA:3113,0
DA:3114,0
DA:3116,0
DA:3117,0
DA:3118,0
DA:3120,0
DA:3121,0
DA:3122,0
DA:3123,0
DA:3124,0
DA:3125,0
DA:3128,0
DA:3129,0
DA:3130,0
DA:3133,0
DA:3134,0
DA:3135,0
DA:3136,0
DA:3137,0
DA:3138,0
DA:3139,0
DA:3140,0
DA:3142,0
DA:3145,0
DA:3146,0
DA:3148,0
DA:3149,0
DA:3150,0
DA:3151,0
DA:3152,0
DA:3153,0
DA:3155,0
DA:3157,0
DA:3163,0
DA:3164,0
DA:3165,0
DA:3168,0
DA:3170,0
DA:3171,0
DA:3172,0
DA:3173,0
DA:3176,0
DA:3177,0
DA:3178,0
DA:3179,0
DA:3180,0
DA:3181,0
DA:3182,0
DA:3185,0
DA:3186,0
DA:3187,0
DA:3188,0
DA:3189,0
DA:3190,0
DA:3193,0
DA:3194,0
DA:3195,0
DA:3196,0
DA:3198,0
DA:3199,0
DA:3202,0
DA:3203,0
DA:3204,0
DA:3207,0
DA:3209,0
DA:3210,0
DA:3211,0
DA:3214,0
DA:3215,0
DA:3216,0
DA:3219,0
DA:3220,0
DA:3221,0
DA:3222,0
DA:3223,0
DA:3224,0
DA:3225,0
DA:3227,0
DA:3230,0
DA:3232,0
DA:3233,0
DA:3234,0
DA:3237,0
DA:3238,0
DA:3239,0
DA:3242,0
DA:3243,0
DA:3244,0
DA:3250,0
DA:3254,0
DA:3258,0
DA:3261,0
DA:3264,0
DA:3267,0
DA:3269,0
DA:3272,0
DA:3274,0
DA:3275,0
DA:3276,0
DA:3277,0
DA:3278,0
DA:3279,0
DA:3280,0
DA:3281,0
DA:3283,0
DA:3286,0
DA:3287,0
DA:3289,0
DA:3290,0
DA:3291,0
DA:3292,0
DA:3293,0
DA:3294,0
DA:3295,0
DA:3298,0
DA:3299,0
DA:3300,0
DA:3301,0
DA:3302,0
DA:3303,0
DA:3304,0
DA:3306,0
DA:3307,0
DA:3308,0
DA:3309,0
DA:3310,0
DA:3311,0
DA:3312,0
DA:3313,0
DA:3314,0
DA:3315,0
DA:3316,0
DA:3317,0
DA:3319,0
DA:3320,0
DA:3321,0
DA:3322,0
DA:3323,0
DA:3324,0
DA:3325,0
DA:3326,0
DA:3327,0
DA:3328,0
DA:3329,0
DA:3330,0
DA:3331,0
DA:3332,0
DA:3336,0
DA:3337,0
DA:3338,0
DA:3339,0
DA:3340,0
DA:3341,0
DA:3342,0
DA:3343,0
DA:3345,0
DA:3346,0
DA:3349,0
DA:3350,0
DA:3351,0
DA:3354,0
DA:3355,0
DA:3356,0
DA:3357,0
DA:3359,0
DA:3360,0
DA:3361,0
DA:3362,0
DA:3363,0
DA:3364,0
DA:3366,0
DA:3370,0
DA:3371,0
DA:3372,0
DA:3374,0
DA:3376,0
DA:3377,0
DA:3378,0
DA:3379,0
DA:3380,0
DA:3381,0
DA:3382,0
DA:3385,0
DA:3386,0
DA:3387,0
DA:3388,0
DA:3389,0
DA:3390,0
DA:3391,0
DA:3394,0
DA:3395,0
DA:3396,0
DA:3397,0
DA:3398,0
DA:3399,0
DA:3400,0
DA:3401,0
DA:3403,0
DA:3404,0
DA:3407,0
DA:3408,0
DA:3409,0
DA:3412,0
DA:3413,0
DA:3414,0
DA:3415,0
DA:3418,0
DA:3419,0
DA:3420,0
DA:3421,0
DA:3422,0
DA:3423,0
DA:3424,0
DA:3425,0
DA:3426,0
DA:3428,0
DA:3479,0
DA:3481,0
DA:3482,0
DA:3484,0
DA:3485,0
DA:3486,0
DA:3487,0
DA:3488,0
DA:3491,0
DA:3492,0
DA:3493,0
DA:3494,0
DA:3495,0
DA:3496,0
DA:3497,0
DA:3500,0
DA:3501,0
DA:3502,0
DA:3503,0
DA:3504,0
DA:3505,0
DA:3506,0
DA:3509,0
DA:3510,0
DA:3511,0
DA:3512,0
DA:3513,0
DA:3514,0
DA:3515,0
DA:3518,0
DA:3519,0
DA:3520,0
DA:3521,0
DA:3522,0
DA:3523,0
DA:3524,0
DA:3527,0
DA:3528,0
DA:3529,0
DA:3530,0
DA:3531,0
DA:3532,0
DA:3533,0
DA:3536,0
DA:3537,0
DA:3538,0
DA:3539,0
DA:3540,0
DA:3541,0
DA:3542,0
DA:3543,0
DA:3545,0
DA:3546,0
DA:3549,0
DA:3550,0
DA:3551,0
DA:3552,0
DA:3553,0
DA:3554,0
DA:3555,0
DA:3556,0
DA:3559,0
DA:3560,0
DA:3561,0
DA:3564,0
DA:3565,0
DA:3566,0
DA:3567,0
DA:3570,0
DA:3571,0
DA:3572,0
DA:3573,0
DA:3576,0
DA:3577,0
DA:3578,0
DA:3579,0
DA:3582,0
DA:3583,0
DA:3584,0
DA:3585,0
DA:3587,0
DA:3588,0
DA:3590,0
DA:3592,0
DA:3595,0
DA:3596,0
DA:3597,0
DA:3600,0
DA:3601,0
DA:3602,0
DA:3605,0
DA:3606,0
DA:3607,0
DA:3610,0
DA:3611,0
DA:3612,0
DA:3615,0
DA:3616,0
DA:3617,0
DA:3620,0
DA:3621,0
DA:3622,0
DA:3623,0
DA:3624,0
DA:3625,0
DA:3626,0
DA:3628,0
DA:3631,0
DA:3632,0
DA:3633,0
DA:3634,0
BRF:0
BRH:0
LF:2161
LH:0
end_of_record
SF:/mnt/datadrive_m2/self-sensored/src/models/ios_models.rs
FN:86,_RNCNvMNtNtCs1yu0zy1SNdm_13self_sensored6models10ios_modelsNtB4_16IosIngestPayload18to_internal_format0B8_
FN:121,_RNCNvMNtNtCs1yu0zy1SNdm_13self_sensored6models10ios_modelsNtB4_16IosIngestPayload18to_internal_formats0_0B8_
FN:124,_RNCNvMNtNtCs1yu0zy1SNdm_13self_sensored6models10ios_modelsNtB4_16IosIngestPayload18to_internal_formats1_0B8_
FN:219,_RNCNvMNtNtCs1yu0zy1SNdm_13self_sensored6models10ios_modelsNtB4_16IosIngestPayload18to_internal_formats2_0B8_
FN:220,_RNCNvMNtNtCs1yu0zy1SNdm_13self_sensored6models10ios_modelsNtB4_16IosIngestPayload18to_internal_formats3_0B8_
FN:224,_RNCNvMNtNtCs1yu0zy1SNdm_13self_sensored6models10ios_modelsNtB4_16IosIngestPayload18to_internal_formats4_0B8_
FN:225,_RNCNvMNtNtCs1yu0zy1SNdm_13self_sensored6models10ios_modelsNtB4_16IosIngestPayload18to_internal_formats5_0B8_
FN:229,_RNCNvMNtNtCs1yu0zy1SNdm_13self_sensored6models10ios_modelsNtB4_16IosIngestPayload18to_internal_formats6_0B8_
FN:230,_RNCNvMNtNtCs1yu0zy1SNdm_13self_sensored6models10ios_modelsNtB4_16IosIngestPayload18to_internal_formats7_0B8_
FN:613,_RNCNvMNtNtCs1yu0zy1SNdm_13self_sensored6models10ios_modelsNtB4_16IosIngestPayload18to_internal_formats8_0B8_
FN:614,_RNCNvMNtNtCs1yu0zy1SNdm_13self_sensored6models10ios_modelsNtB4_16IosIngestPayload18to_internal_formats9_0B8_
FN:87,_RNCNvMNtNtCs1yu0zy1SNdm_13self_sensored6models10ios_modelsNtB4_16IosIngestPayload18to_internal_formats_0B8_
FN:615,_RNCNvMNtNtCs1yu0zy1SNdm_13self_sensored6models10ios_modelsNtB4_16IosIngestPayload18to_internal_formatsa_0B8_
FN:642,_RNCNvMNtNtCs1yu0zy1SNdm_13self_sensored6models10ios_modelsNtB4_16IosIngestPayload18to_internal_formatsb_0B8_
FN:646,_RNCNvMNtNtCs1yu0zy1SNdm_13self_sensored6models10ios_modelsNtB4_16IosIngestPayload18to_internal_formatsc_0B8_
FN:672,_RNCNvMNtNtCs1yu0zy1SNdm_13self_sensored6models10ios_modelsNtB4_16IosIngestPayload18to_internal_formatsd_0B8_
FN:676,_RNCNvMNtNtCs1yu0zy1SNdm_13self_sensored6models10ios_modelsNtB4_16IosIngestPayload18to_internal_formatse_0B8_
FN:694,_RNCNvMNtNtCs1yu0zy1SNdm_13self_sensored6models10ios_modelsNtB4_16IosIngestPayload18to_internal_formatsf_0B8_
FN:731,_RNCNvMNtNtCs1yu0zy1SNdm_13self_sensored6models10ios_modelsNtB4_16IosIngestPayload18to_internal_formatsg_0B8_
FN:772,_RNCNvMNtNtCs1yu0zy1SNdm_13self_sensored6models10ios_modelsNtB4_16IosIngestPayload18to_internal_formatsh_0B8_
FN:776,_RNCNvMNtNtCs1yu0zy1SNdm_13self_sensored6models10ios_modelsNtB4_16IosIngestPayload18to_internal_formatsi_0B8_
FN:780,_RNCNvMNtNtCs1yu0zy1SNdm_13self_sensored6models10ios_modelsNtB4_16IosIngestPayload18to_internal_formatsj_0B8_
FN:786,_RNCNvMNtNtCs1yu0zy1SNdm_13self_sensored6models10ios_modelsNtB4_16IosIngestPayload18to_internal_formatsk_0B8_
FN:787,_RNCNvMNtNtCs1yu0zy1SNdm_13self_sensored6models10ios_modelsNtB4_16IosIngestPayload18to_internal_formatsl_0B8_
FN:1148,_RNCNvMNtNtCs1yu0zy1SNdm_13self_sensored6models10ios_modelsNtB4_16IosIngestPayload18to_internal_formatsm_0B8_
FN:1149,_RNCNvMNtNtCs1yu0zy1SNdm_13self_sensored6models10ios_modelsNtB4_16IosIngestPayload18to_internal_formatsn_0B8_
FN:1154,_RNCNvMNtNtCs1yu0zy1SNdm_13self_sensored6models10ios_modelsNtB4_16IosIngestPayload18to_internal_formatso_0B8_
FN:1155,_RNCNvMNtNtCs1yu0zy1SNdm_13self_sensored6models10ios_modelsNtB4_16IosIngestPayload18to_internal_formatsp_0B8_
FN:1160,_RNCNvMNtNtCs1yu0zy1SNdm_13self_sensored6models10ios_modelsNtB4_16IosIngestPayload18to_internal_formatsq_0B8_
FN:1161,_RNCNvMNtNtCs1yu0zy1SNdm_13self_sensored6models10ios_modelsNtB4_16IosIngestPayload18to_internal_formatsr_0B8_
FN:1166,_RNCNvMNtNtCs1yu0zy1SNdm_13self_sensored6models10ios_modelsNtB4_16IosIngestPayload18to_internal_formatss_0B8_
FN:1167,_RNCNvMNtNtCs1yu0zy1SNdm_13self_sensored6models10ios_modelsNtB4_16IosIngestPayload18to_internal_formatst_0B8_
FN:1172,_RNCNvMNtNtCs1yu0zy1SNdm_13self_sensored6models10ios_modelsNtB4_16IosIngestPayload18to_internal_formatsu_0B8_
FN:1173,_RNCNvMNtNtCs1yu0zy1SNdm_13self_sensored6models10ios_modelsNtB4_16IosIngestPayload18to_internal_formatsv_0B8_
FN:1181,_RNCNvMNtNtCs1yu0zy1SNdm_13self_sensored6models10ios_modelsNtB4_16IosIngestPayload18to_internal_formatsw_0B8_
FN:71,_RNvMNtNtCs1yu0zy1SNdm_13self_sensored6models10ios_modelsNtB2_16IosIngestPayload18to_internal_format
FN:1242,_RNvNtNtCs1yu0zy1SNdm_13self_sensored6models10ios_models14parse_ios_date
FNDA:0,_RNCNvMNtNtCs1yu0zy1SNdm_13self_sensored6models10ios_modelsNtB4_16IosIngestPayload18to_internal_format0B8_
FNDA:0,_RNCNvMNtNtCs1yu0zy1SNdm_13self_sensored6models10ios_modelsNtB4_16IosIngestPayload18to_internal_formats0_0B8_
FNDA:0,_RNCNvMNtNtCs1yu0zy1SNdm_13self_sensored6models10ios_modelsNtB4_16IosIngestPayload18to_internal_formats1_0B8_
FNDA:0,_RNCNvMNtNtCs1yu0zy1SNdm_13self_sensored6models10ios_modelsNtB4_16IosIngestPayload18to_internal_formats2_0B8_
FNDA:0,_RNCNvMNtNtCs1yu0zy1SNdm_13self_sensored6models10ios_modelsNtB4_16IosIngestPayload18to_internal_formats3_0B8_
FNDA:0,_RNCNvMNtNtCs1yu0zy1SNdm_13self_sensored6models10ios_modelsNtB4_16IosIngestPayload18to_internal_formats4_0B8_
FNDA:0,_RNCNvMNtNtCs1yu0zy1SNdm_13self_sensored6models10ios_modelsNtB4_16IosIngestPayload18to_internal_formats5_0B8_
FNDA:0,_RNCNvMNtNtCs1yu0zy1SNdm_13self_sensored6models10ios_modelsNtB4_16IosIngestPayload18to_internal_formats6_0B8_
FNDA:0,_RNCNvMNtNtCs1yu0zy1SNdm_13self_sensored6models10ios_modelsNtB4_16IosIngestPayload18to_internal_formats7_0B8_
FNDA:0,_RNCNvMNtNtCs1yu0zy1SNdm_13self_sensored6models10ios_modelsNtB4_16IosIngestPayload18to_internal_formats8_0B8_
FNDA:0,_RNCNvMNtNtCs1yu0zy1SNdm_13self_sensored6models10ios_modelsNtB4_16IosIngestPayload18to_internal_formats9_0B8_
FNDA:0,_RNCNvMNtNtCs1yu0zy1SNdm_13self_sensored6models10ios_modelsNtB4_16IosIngestPayload18to_internal_formats_0B8_
FNDA:0,_RNCNvMNtNtCs1yu0zy1SNdm_13self_sensored6models10ios_modelsNtB4_16IosIngestPayload18to_internal_formatsa_0B8_
FNDA:0,_RNCNvMNtNtCs1yu0zy1SNdm_13self_sensored6models10ios_modelsNtB4_16IosIngestPayload18to_internal_formatsb_0B8_
FNDA:0,_RNCNvMNtNtCs1yu0zy1SNdm_13self_sensored6models10ios_modelsNtB4_16IosIngestPayload18to_internal_formatsc_0B8_
FNDA:0,_RNCNvMNtNtCs1yu0zy1SNdm_13self_sensored6models10ios_modelsNtB4_16IosIngestPayload18to_internal_formatsd_0B8_
FNDA:0,_RNCNvMNtNtCs1yu0zy1SNdm_13self_sensored6models10ios_modelsNtB4_16IosIngestPayload18to_internal_formatse_0B8_
FNDA:0,_RNCNvMNtNtCs1yu0zy1SNdm_13self_sensored6models10ios_modelsNtB4_16IosIngestPayload18to_internal_formatsf_0B8_
FNDA:0,_RNCNvMNtNtCs1yu0zy1SNdm_13self_sensored6models10ios_modelsNtB4_16IosIngestPayload18to_internal_formatsg_0B8_
FNDA:0,_RNCNvMNtNtCs1yu0zy1SNdm_13self_sensored6models10ios_modelsNtB4_16IosIngestPayload18to_internal_formatsh_0B8_
FNDA:0,_RNCNvMNtNtCs1yu0zy1SNdm_13self_sensored6models10ios_modelsNtB4_16IosIngestPayload18to_internal_formatsi_0B8_
FNDA:0,_RNCNvMNtNtCs1yu0zy1SNdm_13self_sensored6models10ios_modelsNtB4_16IosIngestPayload18to_internal_formatsj_0B8_
FNDA:0,_RNCNvMNtNtCs1yu0zy1SNdm_13self_sensored6models10ios_modelsNtB4_16IosIngestPayload18to_internal_formatsk_0B8_
FNDA:0,_RNCNvMNtNtCs1yu0zy1SNdm_13self_sensored6models10ios_modelsNtB4_16IosIngestPayload18to_internal_formatsl_0B8_
FNDA:0,_RNCNvMNtNtCs1yu0zy1SNdm_13self_sensored6models10ios_modelsNtB4_16IosIngestPayload18to_internal_formatsm_0B8_
FNDA:0,_RNCNvMNtNtCs1yu0zy1SNdm_13self_sensored6models10ios_modelsNtB4_16IosIngestPayload18to_internal_formatsn_0B8_
FNDA:0,_RNCNvMNtNtCs1yu0zy1SNdm_13self_sensored6models10ios_modelsNtB4_16IosIngestPayload18to_internal_formatso_0B8_
FNDA:0,_RNCNvMNtNtCs1yu0zy1SNdm_13self_sensored6models10ios_modelsNtB4_16IosIngestPayload18to_internal_formatsp_0B8_
FNDA:0,_RNCNvMNtNtCs1yu0zy1SNdm_13self_sensored6models10ios_modelsNtB4_16IosIngestPayload18to_internal_formatsq_0B8_
FNDA:0,_RNCNvMNtNtCs1yu0zy1SNdm_13self_sensored6models10ios_modelsNtB4_16IosIngestPayload18to_internal_formatsr_0B8_
FNDA:0,_RNCNvMNtNtCs1yu0zy1SNdm_13self_sensored6models10ios_modelsNtB4_16IosIngestPayload18to_internal_formatss_0B8_
FNDA:0,_RNCNvMNtNtCs1yu0zy1SNdm_13self_sensored6models10ios_modelsNtB4_16IosIngestPayload18to_internal_formatst_0B8_
FNDA:0,_RNCNvMNtNtCs1yu0zy1SNdm_13self_sensored6models10ios_modelsNtB4_16IosIngestPayload18to_internal_formatsu_0B8_
FNDA:0,_RNCNvMNtNtCs1yu0zy1SNdm_13self_sensored6models10ios_modelsNtB4_16IosIngestPayload18to_internal_formatsv_0B8_
FNDA:0,_RNCNvMNtNtCs1yu0zy1SNdm_13self_sensored6models10ios_modelsNtB4_16IosIngestPayload18to_internal_formatsw_0B8_
FNDA:0,_RNvMNtNtCs1yu0zy1SNdm_13self_sensored6models10ios_modelsNtB2_16IosIngestPayload18to_internal_format
FNDA:0,_RNvNtNtCs1yu0zy1SNdm_13self_sensored6models10ios_models14parse_ios_date
FNF:37
FNH:0
DA:71,0
DA:75,0
DA:76,0
DA:79,0
DA:82,0
DA:83,0
DA:85,0
DA:86,0
DA:87,0
DA:88,0
DA:91,0
DA:92,0
DA:98,0
DA:103,0
DA:105,0
DA:106,0
DA:107,0
DA:108,0
DA:109,0
DA:110,0
DA:111,0
DA:112,0
DA:113,0
DA:114,0
DA:115,0
DA:116,0
DA:118,0
DA:119,0
DA:120,0
DA:121,0
DA:124,0
DA:125,0
DA:126,0
DA:128,0
DA:129,0
DA:130,0
DA:131,0
DA:132,0
DA:133,0
DA:134,0
DA:136,0
DA:138,0
DA:141,0
DA:142,0
DA:143,0
DA:144,0
DA:146,0
DA:147,0
DA:148,0
DA:150,0
DA:153,0
DA:154,0
DA:157,0
DA:158,0
DA:160,0
DA:162,0
DA:163,0
DA:164,0
DA:167,0
DA:168,0
DA:169,0
DA:170,0
DA:171,0
DA:172,0
DA:173,0
DA:176,0
DA:177,0
DA:178,0
DA:180,0
DA:182,0
DA:183,0
DA:185,0
DA:186,0
DA:187,0
DA:188,0
DA:189,0
DA:190,0
DA:191,0
DA:194,0
DA:195,0
DA:196,0
DA:198,0
DA:200,0
DA:201,0
DA:204,0
DA:205,0
DA:206,0
DA:207,0
DA:208,0
DA:209,0
DA:211,0
DA:213,0
DA:216,0
DA:217,0
DA:218,0
DA:219,0
DA:220,0
DA:221,0
DA:222,0
DA:223,0
DA:224,0
DA:225,0
DA:226,0
DA:227,0
DA:228,0
DA:229,0
DA:230,0
DA:232,0
DA:233,0
DA:234,0
DA:235,0
DA:236,0
DA:237,0
DA:238,0
DA:239,0
DA:240,0
DA:241,0
DA:242,0
DA:243,0
DA:244,0
DA:245,0
DA:246,0
DA:249,0
DA:250,0
DA:252,0
DA:253,0
DA:255,0
DA:257,0
DA:258,0
DA:261,0
DA:262,0
DA:263,0
DA:264,0
DA:265,0
DA:266,0
DA:267,0
DA:268,0
DA:269,0
DA:270,0
DA:271,0
DA:272,0
DA:273,0
DA:274,0
DA:275,0
DA:276,0
DA:278,0
DA:279,0
DA:280,0
DA:281,0
DA:282,0
DA:283,0
DA:284,0
DA:285,0
DA:286,0
DA:287,0
DA:288,0
DA:289,0
DA:290,0
DA:291,0
DA:292,0
DA:293,0
DA:294,0
DA:295,0
DA:296,0
DA:297,0
DA:298,0
DA:299,0
DA:300,0
DA:301,0
DA:302,0
DA:303,0
DA:304,0
DA:306,0
DA:309,0
DA:310,0
DA:311,0
DA:312,0
DA:313,0
DA:314,0
DA:315,0
DA:316,0
DA:317,0
DA:319,0
DA:321,0
DA:323,0
DA:324,0
DA:325,0
DA:326,0
DA:327,0
DA:329,0
DA:331,0
DA:333,0
DA:334,0
DA:335,0
DA:336,0
DA:337,0
DA:339,0
DA:341,0
DA:343,0
DA:344,0
DA:345,0
DA:346,0
DA:348,0
DA:350,0
DA:352,0
DA:353,0
DA:354,0
DA:355,0
DA:357,0
DA:359,0
DA:362,0
DA:363,0
DA:365,0
DA:367,0
DA:369,0
DA:370,0
DA:372,0
DA:374,0
DA:376,0
DA:377,0
DA:379,0
DA:381,0
DA:383,0
DA:384,0
DA:386,0
DA:388,0
DA:390,0
DA:391,0
DA:393,0
DA:395,0
DA:397,0
DA:398,0
DA:400,0
DA:402,0
DA:404,0
DA:405,0
DA:407,0
DA:409,0
DA:411,0
DA:412,0
DA:414,0
DA:416,0
DA:418,0
DA:419,0
DA:421,0
DA:423,0
DA:425,0
DA:426,0
DA:428,0
DA:430,0
DA:432,0
DA:433,0
DA:435,0
DA:437,0
DA:441,0
DA:442,0
DA:444,0
DA:446,0
DA:447,0
DA:449,0
DA:451,0
DA:452,0
DA:454,0
DA:456,0
DA:457,0
DA:459,0
DA:461,0
DA:462,0
DA:464,0
DA:468,0
DA:469,0
DA:471,0
DA:473,0
DA:474,0
DA:476,0
DA:480,0
DA:481,0
DA:483,0
DA:485,0
DA:486,0
DA:488,0
DA:490,0
DA:491,0
DA:493,0
DA:495,0
DA:496,0
DA:498,0
DA:500,0
DA:501,0
DA:503,0
DA:507,0
DA:508,0
DA:510,0
DA:512,0
DA:513,0
DA:515,0
DA:517,0
DA:518,0
DA:520,0
DA:522,0
DA:523,0
DA:525,0
DA:529,0
DA:530,0
DA:532,0
DA:534,0
DA:536,0
DA:537,0
DA:539,0
DA:542,0
DA:543,0
DA:545,0
DA:546,0
DA:548,0
DA:550,0
DA:551,0
DA:552,0
DA:555,0
DA:556,0
DA:557,0
DA:558,0
DA:559,0
DA:560,0
DA:561,0
DA:562,0
DA:563,0
DA:564,0
DA:565,0
DA:567,0
DA:568,0
DA:569,0
DA:570,0
DA:571,0
DA:572,0
DA:573,0
DA:574,0
DA:575,0
DA:576,0
DA:578,0
DA:580,0
DA:582,0
DA:583,0
DA:584,0
DA:585,0
DA:587,0
DA:589,0
DA:591,0
DA:592,0
DA:593,0
DA:594,0
DA:595,0
DA:597,0
DA:599,0
DA:601,0
DA:602,0
DA:603,0
DA:604,0
DA:606,0
DA:608,0
DA:610,0
DA:611,0
DA:612,0
DA:613,0
DA:614,0
DA:615,0
DA:616,0
DA:617,0
DA:619,0
DA:620,0
DA:621,0
DA:625,0
DA:626,0
DA:627,0
DA:628,0
DA:629,0
DA:630,0
DA:631,0
DA:632,0
DA:633,0
DA:634,0
DA:635,0
DA:636,0
DA:637,0
DA:638,0
DA:639,0
DA:640,0
DA:641,0
DA:642,0
DA:643,0
DA:644,0
DA:645,0
DA:646,0
DA:647,0
DA:648,0
DA:650,0
DA:651,0
DA:652,0
DA:653,0
DA:655,0
DA:656,0
DA:657,0
DA:658,0
DA:659,0
DA:660,0
DA:661,0
DA:662,0
DA:663,0
DA:664,0
DA:665,0
DA:666,0
DA:667,0
DA:668,0
DA:669,0
DA:670,0
DA:671,0
DA:672,0
DA:673,0
DA:674,0
DA:675,0
DA:676,0
DA:677,0
DA:678,0
DA:680,0
DA:681,0
DA:682,0
DA:683,0
DA:686,0
DA:687,0
DA:688,0
DA:689,0
DA:690,0
DA:691,0
DA:692,0
DA:693,0
DA:694,0
DA:695,0
DA:698,0
DA:700,0
DA:701,0
DA:702,0
DA:703,0
DA:704,0
DA:705,0
DA:706,0
DA:707,0
DA:708,0
DA:709,0
DA:710,0
DA:711,0
DA:712,0
DA:713,0
DA:714,0
DA:715,0
DA:716,0
DA:717,0
DA:718,0
DA:719,0
DA:720,0
DA:721,0
DA:723,0
DA:724,0
DA:725,0
DA:726,0
DA:727,0
DA:728,0
DA:729,0
DA:730,0
DA:731,0
DA:732,0
DA:735,0
DA:737,0
DA:738,0
DA:739,0
DA:740,0
DA:741,0
DA:742,0
DA:743,0
DA:744,0
DA:745,0
DA:746,0
DA:747,0
DA:748,0
DA:749,0
DA:750,0
DA:751,0
DA:752,0
DA:753,0
DA:754,0
DA:755,0
DA:756,0
DA:757,0
DA:758,0
DA:760,0
DA:761,0
DA:762,0
DA:763,0
DA:764,0
DA:765,0
DA:766,0
DA:767,0
DA:768,0
DA:769,0
DA:770,0
DA:771,0
DA:772,0
DA:773,0
DA:774,0
DA:775,0
DA:776,0
DA:777,0
DA:778,0
DA:779,0
DA:780,0
DA:781,0
DA:782,0
DA:783,0
DA:784,0
DA:785,0
DA:786,0
DA:787,0
DA:788,0
DA:789,0
DA:791,0
DA:792,0
DA:793,0
DA:794,0
DA:797,0
DA:798,0
DA:799,0
DA:800,0
DA:801,0
DA:802,0
DA:803,0
DA:804,0
DA:805,0
DA:806,0
DA:807,0
DA:808,0
DA:809,0
DA:810,0
DA:811,0
DA:812,0
DA:813,0
DA:814,0
DA:815,0
DA:816,0
DA:817,0
DA:818,0
DA:819,0
DA:820,0
DA:821,0
DA:822,0
DA:823,0
DA:824,0
DA:825,0
DA:826,0
DA:828,0
DA:829,0
DA:830,0
DA:832,0
DA:833,0
DA:834,0
DA:835,0
DA:836,0
DA:837,0
DA:838,0
DA:840,0
DA:842,0
DA:845,0
DA:846,0
DA:847,0
DA:848,0
DA:849,0
DA:851,0
DA:852,0
DA:853,0
DA:854,0
DA:855,0
DA:856,0
DA:857,0
DA:859,0
DA:861,0
DA:863,0
DA:864,0
DA:865,0
DA:866,0
DA:867,0
DA:869,0
DA:871,0
DA:873,0
DA:874,0
DA:875,0
DA:876,0
DA:877,0
DA:879,0
DA:881,0
DA:883,0
DA:884,0
DA:885,0
DA:886,0
DA:887,0
DA:888,0
DA:890,0
DA:892,0
DA:895,0
DA:896,0
DA:897,0
DA:899,0
DA:901,0
DA:903,0
DA:904,0
DA:905,0
DA:906,0
DA:907,0
DA:909,0
DA:911,0
DA:913,0
DA:914,0
DA:915,0
DA:917,0
DA:919,0
DA:921,0
DA:922,0
DA:923,0
DA:925,0
DA:927,0
DA:929,0
DA:930,0
DA:931,0
DA:933,0
DA:935,0
DA:937,0
DA:938,0
DA:939,0
DA:941,0
DA:943,0
DA:946,0
DA:947,0
DA:949,0
DA:950,0
DA:951,0
DA:953,0
DA:954,0
DA:956,0
DA:957,0
DA:961,0
DA:965,0
DA:966,0
DA:973,0
DA:976,0
DA:977,0
DA:982,0
DA:986,0
DA:987,0
DA:988,0
DA:989,0
DA:990,0
DA:991,0
DA:992,0
DA:993,0
DA:994,0
DA:995,0
DA:996,0
DA:997,0
DA:998,0
DA:999,0
DA:1000,0
DA:1001,0
DA:1002,0
DA:1003,0
DA:1004,0
DA:1005,0
DA:1006,0
DA:1007,0
DA:1008,0
DA:1009,0
DA:1010,0
DA:1011,0
DA:1012,0
DA:1013,0
DA:1014,0
DA:1015,0
DA:1016,0
DA:1017,0
DA:1018,0
DA:1019,0
DA:1020,0
DA:1021,0
DA:1022,0
DA:1023,0
DA:1024,0
DA:1025,0
DA:1026,0
DA:1027,0
DA:1028,0
DA:1030,0
DA:1031,0
DA:1032,0
DA:1037,0
DA:1038,0
DA:1039,0
DA:1042,0
DA:1043,0
DA:1045,0
DA:1046,0
DA:1051,0
DA:1052,0
DA:1053,0
DA:1054,0
DA:1055,0
DA:1058,0
DA:1059,0
DA:1060,0
DA:1064,0
DA:1065,0
DA:1066,0
DA:1067,0
DA:1068,0
DA:1069,0
DA:1071,0
DA:1073,0
DA:1074,0
DA:1075,0
DA:1076,0
DA:1077,0
DA:1079,0
DA:1080,0
DA:1084,0
DA:1085,0
DA:1086,0
DA:1087,0
DA:1088,0
DA:1089,0
DA:1093,0
DA:1094,0
DA:1095,0
DA:1096,0
DA:1097,0
DA:1098,0
DA:1099,0
DA:1100,0
DA:1101,0
DA:1106,0
DA:1107,0
DA:1109,0
DA:1110,0
DA:1111,0
DA:1114,0
DA:1121,0
DA:1122,0
DA:1123,0
DA:1124,0
DA:1125,0
DA:1126,0
DA:1127,0
DA:1128,0
DA:1129,0
DA:1130,0
DA:1131,0
DA:1132,0
DA:1133,0
DA:1134,0
DA:1135,0
DA:1136,0
DA:1140,0
DA:1141,0
DA:1142,0
DA:1145,0
DA:1146,0
DA:1147,0
DA:1148,0
DA:1149,0
DA:1151,0
DA:1152,0
DA:1153,0
DA:1154,0
DA:1155,0
DA:1157,0
DA:1158,0
DA:1159,0
DA:1160,0
DA:1161,0
DA:1163,0
DA:1164,0
DA:1165,0
DA:1166,0
DA:1167,0
DA:1169,0
DA:1170,0
DA:1171,0
DA:1172,0
DA:1173,0
DA:1175,0
DA:1177,0
DA:1178,0
DA:1179,0
DA:1180,0
DA:1181,0
DA:1184,0
DA:1185,0
DA:1186,0
DA:1187,0
DA:1188,0
DA:1189,0
DA:1190,0
DA:1191,0
DA:1192,0
DA:1193,0
DA:1194,0
DA:1195,0
DA:1196,0
DA:1197,0
DA:1198,0
DA:1199,0
DA:1203,0
DA:1204,0
DA:1205,0
DA:1206,0
DA:1210,0
DA:1211,0
DA:1213,0
DA:1214,0
DA:1216,0
DA:1220,0
DA:1224,0
DA:1225,0
DA:1226,0
DA:1227,0
DA:1228,0
DA:1230,0
DA:1232,0
DA:1233,0
DA:1234,0
DA:1235,0
DA:1236,0
DA:1237,0
DA:1238,0
DA:1242,0
DA:1245,0
DA:1248,0
DA:1249,0
DA:1250,0
DA:1251,0
DA:1252,0
DA:1254,0
DA:1255,0
DA:1256,0
DA:1257,0
DA:1261,0
DA:1262,0
DA:1263,0
DA:1264,0
DA:1266,0
DA:1267,0
DA:1268,0
DA:1269,0
DA:1271,0
DA:1272,0
DA:1273,0
DA:1274,0
DA:1277,0
DA:1278,0
DA:1279,0
BRF:0
BRH:0
LF:898
LH:0
end_of_record
SF:/mnt/datadrive_m2/self-sensored/src/models/mod.rs
FN:56,_RNvMNtCs1yu0zy1SNdm_13self_sensored6modelsINtB2_11ApiResponsepE15error_with_dataB4_
FN:38,_RNvMNtCs1yu0zy1SNdm_13self_sensored6modelsINtB2_11ApiResponsepE20success_with_messageB4_
FN:47,_RNvMNtCs1yu0zy1SNdm_13self_sensored6modelsINtB2_11ApiResponsepE5errorB4_
FN:29,_RNvMNtCs1yu0zy1SNdm_13self_sensored6modelsINtB2_11ApiResponsepE7successB4_
FNDA:0,_RNvMNtCs1yu0zy1SNdm_13self_sensored6modelsINtB2_11ApiResponsepE15error_with_dataB4_
FNDA:0,_RNvMNtCs1yu0zy1SNdm_13self_sensored6modelsINtB2_11ApiResponsepE20success_with_messageB4_
FNDA:0,_RNvMNtCs1yu0zy1SNdm_13self_sensored6modelsINtB2_11ApiResponsepE5errorB4_
FNDA:0,_RNvMNtCs1yu0zy1SNdm_13self_sensored6modelsINtB2_11ApiResponsepE7successB4_
FNF:4
FNH:0
DA:29,0
DA:30,0
DA:31,0
DA:32,0
DA:33,0
DA:34,0
DA:35,0
DA:36,0
DA:38,0
DA:39,0
DA:40,0
DA:41,0
DA:42,0
DA:43,0
DA:44,0
DA:45,0
DA:47,0
DA:48,0
DA:49,0
DA:50,0
DA:51,0
DA:52,0
DA:53,0
DA:54,0
DA:56,0
DA:57,0
DA:58,0
DA:59,0
DA:60,0
DA:61,0
DA:62,0
DA:63,0
BRF:0
BRH:0
LF:32
LH:0
end_of_record
SF:/mnt/datadrive_m2/self-sensored/src/models/user_characteristics.rs
FN:88,_RNvMNtNtCs1yu0zy1SNdm_13self_sensored6models20user_characteristicsNtB2_19UserCharacteristics18completeness_score
FN:128,_RNvMNtNtCs1yu0zy1SNdm_13self_sensored6models20user_characteristicsNtB2_19UserCharacteristics20get_heart_rate_zones
FN:166,_RNvMNtNtCs1yu0zy1SNdm_13self_sensored6models20user_characteristicsNtB2_19UserCharacteristics22get_uv_recommendations
FN:176,_RNvMNtNtCs1yu0zy1SNdm_13self_sensored6models20user_characteristicsNtB2_19UserCharacteristics28get_activity_personalization
FN:80,_RNvMNtNtCs1yu0zy1SNdm_13self_sensored6models20user_characteristicsNtB2_19UserCharacteristics31is_complete_for_personalization
FN:71,_RNvMNtNtCs1yu0zy1SNdm_13self_sensored6models20user_characteristicsNtB2_19UserCharacteristics3age
FN:45,_RNvMNtNtCs1yu0zy1SNdm_13self_sensored6models20user_characteristicsNtB2_19UserCharacteristics3new
FN:239,_RNvMs_NtNtCs1yu0zy1SNdm_13self_sensored6models20user_characteristicsNtB4_24UserCharacteristicsInput13from_ios_data
FN:305,_RNvMs_NtNtCs1yu0zy1SNdm_13self_sensored6models20user_characteristicsNtB4_24UserCharacteristicsInput8apply_to
FN:412,_RNvNtNtCs1yu0zy1SNdm_13self_sensored6models20user_characteristics19validate_birth_date
FN:119,_RNCNvMNtNtCs1yu0zy1SNdm_13self_sensored6models20user_characteristicsNtB4_19UserCharacteristics18has_emergency_info0B8_
FN:188,_RNvMNtNtCs1yu0zy1SNdm_13self_sensored6models20user_characteristicsNtB2_19UserCharacteristics18get_emergency_info
FN:114,_RNvMNtNtCs1yu0zy1SNdm_13self_sensored6models20user_characteristicsNtB2_19UserCharacteristics18has_emergency_info
FN:123,_RNvMNtNtCs1yu0zy1SNdm_13self_sensored6models20user_characteristicsNtB2_19UserCharacteristics31has_relevant_medical_conditions
FN:361,_RNvMs0_NtNtCs1yu0zy1SNdm_13self_sensored6models20user_characteristicsNtB5_19PersonalizationInfo20from_characteristics
FN:441,_RNvNtNtNtCs1yu0zy1SNdm_13self_sensored6models20user_characteristics5testss_20test_age_calculation
FN:473,_RNvNtNtNtCs1yu0zy1SNdm_13self_sensored6models20user_characteristics5testss_21test_heart_rate_zones
FN:515,_RNvNtNtNtCs1yu0zy1SNdm_13self_sensored6models20user_characteristics5testss_21test_ios_data_parsing
FN:454,_RNvNtNtNtCs1yu0zy1SNdm_13self_sensored6models20user_characteristics5testss_23test_completeness_score
FN:487,_RNvNtNtNtCs1yu0zy1SNdm_13self_sensored6models20user_characteristics5testss_23test_uv_recommendations
FN:500,_RNvNtNtNtCs1yu0zy1SNdm_13self_sensored6models20user_characteristics5testss_29test_activity_personalization
FN:430,_RNvNtNtNtCs1yu0zy1SNdm_13self_sensored6models20user_characteristics5testss_34test_user_characteristics_creation
FN:287,_RNCNCNvMs_NtNtCs1yu0zy1SNdm_13self_sensored6models20user_characteristicsNtB8_24UserCharacteristicsInput13from_ios_datasc_00Bc_
FN:296,_RNCNCNvMs_NtNtCs1yu0zy1SNdm_13self_sensored6models20user_characteristicsNtB8_24UserCharacteristicsInput13from_ios_datase_00Bc_
FN:72,_RNCNvMNtNtCs1yu0zy1SNdm_13self_sensored6models20user_characteristicsNtB4_19UserCharacteristics3age0B8_
FN:242,_RNCNvMs_NtNtCs1yu0zy1SNdm_13self_sensored6models20user_characteristicsNtB6_24UserCharacteristicsInput13from_ios_data0Ba_
FN:249,_RNCNvMs_NtNtCs1yu0zy1SNdm_13self_sensored6models20user_characteristicsNtB6_24UserCharacteristicsInput13from_ios_datas0_0Ba_
FN:250,_RNCNvMs_NtNtCs1yu0zy1SNdm_13self_sensored6models20user_characteristicsNtB6_24UserCharacteristicsInput13from_ios_datas1_0Ba_
FN:255,_RNCNvMs_NtNtCs1yu0zy1SNdm_13self_sensored6models20user_characteristicsNtB6_24UserCharacteristicsInput13from_ios_datas2_0Ba_
FN:256,_RNCNvMs_NtNtCs1yu0zy1SNdm_13self_sensored6models20user_characteristicsNtB6_24UserCharacteristicsInput13from_ios_datas3_0Ba_
FN:257,_RNCNvMs_NtNtCs1yu0zy1SNdm_13self_sensored6models20user_characteristicsNtB6_24UserCharacteristicsInput13from_ios_datas4_0Ba_
FN:261,_RNCNvMs_NtNtCs1yu0zy1SNdm_13self_sensored6models20user_characteristicsNtB6_24UserCharacteristicsInput13from_ios_datas5_0Ba_
FN:266,_RNCNvMs_NtNtCs1yu0zy1SNdm_13self_sensored6models20user_characteristicsNtB6_24UserCharacteristicsInput13from_ios_datas6_0Ba_
FN:267,_RNCNvMs_NtNtCs1yu0zy1SNdm_13self_sensored6models20user_characteristicsNtB6_24UserCharacteristicsInput13from_ios_datas7_0Ba_
FN:272,_RNCNvMs_NtNtCs1yu0zy1SNdm_13self_sensored6models20user_characteristicsNtB6_24UserCharacteristicsInput13from_ios_datas8_0Ba_
FN:276,_RNCNvMs_NtNtCs1yu0zy1SNdm_13self_sensored6models20user_characteristicsNtB6_24UserCharacteristicsInput13from_ios_datas9_0Ba_
FN:243,_RNCNvMs_NtNtCs1yu0zy1SNdm_13self_sensored6models20user_characteristicsNtB6_24UserCharacteristicsInput13from_ios_datas_0Ba_
FN:277,_RNCNvMs_NtNtCs1yu0zy1SNdm_13self_sensored6models20user_characteristicsNtB6_24UserCharacteristicsInput13from_ios_datasa_0Ba_
FN:284,_RNCNvMs_NtNtCs1yu0zy1SNdm_13self_sensored6models20user_characteristicsNtB6_24UserCharacteristicsInput13from_ios_datasb_0Ba_
FN:285,_RNCNvMs_NtNtCs1yu0zy1SNdm_13self_sensored6models20user_characteristicsNtB6_24UserCharacteristicsInput13from_ios_datasc_0Ba_
FN:293,_RNCNvMs_NtNtCs1yu0zy1SNdm_13self_sensored6models20user_characteristicsNtB6_24UserCharacteristicsInput13from_ios_datasd_0Ba_
FN:294,_RNCNvMs_NtNtCs1yu0zy1SNdm_13self_sensored6models20user_characteristicsNtB6_24UserCharacteristicsInput13from_ios_datase_0Ba_
FNDA:3,_RNvMNtNtCs1yu0zy1SNdm_13self_sensored6models20user_characteristicsNtB2_19UserCharacteristics18completeness_score
FNDA:1,_RNvMNtNtCs1yu0zy1SNdm_13self_sensored6models20user_characteristicsNtB2_19UserCharacteristics20get_heart_rate_zones
FNDA:1,_RNvMNtNtCs1yu0zy1SNdm_13self_sensored6models20user_characteristicsNtB2_19UserCharacteristics22get_uv_recommendations
FNDA:1,_RNvMNtNtCs1yu0zy1SNdm_13self_sensored6models20user_characteristicsNtB2_19UserCharacteristics28get_activity_personalization
FNDA:2,_RNvMNtNtCs1yu0zy1SNdm_13self_sensored6models20user_characteristicsNtB2_19UserCharacteristics31is_complete_for_personalization
FNDA:4,_RNvMNtNtCs1yu0zy1SNdm_13self_sensored6models20user_characteristicsNtB2_19UserCharacteristics3age
FNDA:8,_RNvMNtNtCs1yu0zy1SNdm_13self_sensored6models20user_characteristicsNtB2_19UserCharacteristics3new
FNDA:1,_RNvMs_NtNtCs1yu0zy1SNdm_13self_sensored6models20user_characteristicsNtB4_24UserCharacteristicsInput13from_ios_data
FNDA:2,_RNvMs_NtNtCs1yu0zy1SNdm_13self_sensored6models20user_characteristicsNtB4_24UserCharacteristicsInput8apply_to
FNDA:2,_RNvNtNtCs1yu0zy1SNdm_13self_sensored6models20user_characteristics19validate_birth_date
FNDA:0,_RNCNvMNtNtCs1yu0zy1SNdm_13self_sensored6models20user_characteristicsNtB4_19UserCharacteristics18has_emergency_info0B8_
FNDA:0,_RNvMNtNtCs1yu0zy1SNdm_13self_sensored6models20user_characteristicsNtB2_19UserCharacteristics18get_emergency_info
FNDA:0,_RNvMNtNtCs1yu0zy1SNdm_13self_sensored6models20user_characteristicsNtB2_19UserCharacteristics18has_emergency_info
FNDA:0,_RNvMNtNtCs1yu0zy1SNdm_13self_sensored6models20user_characteristicsNtB2_19UserCharacteristics31has_relevant_medical_conditions
FNDA:0,_RNvMs0_NtNtCs1yu0zy1SNdm_13self_sensored6models20user_characteristicsNtB5_19PersonalizationInfo20from_characteristics
FNDA:1,_RNvNtNtNtCs1yu0zy1SNdm_13self_sensored6models20user_characteristics5testss_20test_age_calculation
FNDA:1,_RNvNtNtNtCs1yu0zy1SNdm_13self_sensored6models20user_characteristics5testss_21test_heart_rate_zones
FNDA:1,_RNvNtNtNtCs1yu0zy1SNdm_13self_sensored6models20user_characteristics5testss_21test_ios_data_parsing
FNDA:1,_RNvNtNtNtCs1yu0zy1SNdm_13self_sensored6models20user_characteristics5testss_23test_completeness_score
FNDA:1,_RNvNtNtNtCs1yu0zy1SNdm_13self_sensored6models20user_characteristics5testss_23test_uv_recommendations
FNDA:1,_RNvNtNtNtCs1yu0zy1SNdm_13self_sensored6models20user_characteristics5testss_29test_activity_personalization
FNDA:1,_RNvNtNtNtCs1yu0zy1SNdm_13self_sensored6models20user_characteristics5testss_34test_user_characteristics_creation
FNDA:0,_RNCNCNvMs_NtNtCs1yu0zy1SNdm_13self_sensored6models20user_characteristicsNtB8_24UserCharacteristicsInput13from_ios_datasc_00Bc_
FNDA:0,_RNCNCNvMs_NtNtCs1yu0zy1SNdm_13self_sensored6models20user_characteristicsNtB8_24UserCharacteristicsInput13from_ios_datase_00Bc_
FNDA:4,_RNCNvMNtNtCs1yu0zy1SNdm_13self_sensored6models20user_characteristicsNtB4_19UserCharacteristics3age0B8_
FNDA:0,_RNCNvMs_NtNtCs1yu0zy1SNdm_13self_sensored6models20user_characteristicsNtB6_24UserCharacteristicsInput13from_ios_data0Ba_
FNDA:0,_RNCNvMs_NtNtCs1yu0zy1SNdm_13self_sensored6models20user_characteristicsNtB6_24UserCharacteristicsInput13from_ios_datas0_0Ba_
FNDA:1,_RNCNvMs_NtNtCs1yu0zy1SNdm_13self_sensored6models20user_characteristicsNtB6_24UserCharacteristicsInput13from_ios_datas1_0Ba_
FNDA:0,_RNCNvMs_NtNtCs1yu0zy1SNdm_13self_sensored6models20user_characteristicsNtB6_24UserCharacteristicsInput13from_ios_datas2_0Ba_
FNDA:1,_RNCNvMs_NtNtCs1yu0zy1SNdm_13self_sensored6models20user_characteristicsNtB6_24UserCharacteristicsInput13from_ios_datas3_0Ba_
FNDA:1,_RNCNvMs_NtNtCs1yu0zy1SNdm_13self_sensored6models20user_characteristicsNtB6_24UserCharacteristicsInput13from_ios_datas4_0Ba_
FNDA:1,_RNCNvMs_NtNtCs1yu0zy1SNdm_13self_sensored6models20user_characteristicsNtB6_24UserCharacteristicsInput13from_ios_datas5_0Ba_
FNDA:0,_RNCNvMs_NtNtCs1yu0zy1SNdm_13self_sensored6models20user_characteristicsNtB6_24UserCharacteristicsInput13from_ios_datas6_0Ba_
FNDA:1,_RNCNvMs_NtNtCs1yu0zy1SNdm_13self_sensored6models20user_characteristicsNtB6_24UserCharacteristicsInput13from_ios_datas7_0Ba_
FNDA:1,_RNCNvMs_NtNtCs1yu0zy1SNdm_13self_sensored6models20user_characteristicsNtB6_24UserCharacteristicsInput13from_ios_datas8_0Ba_
FNDA:0,_RNCNvMs_NtNtCs1yu0zy1SNdm_13self_sensored6models20user_characteristicsNtB6_24UserCharacteristicsInput13from_ios_datas9_0Ba_
FNDA:0,_RNCNvMs_NtNtCs1yu0zy1SNdm_13self_sensored6models20user_characteristicsNtB6_24UserCharacteristicsInput13from_ios_datas_0Ba_
FNDA:1,_RNCNvMs_NtNtCs1yu0zy1SNdm_13self_sensored6models20user_characteristicsNtB6_24UserCharacteristicsInput13from_ios_datasa_0Ba_
FNDA:0,_RNCNvMs_NtNtCs1yu0zy1SNdm_13self_sensored6models20user_characteristicsNtB6_24UserCharacteristicsInput13from_ios_datasb_0Ba_
FNDA:0,_RNCNvMs_NtNtCs1yu0zy1SNdm_13self_sensored6models20user_characteristicsNtB6_24UserCharacteristicsInput13from_ios_datasc_0Ba_
FNDA:0,_RNCNvMs_NtNtCs1yu0zy1SNdm_13self_sensored6models20user_characteristicsNtB6_24UserCharacteristicsInput13from_ios_datasd_0Ba_
FNDA:0,_RNCNvMs_NtNtCs1yu0zy1SNdm_13self_sensored6models20user_characteristicsNtB6_24UserCharacteristicsInput13from_ios_datase_0Ba_
FNF:42
FNH:25
DA:45,8
DA:46,8
DA:47,8
DA:48,8
DA:49,8
DA:50,8
DA:51,8
DA:52,8
DA:53,8
DA:54,8
DA:55,8
DA:56,8
DA:57,8
DA:58,8
DA:59,8
DA:60,8
DA:61,8
DA:62,8
DA:63,8
DA:64,8
DA:65,8
DA:66,8
DA:67,8
DA:68,8
DA:71,4
DA:72,4
DA:73,4
DA:75,4
DA:76,4
DA:77,4
DA:80,2
DA:81,2
DA:82,1
DA:83,1
DA:84,1
DA:85,2
DA:88,3
DA:89,3
DA:90,3
DA:92,3
DA:93,1
DA:94,2
DA:95,3
DA:96,1
DA:97,2
DA:98,3
DA:99,1
DA:100,2
DA:101,3
DA:102,1
DA:103,2
DA:105,3
DA:106,3
DA:107,1
DA:108,2
DA:110,3
DA:111,3
DA:114,0
DA:115,0
DA:116,0
DA:117,0
DA:118,0
DA:119,0
DA:120,0
DA:123,0
DA:124,0
DA:125,0
DA:128,1
DA:129,1
DA:130,1
DA:131,1
DA:134,1
DA:135,1
DA:137,1
DA:138,1
DA:139,1
DA:140,1
DA:141,1
DA:142,1
DA:143,1
DA:145,1
DA:146,1
DA:147,1
DA:149,1
DA:150,1
DA:151,1
DA:153,1
DA:154,1
DA:155,1
DA:157,1
DA:158,1
DA:159,1
DA:163,1
DA:166,1
DA:167,1
DA:168,1
DA:169,1
DA:170,1
DA:171,1
DA:173,1
DA:176,1
DA:177,1
DA:178,1
DA:179,1
DA:180,1
DA:181,1
DA:182,1
DA:183,1
DA:185,1
DA:188,0
DA:189,0
DA:190,0
DA:191,0
DA:192,0
DA:193,0
DA:194,0
DA:195,0
DA:197,0
DA:239,1
DA:240,1
DA:241,1
DA:242,1
DA:243,1
DA:244,1
DA:247,1
DA:248,1
DA:249,1
DA:250,1
DA:251,1
DA:253,1
DA:254,1
DA:255,1
DA:256,1
DA:257,1
DA:259,1
DA:260,1
DA:261,1
DA:262,1
DA:264,1
DA:265,1
DA:266,1
DA:267,1
DA:268,1
DA:270,1
DA:271,1
DA:272,1
DA:274,1
DA:275,1
DA:276,1
DA:277,1
DA:278,1
DA:280,1
DA:282,1
DA:283,1
DA:284,1
DA:285,1
DA:286,0
DA:287,0
DA:288,0
DA:289,0
DA:291,1
DA:292,1
DA:293,1
DA:294,1
DA:295,0
DA:296,0
DA:297,0
DA:298,0
DA:300,1
DA:302,1
DA:305,2
DA:306,2
DA:307,2
DA:308,2
DA:309,2
DA:310,2
DA:311,2
DA:312,2
DA:313,1
DA:314,1
DA:315,2
DA:316,1
DA:317,1
DA:318,2
DA:319,2
DA:320,2
DA:321,2
DA:322,1
DA:323,1
DA:324,2
DA:325,0
DA:326,2
DA:327,2
DA:328,0
DA:329,2
DA:330,2
DA:331,0
DA:332,2
DA:333,2
DA:334,0
DA:335,2
DA:337,2
DA:338,2
DA:361,0
DA:362,0
DA:363,0
DA:365,0
DA:366,0
DA:367,0
DA:368,0
DA:369,0
DA:371,0
DA:372,0
DA:373,0
DA:374,0
DA:375,0
DA:377,0
DA:378,0
DA:379,0
DA:380,0
DA:381,0
DA:383,0
DA:384,0
DA:385,0
DA:386,0
DA:387,0
DA:389,0
DA:390,0
DA:391,0
DA:392,0
DA:393,0
DA:395,0
DA:396,0
DA:397,0
DA:399,0
DA:400,0
DA:401,0
DA:402,0
DA:403,0
DA:404,0
DA:405,0
DA:406,0
DA:407,0
DA:408,0
DA:412,2
DA:413,2
DA:414,2
DA:415,2
DA:417,2
DA:418,0
DA:419,2
DA:421,2
DA:422,2
DA:430,1
DA:431,1
DA:432,1
DA:434,1
DA:435,1
DA:436,1
DA:437,1
DA:438,1
DA:441,1
DA:442,1
DA:443,1
DA:446,1
DA:447,1
DA:449,1
DA:450,1
DA:451,1
DA:454,1
DA:455,1
DA:456,1
DA:459,1
DA:461,1
DA:462,1
DA:463,1
DA:464,1
DA:465,1
DA:468,1
DA:469,1
DA:470,1
DA:473,1
DA:474,1
DA:475,1
DA:476,1
DA:477,1
DA:479,1
DA:482,1
DA:483,1
DA:484,1
DA:487,1
DA:488,1
DA:489,1
DA:490,1
DA:492,1
DA:494,1
DA:495,1
DA:496,1
DA:497,1
DA:500,1
DA:501,1
DA:502,1
DA:503,1
DA:504,1
DA:506,1
DA:508,1
DA:509,1
DA:510,1
DA:511,1
DA:512,1
DA:515,1
DA:516,1
DA:517,1
DA:518,1
DA:519,1
DA:520,1
DA:521,1
DA:522,1
DA:523,1
DA:527,1
DA:529,1
DA:530,1
DA:531,1
DA:532,1
DA:535,1
DA:536,1
DA:537,1
DA:540,1
BRF:0
BRH:0
LF:349
LH:263
end_of_record
SF:/mnt/datadrive_m2/self-sensored/src/services/auth.rs
FN:850,_RNCNCNvMs_NtNtCs1yu0zy1SNdm_13self_sensored8services4authNtB8_11AuthService13list_api_keys00Bc_
FN:783,_RNCNCNvMs_NtNtCs1yu0zy1SNdm_13self_sensored8services4authNtB8_11AuthService17get_user_by_email00Bc_
FN:799,_RNCNvMs_NtNtCs1yu0zy1SNdm_13self_sensored8services4authNtB6_11AuthService11create_user0Ba_
FN:370,_RNCNvMs_NtNtCs1yu0zy1SNdm_13self_sensored8services4authNtB6_11AuthService12authenticate0Ba_
FN:272,_RNCNvMs_NtNtCs1yu0zy1SNdm_13self_sensored8services4authNtB6_11AuthService12hash_api_key0Ba_
FN:825,_RNCNvMs_NtNtCs1yu0zy1SNdm_13self_sensored8services4authNtB6_11AuthService13list_api_keys0Ba_
FN:311,_RNCNvMs_NtNtCs1yu0zy1SNdm_13self_sensored8services4authNtB6_11AuthService14create_api_key0Ba_
FN:974,_RNCNvMs_NtNtCs1yu0zy1SNdm_13self_sensored8services4authNtB6_11AuthService14has_permission0Ba_
FN:978,_RNCNvMs_NtNtCs1yu0zy1SNdm_13self_sensored8services4authNtB6_11AuthService14has_permissions_0Ba_
FN:866,_RNCNvMs_NtNtCs1yu0zy1SNdm_13self_sensored8services4authNtB6_11AuthService14revoke_api_key0Ba_
FN:280,_RNCNvMs_NtNtCs1yu0zy1SNdm_13self_sensored8services4authNtB6_11AuthService14verify_api_key0Ba_
FN:936,_RNCNvMs_NtNtCs1yu0zy1SNdm_13self_sensored8services4authNtB6_11AuthService15get_cache_stats0Ba_
FN:896,_RNCNvMs_NtNtCs1yu0zy1SNdm_13self_sensored8services4authNtB6_11AuthService15log_audit_event0Ba_
FN:166,_RNCNvMs_NtNtCs1yu0zy1SNdm_13self_sensored8services4authNtB6_11AuthService16check_auth_cache0Ba_
FN:758,_RNCNvMs_NtNtCs1yu0zy1SNdm_13self_sensored8services4authNtB6_11AuthService16update_last_used0Ba_
FN:206,_RNCNvMs_NtNtCs1yu0zy1SNdm_13self_sensored8services4authNtB6_11AuthService17cache_auth_result0Ba_
FN:770,_RNCNvMs_NtNtCs1yu0zy1SNdm_13self_sensored8services4authNtB6_11AuthService17get_user_by_email0Ba_
FN:951,_RNCNvMs_NtNtCs1yu0zy1SNdm_13self_sensored8services4authNtB6_11AuthService20has_admin_permission0Ba_
FN:955,_RNCNvMs_NtNtCs1yu0zy1SNdm_13self_sensored8services4authNtB6_11AuthService20has_admin_permissions_0Ba_
FN:917,_RNCNvMs_NtNtCs1yu0zy1SNdm_13self_sensored8services4authNtB6_11AuthService21get_rate_limit_status0Ba_
FN:234,_RNCNvMs_NtNtCs1yu0zy1SNdm_13self_sensored8services4authNtB6_11AuthService21invalidate_auth_cache0Ba_
FN:248,_RNCNvMs_NtNtCs1yu0zy1SNdm_13self_sensored8services4authNtB6_11AuthService26invalidate_user_auth_cache0Ba_
FN:69,_RNvMNtNtCs1yu0zy1SNdm_13self_sensored8services4authNtB2_11AuthContext15new_for_testing
FN:794,_RNvMs_NtNtCs1yu0zy1SNdm_13self_sensored8services4authNtB4_11AuthService11create_user
FN:365,_RNvMs_NtNtCs1yu0zy1SNdm_13self_sensored8services4authNtB4_11AuthService12authenticate
FN:267,_RNvMs_NtNtCs1yu0zy1SNdm_13self_sensored8services4authNtB4_11AuthService12hash_api_key
FN:825,_RNvMs_NtNtCs1yu0zy1SNdm_13self_sensored8services4authNtB4_11AuthService13list_api_keys
FN:304,_RNvMs_NtNtCs1yu0zy1SNdm_13self_sensored8services4authNtB4_11AuthService14create_api_key
FN:965,_RNvMs_NtNtCs1yu0zy1SNdm_13self_sensored8services4authNtB4_11AuthService14has_permission
FN:293,_RNvMs_NtNtCs1yu0zy1SNdm_13self_sensored8services4authNtB4_11AuthService14is_argon2_hash
FN:135,_RNvMs_NtNtCs1yu0zy1SNdm_13self_sensored8services4authNtB4_11AuthService14new_with_cache
FN:866,_RNvMs_NtNtCs1yu0zy1SNdm_13self_sensored8services4authNtB4_11AuthService14revoke_api_key
FN:278,_RNvMs_NtNtCs1yu0zy1SNdm_13self_sensored8services4authNtB4_11AuthService14verify_api_key
FN:936,_RNvMs_NtNtCs1yu0zy1SNdm_13self_sensored8services4authNtB4_11AuthService15get_cache_stats
FN:887,_RNvMs_NtNtCs1yu0zy1SNdm_13self_sensored8services4authNtB4_11AuthService15log_audit_event
FN:166,_RNvMs_NtNtCs1yu0zy1SNdm_13self_sensored8services4authNtB4_11AuthService16check_auth_cache
FN:260,_RNvMs_NtNtCs1yu0zy1SNdm_13self_sensored8services4authNtB4_11AuthService16generate_api_key
FN:758,_RNvMs_NtNtCs1yu0zy1SNdm_13self_sensored8services4authNtB4_11AuthService16update_last_used
FN:206,_RNvMs_NtNtCs1yu0zy1SNdm_13self_sensored8services4authNtB4_11AuthService17cache_auth_result
FN:770,_RNvMs_NtNtCs1yu0zy1SNdm_13self_sensored8services4authNtB4_11AuthService17get_user_by_email
FN:931,_RNvMs_NtNtCs1yu0zy1SNdm_13self_sensored8services4authNtB4_11AuthService18is_caching_enabled
FN:945,_RNvMs_NtNtCs1yu0zy1SNdm_13self_sensored8services4authNtB4_11AuthService20has_admin_permission
FN:914,_RNvMs_NtNtCs1yu0zy1SNdm_13self_sensored8services4authNtB4_11AuthService21get_rate_limit_status
FN:234,_RNvMs_NtNtCs1yu0zy1SNdm_13self_sensored8services4authNtB4_11AuthService21invalidate_auth_cache
FN:131,_RNvMs_NtNtCs1yu0zy1SNdm_13self_sensored8services4authNtB4_11AuthService21new_with_rate_limiter
FN:926,_RNvMs_NtNtCs1yu0zy1SNdm_13self_sensored8services4authNtB4_11AuthService24is_rate_limiting_enabled
FN:158,_RNvMs_NtNtCs1yu0zy1SNdm_13self_sensored8services4authNtB4_11AuthService26generate_api_key_cache_key
FN:248,_RNvMs_NtNtCs1yu0zy1SNdm_13self_sensored8services4authNtB4_11AuthService26invalidate_user_auth_cache
FN:127,_RNvMs_NtNtCs1yu0zy1SNdm_13self_sensored8services4authNtB4_11AuthService3new
FN:153,_RNvMs_NtNtCs1yu0zy1SNdm_13self_sensored8services4authNtB4_11AuthService4pool
FNDA:0,_RNCNCNvMs_NtNtCs1yu0zy1SNdm_13self_sensored8services4authNtB8_11AuthService13list_api_keys00Bc_
FNDA:0,_RNCNCNvMs_NtNtCs1yu0zy1SNdm_13self_sensored8services4authNtB8_11AuthService17get_user_by_email00Bc_
FNDA:0,_RNCNvMs_NtNtCs1yu0zy1SNdm_13self_sensored8services4authNtB6_11AuthService11create_user0Ba_
FNDA:0,_RNCNvMs_NtNtCs1yu0zy1SNdm_13self_sensored8services4authNtB6_11AuthService12authenticate0Ba_
FNDA:0,_RNCNvMs_NtNtCs1yu0zy1SNdm_13self_sensored8services4authNtB6_11AuthService12hash_api_key0Ba_
FNDA:0,_RNCNvMs_NtNtCs1yu0zy1SNdm_13self_sensored8services4authNtB6_11AuthService13list_api_keys0Ba_
FNDA:0,_RNCNvMs_NtNtCs1yu0zy1SNdm_13self_sensored8services4authNtB6_11AuthService14create_api_key0Ba_
FNDA:0,_RNCNvMs_NtNtCs1yu0zy1SNdm_13self_sensored8services4authNtB6_11AuthService14has_permission0Ba_
FNDA:0,_RNCNvMs_NtNtCs1yu0zy1SNdm_13self_sensored8services4authNtB6_11AuthService14has_permissions_0Ba_
FNDA:0,_RNCNvMs_NtNtCs1yu0zy1SNdm_13self_sensored8services4authNtB6_11AuthService14revoke_api_key0Ba_
FNDA:0,_RNCNvMs_NtNtCs1yu0zy1SNdm_13self_sensored8services4authNtB6_11AuthService14verify_api_key0Ba_
FNDA:0,_RNCNvMs_NtNtCs1yu0zy1SNdm_13self_sensored8services4authNtB6_11AuthService15get_cache_stats0Ba_
FNDA:0,_RNCNvMs_NtNtCs1yu0zy1SNdm_13self_sensored8services4authNtB6_11AuthService15log_audit_event0Ba_
FNDA:0,_RNCNvMs_NtNtCs1yu0zy1SNdm_13self_sensored8services4authNtB6_11AuthService16check_auth_cache0Ba_
FNDA:0,_RNCNvMs_NtNtCs1yu0zy1SNdm_13self_sensored8services4authNtB6_11AuthService16update_last_used0Ba_
FNDA:0,_RNCNvMs_NtNtCs1yu0zy1SNdm_13self_sensored8services4authNtB6_11AuthService17cache_auth_result0Ba_
FNDA:0,_RNCNvMs_NtNtCs1yu0zy1SNdm_13self_sensored8services4authNtB6_11AuthService17get_user_by_email0Ba_
FNDA:0,_RNCNvMs_NtNtCs1yu0zy1SNdm_13self_sensored8services4authNtB6_11AuthService20has_admin_permission0Ba_
FNDA:0,_RNCNvMs_NtNtCs1yu0zy1SNdm_13self_sensored8services4authNtB6_11AuthService20has_admin_permissions_0Ba_
FNDA:0,_RNCNvMs_NtNtCs1yu0zy1SNdm_13self_sensored8services4authNtB6_11AuthService21get_rate_limit_status0Ba_
FNDA:0,_RNCNvMs_NtNtCs1yu0zy1SNdm_13self_sensored8services4authNtB6_11AuthService21invalidate_auth_cache0Ba_
FNDA:0,_RNCNvMs_NtNtCs1yu0zy1SNdm_13self_sensored8services4authNtB6_11AuthService26invalidate_user_auth_cache0Ba_
FNDA:0,_RNvMNtNtCs1yu0zy1SNdm_13self_sensored8services4authNtB2_11AuthContext15new_for_testing
FNDA:0,_RNvMs_NtNtCs1yu0zy1SNdm_13self_sensored8services4authNtB4_11AuthService11create_user
FNDA:0,_RNvMs_NtNtCs1yu0zy1SNdm_13self_sensored8services4authNtB4_11AuthService12authenticate
FNDA:0,_RNvMs_NtNtCs1yu0zy1SNdm_13self_sensored8services4authNtB4_11AuthService12hash_api_key
FNDA:0,_RNvMs_NtNtCs1yu0zy1SNdm_13self_sensored8services4authNtB4_11AuthService13list_api_keys
FNDA:0,_RNvMs_NtNtCs1yu0zy1SNdm_13self_sensored8services4authNtB4_11AuthService14create_api_key
FNDA:0,_RNvMs_NtNtCs1yu0zy1SNdm_13self_sensored8services4authNtB4_11AuthService14has_permission
FNDA:0,_RNvMs_NtNtCs1yu0zy1SNdm_13self_sensored8services4authNtB4_11AuthService14is_argon2_hash
FNDA:0,_RNvMs_NtNtCs1yu0zy1SNdm_13self_sensored8services4authNtB4_11AuthService14new_with_cache
FNDA:0,_RNvMs_NtNtCs1yu0zy1SNdm_13self_sensored8services4authNtB4_11AuthService14revoke_api_key
FNDA:0,_RNvMs_NtNtCs1yu0zy1SNdm_13self_sensored8services4authNtB4_11AuthService14verify_api_key
FNDA:0,_RNvMs_NtNtCs1yu0zy1SNdm_13self_sensored8services4authNtB4_11AuthService15get_cache_stats
FNDA:0,_RNvMs_NtNtCs1yu0zy1SNdm_13self_sensored8services4authNtB4_11AuthService15log_audit_event
FNDA:0,_RNvMs_NtNtCs1yu0zy1SNdm_13self_sensored8services4authNtB4_11AuthService16check_auth_cache
FNDA:0,_RNvMs_NtNtCs1yu0zy1SNdm_13self_sensored8services4authNtB4_11AuthService16generate_api_key
FNDA:0,_RNvMs_NtNtCs1yu0zy1SNdm_13self_sensored8services4authNtB4_11AuthService16update_last_used
FNDA:0,_RNvMs_NtNtCs1yu0zy1SNdm_13self_sensored8services4authNtB4_11AuthService17cache_auth_result
FNDA:0,_RNvMs_NtNtCs1yu0zy1SNdm_13self_sensored8services4authNtB4_11AuthService17get_user_by_email
FNDA:0,_RNvMs_NtNtCs1yu0zy1SNdm_13self_sensored8services4authNtB4_11AuthService18is_caching_enabled
FNDA:0,_RNvMs_NtNtCs1yu0zy1SNdm_13self_sensored8services4authNtB4_11AuthService20has_admin_permission
FNDA:0,_RNvMs_NtNtCs1yu0zy1SNdm_13self_sensored8services4authNtB4_11AuthService21get_rate_limit_status
FNDA:0,_RNvMs_NtNtCs1yu0zy1SNdm_13self_sensored8services4authNtB4_11AuthService21invalidate_auth_cache
FNDA:0,_RNvMs_NtNtCs1yu0zy1SNdm_13self_sensored8services4authNtB4_11AuthService21new_with_rate_limiter
FNDA:0,_RNvMs_NtNtCs1yu0zy1SNdm_13self_sensored8services4authNtB4_11AuthService24is_rate_limiting_enabled
FNDA:0,_RNvMs_NtNtCs1yu0zy1SNdm_13self_sensored8services4authNtB4_11AuthService26generate_api_key_cache_key
FNDA:0,_RNvMs_NtNtCs1yu0zy1SNdm_13self_sensored8services4authNtB4_11AuthService26invalidate_user_auth_cache
FNDA:0,_RNvMs_NtNtCs1yu0zy1SNdm_13self_sensored8services4authNtB4_11AuthService3new
FNDA:0,_RNvMs_NtNtCs1yu0zy1SNdm_13self_sensored8services4authNtB4_11AuthService4pool
FNF:50
FNH:0
DA:69,0
DA:70,0
DA:71,0
DA:72,0
DA:73,0
DA:74,0
DA:75,0
DA:76,0
DA:77,0
DA:78,0
DA:79,0
DA:80,0
DA:81,0
DA:82,0
DA:83,0
DA:84,0
DA:85,0
DA:86,0
DA:87,0
DA:88,0
DA:89,0
DA:90,0
DA:91,0
DA:92,0
DA:127,0
DA:128,0
DA:129,0
DA:131,0
DA:132,0
DA:133,0
DA:135,0
DA:136,0
DA:137,0
DA:138,0
DA:139,0
DA:141,0
DA:143,0
DA:144,0
DA:145,0
DA:146,0
DA:147,0
DA:148,0
DA:149,0
DA:150,0
DA:153,0
DA:154,0
DA:155,0
DA:158,0
DA:160,0
DA:161,0
DA:162,0
DA:163,0
DA:166,0
DA:167,0
DA:169,0
DA:170,0
DA:171,0
DA:172,0
DA:174,0
DA:175,0
DA:176,0
DA:178,0
DA:180,0
DA:181,0
DA:182,0
DA:185,0
DA:187,0
DA:188,0
DA:189,0
DA:190,0
DA:192,0
DA:194,0
DA:195,0
DA:199,0
DA:200,0
DA:203,0
DA:206,0
DA:207,0
DA:208,0
DA:209,0
DA:210,0
DA:211,0
DA:213,0
DA:214,0
DA:215,0
DA:216,0
DA:217,0
DA:220,0
DA:222,0
DA:223,0
DA:224,0
DA:226,0
DA:228,0
DA:230,0
DA:231,0
DA:234,0
DA:235,0
DA:236,0
DA:237,0
DA:238,0
DA:239,0
DA:241,0
DA:242,0
DA:243,0
DA:244,0
DA:245,0
DA:248,0
DA:249,0
DA:252,0
DA:253,0
DA:254,0
DA:255,0
DA:256,0
DA:257,0
DA:260,0
DA:262,0
DA:263,0
DA:264,0
DA:267,0
DA:268,0
DA:269,0
DA:270,0
DA:271,0
DA:272,0
DA:273,0
DA:274,0
DA:275,0
DA:278,0
DA:279,0
DA:280,0
DA:281,0
DA:282,0
DA:283,0
DA:285,0
DA:286,0
DA:287,0
DA:289,0
DA:293,0
DA:296,0
DA:297,0
DA:298,0
DA:299,0
DA:300,0
DA:301,0
DA:304,0
DA:305,0
DA:306,0
DA:307,0
DA:308,0
DA:309,0
DA:310,0
DA:311,0
DA:313,0
DA:316,0
DA:319,0
DA:341,0
DA:342,0
DA:344,0
DA:345,0
DA:346,0
DA:347,0
DA:348,0
DA:349,0
DA:350,0
DA:351,0
DA:352,0
DA:353,0
DA:354,0
DA:356,0
DA:357,0
DA:365,0
DA:366,0
DA:367,0
DA:368,0
DA:369,0
DA:370,0
DA:372,0
DA:374,0
DA:375,0
DA:376,0
DA:377,0
DA:378,0
DA:381,0
DA:384,0
DA:385,0
DA:386,0
DA:387,0
DA:388,0
DA:389,0
DA:390,0
DA:391,0
DA:392,0
DA:393,0
DA:394,0
DA:395,0
DA:396,0
DA:397,0
DA:398,0
DA:400,0
DA:403,0
DA:406,0
DA:407,0
DA:409,0
DA:410,0
DA:411,0
DA:412,0
DA:413,0
DA:417,0
DA:419,0
DA:447,0
DA:448,0
DA:450,0
DA:452,0
DA:453,0
DA:455,0
DA:456,0
DA:457,0
DA:458,0
DA:459,0
DA:460,0
DA:461,0
DA:462,0
DA:463,0
DA:464,0
DA:465,0
DA:466,0
DA:467,0
DA:468,0
DA:469,0
DA:472,0
DA:473,0
DA:474,0
DA:475,0
DA:476,0
DA:477,0
DA:478,0
DA:480,0
DA:481,0
DA:482,0
DA:485,0
DA:486,0
DA:487,0
DA:490,0
DA:493,0
DA:494,0
DA:495,0
DA:496,0
DA:497,0
DA:498,0
DA:499,0
DA:500,0
DA:501,0
DA:503,0
DA:504,0
DA:505,0
DA:506,0
DA:507,0
DA:508,0
DA:509,0
DA:510,0
DA:511,0
DA:512,0
DA:513,0
DA:516,0
DA:517,0
DA:518,0
DA:519,0
DA:520,0
DA:521,0
DA:522,0
DA:523,0
DA:524,0
DA:525,0
DA:526,0
DA:527,0
DA:528,0
DA:529,0
DA:530,0
DA:532,0
DA:535,0
DA:537,0
DA:540,0
DA:542,0
DA:545,0
DA:546,0
DA:547,0
DA:548,0
DA:549,0
DA:550,0
DA:551,0
DA:553,0
DA:558,0
DA:559,0
DA:560,0
DA:562,0
DA:563,0
DA:564,0
DA:565,0
DA:566,0
DA:567,0
DA:568,0
DA:569,0
DA:570,0
DA:571,0
DA:572,0
DA:573,0
DA:574,0
DA:575,0
DA:576,0
DA:577,0
DA:578,0
DA:579,0
DA:580,0
DA:581,0
DA:582,0
DA:583,0
DA:584,0
DA:585,0
DA:586,0
DA:587,0
DA:588,0
DA:589,0
DA:593,0
DA:595,0
DA:596,0
DA:598,0
DA:599,0
DA:601,0
DA:602,0
DA:604,0
DA:607,0
DA:608,0
DA:610,0
DA:611,0
DA:612,0
DA:613,0
DA:614,0
DA:615,0
DA:616,0
DA:617,0
DA:618,0
DA:619,0
DA:620,0
DA:621,0
DA:622,0
DA:623,0
DA:624,0
DA:627,0
DA:628,0
DA:629,0
DA:630,0
DA:631,0
DA:632,0
DA:633,0
DA:635,0
DA:636,0
DA:637,0
DA:640,0
DA:641,0
DA:642,0
DA:645,0
DA:648,0
DA:649,0
DA:650,0
DA:651,0
DA:652,0
DA:653,0
DA:654,0
DA:655,0
DA:656,0
DA:658,0
DA:659,0
DA:660,0
DA:661,0
DA:662,0
DA:663,0
DA:664,0
DA:665,0
DA:666,0
DA:667,0
DA:668,0
DA:671,0
DA:672,0
DA:673,0
DA:674,0
DA:675,0
DA:676,0
DA:677,0
DA:678,0
DA:679,0
DA:680,0
DA:681,0
DA:682,0
DA:683,0
DA:684,0
DA:685,0
DA:687,0
DA:690,0
DA:692,0
DA:695,0
DA:697,0
DA:701,0
DA:703,0
DA:705,0
DA:706,0
DA:710,0
DA:713,0
DA:714,0
DA:715,0
DA:716,0
DA:717,0
DA:718,0
DA:719,0
DA:720,0
DA:721,0
DA:722,0
DA:723,0
DA:724,0
DA:725,0
DA:727,0
DA:731,0
DA:732,0
DA:735,0
DA:736,0
DA:737,0
DA:738,0
DA:739,0
DA:740,0
DA:741,0
DA:743,0
DA:744,0
DA:745,0
DA:746,0
DA:747,0
DA:748,0
DA:750,0
DA:754,0
DA:755,0
DA:758,0
DA:759,0
DA:763,0
DA:764,0
DA:766,0
DA:767,0
DA:770,0
DA:771,0
DA:779,0
DA:780,0
DA:782,0
DA:783,0
DA:784,0
DA:785,0
DA:786,0
DA:787,0
DA:788,0
DA:789,0
DA:790,0
DA:791,0
DA:794,0
DA:795,0
DA:796,0
DA:797,0
DA:798,0
DA:799,0
DA:800,0
DA:810,0
DA:811,0
DA:813,0
DA:814,0
DA:815,0
DA:816,0
DA:817,0
DA:818,0
DA:819,0
DA:820,0
DA:821,0
DA:822,0
DA:825,0
DA:826,0
DA:844,0
DA:845,0
DA:847,0
DA:848,0
DA:849,0
DA:850,0
DA:851,0
DA:852,0
DA:853,0
DA:854,0
DA:855,0
DA:856,0
DA:857,0
DA:858,0
DA:859,0
DA:860,0
DA:862,0
DA:863,0
DA:866,0
DA:867,0
DA:872,0
DA:873,0
DA:875,0
DA:878,0
DA:879,0
DA:880,0
DA:882,0
DA:883,0
DA:887,0
DA:888,0
DA:889,0
DA:890,0
DA:891,0
DA:892,0
DA:893,0
DA:894,0
DA:895,0
DA:896,0
DA:899,0
DA:907,0
DA:910,0
DA:911,0
DA:914,0
DA:915,0
DA:916,0
DA:917,0
DA:918,0
DA:919,0
DA:921,0
DA:923,0
DA:926,0
DA:927,0
DA:928,0
DA:931,0
DA:932,0
DA:933,0
DA:936,0
DA:937,0
DA:938,0
DA:940,0
DA:942,0
DA:945,0
DA:947,0
DA:949,0
DA:950,0
DA:951,0
DA:953,0
DA:954,0
DA:955,0
DA:956,0
DA:957,0
DA:960,0
DA:962,0
DA:965,0
DA:967,0
DA:968,0
DA:969,0
DA:971,0
DA:972,0
DA:973,0
DA:974,0
DA:976,0
DA:977,0
DA:978,0
DA:979,0
DA:980,0
DA:983,0
DA:985,0
BRF:0
BRH:0
LF:587
LH:0
end_of_record
SF:/mnt/datadrive_m2/self-sensored/src/services/background_processor.rs
FN:79,_RNCNCNCNvMNtNtCs1yu0zy1SNdm_13self_sensored8services20background_processorNtB8_19BackgroundProcessor5start000Bc_
FN:55,_RNCNCNvMNtNtCs1yu0zy1SNdm_13self_sensored8services20background_processorNtB6_19BackgroundProcessor5start00Ba_
FN:123,_RNCNvMNtNtCs1yu0zy1SNdm_13self_sensored8services20background_processorNtB4_19BackgroundProcessor10create_job0B8_
FN:371,_RNCNvMNtNtCs1yu0zy1SNdm_13self_sensored8services20background_processorNtB4_19BackgroundProcessor12complete_job0B8_
FN:171,_RNCNvMNtNtCs1yu0zy1SNdm_13self_sensored8services20background_processorNtB4_19BackgroundProcessor14get_job_status0B8_
FN:386,_RNCNvMNtNtCs1yu0zy1SNdm_13self_sensored8services20background_processorNtB4_19BackgroundProcessor16cleanup_old_jobs0B8_
FN:194,_RNCNvMNtNtCs1yu0zy1SNdm_13self_sensored8services20background_processorNtB4_19BackgroundProcessor16process_next_job0B8_
FN:350,_RNCNvMNtNtCs1yu0zy1SNdm_13self_sensored8services20background_processorNtB4_19BackgroundProcessor19update_job_progress0B8_
FN:99,_RNCNvMNtNtCs1yu0zy1SNdm_13self_sensored8services20background_processorNtB4_19BackgroundProcessor4stop0B8_
FN:39,_RNCNvMNtNtCs1yu0zy1SNdm_13self_sensored8services20background_processorNtB4_19BackgroundProcessor5start0B8_
FN:117,_RNvMNtNtCs1yu0zy1SNdm_13self_sensored8services20background_processorNtB2_19BackgroundProcessor10create_job
FN:365,_RNvMNtNtCs1yu0zy1SNdm_13self_sensored8services20background_processorNtB2_19BackgroundProcessor12complete_job
FN:167,_RNvMNtNtCs1yu0zy1SNdm_13self_sensored8services20background_processorNtB2_19BackgroundProcessor14get_job_status
FN:386,_RNvMNtNtCs1yu0zy1SNdm_13self_sensored8services20background_processorNtB2_19BackgroundProcessor16cleanup_old_jobs
FN:194,_RNvMNtNtCs1yu0zy1SNdm_13self_sensored8services20background_processorNtB2_19BackgroundProcessor16process_next_job
FN:344,_RNvMNtNtCs1yu0zy1SNdm_13self_sensored8services20background_processorNtB2_19BackgroundProcessor19update_job_progress
FN:25,_RNvMNtNtCs1yu0zy1SNdm_13self_sensored8services20background_processorNtB2_19BackgroundProcessor3new
FN:99,_RNvMNtNtCs1yu0zy1SNdm_13self_sensored8services20background_processorNtB2_19BackgroundProcessor4stop
FN:39,_RNvMNtNtCs1yu0zy1SNdm_13self_sensored8services20background_processorNtB2_19BackgroundProcessor5start
FNDA:0,_RNCNCNCNvMNtNtCs1yu0zy1SNdm_13self_sensored8services20background_processorNtB8_19BackgroundProcessor5start000Bc_
FNDA:0,_RNCNCNvMNtNtCs1yu0zy1SNdm_13self_sensored8services20background_processorNtB6_19BackgroundProcessor5start00Ba_
FNDA:0,_RNCNvMNtNtCs1yu0zy1SNdm_13self_sensored8services20background_processorNtB4_19BackgroundProcessor10create_job0B8_
FNDA:0,_RNCNvMNtNtCs1yu0zy1SNdm_13self_sensored8services20background_processorNtB4_19BackgroundProcessor12complete_job0B8_
FNDA:0,_RNCNvMNtNtCs1yu0zy1SNdm_13self_sensored8services20background_processorNtB4_19BackgroundProcessor14get_job_status0B8_
FNDA:0,_RNCNvMNtNtCs1yu0zy1SNdm_13self_sensored8services20background_processorNtB4_19BackgroundProcessor16cleanup_old_jobs0B8_
FNDA:0,_RNCNvMNtNtCs1yu0zy1SNdm_13self_sensored8services20background_processorNtB4_19BackgroundProcessor16process_next_job0B8_
FNDA:0,_RNCNvMNtNtCs1yu0zy1SNdm_13self_sensored8services20background_processorNtB4_19BackgroundProcessor19update_job_progress0B8_
FNDA:0,_RNCNvMNtNtCs1yu0zy1SNdm_13self_sensored8services20background_processorNtB4_19BackgroundProcessor4stop0B8_
FNDA:0,_RNCNvMNtNtCs1yu0zy1SNdm_13self_sensored8services20background_processorNtB4_19BackgroundProcessor5start0B8_
FNDA:0,_RNvMNtNtCs1yu0zy1SNdm_13self_sensored8services20background_processorNtB2_19BackgroundProcessor10create_job
FNDA:0,_RNvMNtNtCs1yu0zy1SNdm_13self_sensored8services20background_processorNtB2_19BackgroundProcessor12complete_job
FNDA:0,_RNvMNtNtCs1yu0zy1SNdm_13self_sensored8services20background_processorNtB2_19BackgroundProcessor14get_job_status
FNDA:0,_RNvMNtNtCs1yu0zy1SNdm_13self_sensored8services20background_processorNtB2_19BackgroundProcessor16cleanup_old_jobs
FNDA:0,_RNvMNtNtCs1yu0zy1SNdm_13self_sensored8services20background_processorNtB2_19BackgroundProcessor16process_next_job
FNDA:0,_RNvMNtNtCs1yu0zy1SNdm_13self_sensored8services20background_processorNtB2_19BackgroundProcessor19update_job_progress
FNDA:0,_RNvMNtNtCs1yu0zy1SNdm_13self_sensored8services20background_processorNtB2_19BackgroundProcessor3new
FNDA:0,_RNvMNtNtCs1yu0zy1SNdm_13self_sensored8services20background_processorNtB2_19BackgroundProcessor4stop
FNDA:0,_RNvMNtNtCs1yu0zy1SNdm_13self_sensored8services20background_processorNtB2_19BackgroundProcessor5start
FNF:19
FNH:0
DA:25,0
DA:26,0
DA:27,0
DA:29,0
DA:30,0
DA:31,0
DA:32,0
DA:33,0
DA:34,0
DA:35,0
DA:36,0
DA:39,0
DA:40,0
DA:41,0
DA:42,0
DA:43,0
DA:45,0
DA:46,0
DA:48,0
DA:49,0
DA:51,0
DA:52,0
DA:53,0
DA:55,0
DA:56,0
DA:60,0
DA:61,0
DA:62,0
DA:63,0
DA:65,0
DA:66,0
DA:67,0
DA:70,0
DA:71,0
DA:72,0
DA:75,0
DA:76,0
DA:79,0
DA:81,0
DA:82,0
DA:83,0
DA:84,0
DA:85,0
DA:88,0
DA:91,0
DA:92,0
DA:93,0
DA:95,0
DA:96,0
DA:99,0
DA:100,0
DA:101,0
DA:102,0
DA:103,0
DA:104,0
DA:107,0
DA:108,0
DA:109,0
DA:111,0
DA:113,0
DA:117,0
DA:118,0
DA:119,0
DA:120,0
DA:121,0
DA:122,0
DA:123,0
DA:164,0
DA:167,0
DA:168,0
DA:169,0
DA:170,0
DA:171,0
DA:172,0
DA:187,0
DA:188,0
DA:190,0
DA:191,0
DA:194,0
DA:196,0
DA:197,0
DA:198,0
DA:199,0
DA:200,0
DA:201,0
DA:202,0
DA:203,0
DA:205,0
DA:207,0
DA:210,0
DA:211,0
DA:212,0
DA:213,0
DA:214,0
DA:216,0
DA:217,0
DA:218,0
DA:219,0
DA:220,0
DA:222,0
DA:223,0
DA:224,0
DA:225,0
DA:226,0
DA:228,0
DA:230,0
DA:234,0
DA:237,0
DA:240,0
DA:244,0
DA:245,0
DA:248,0
DA:249,0
DA:250,0
DA:251,0
DA:252,0
DA:254,0
DA:256,0
DA:261,0
DA:262,0
DA:263,0
DA:264,0
DA:265,0
DA:266,0
DA:267,0
DA:268,0
DA:269,0
DA:271,0
DA:274,0
DA:276,0
DA:279,0
DA:281,0
DA:283,0
DA:284,0
DA:285,0
DA:286,0
DA:288,0
DA:289,0
DA:290,0
DA:291,0
DA:292,0
DA:293,0
DA:294,0
DA:296,0
DA:300,0
DA:301,0
DA:303,0
DA:306,0
DA:307,0
DA:308,0
DA:309,0
DA:310,0
DA:312,0
DA:316,0
DA:317,0
DA:318,0
DA:319,0
DA:320,0
DA:321,0
DA:322,0
DA:323,0
DA:324,0
DA:327,0
DA:329,0
DA:331,0
DA:335,0
DA:336,0
DA:339,0
DA:340,0
DA:344,0
DA:345,0
DA:346,0
DA:347,0
DA:348,0
DA:349,0
DA:350,0
DA:351,0
DA:358,0
DA:359,0
DA:361,0
DA:362,0
DA:365,0
DA:366,0
DA:367,0
DA:368,0
DA:369,0
DA:370,0
DA:371,0
DA:372,0
DA:375,0
DA:379,0
DA:380,0
DA:382,0
DA:383,0
DA:386,0
DA:387,0
DA:388,0
DA:389,0
DA:391,0
DA:393,0
DA:394,0
DA:396,0
DA:398,0
DA:400,0
DA:401,0
BRF:0
BRH:0
LF:215
LH:0
end_of_record
SF:/mnt/datadrive_m2/self-sensored/src/services/batch_processor.rs
FN:1129,_RINvMNtNtCs1yu0zy1SNdm_13self_sensored8services15batch_processorNtB3_14BatchProcessor18process_with_retryppEB7_
FN:1137,_RNCINvMNtNtCs1yu0zy1SNdm_13self_sensored8services15batch_processorNtB5_14BatchProcessor18process_with_retryppE0B9_
FN:459,_RNCNCNCNvMNtNtCs1yu0zy1SNdm_13self_sensored8services15batch_processorNtB8_14BatchProcessor16process_parallel000Bc_
FN:503,_RNCNCNCNvMNtNtCs1yu0zy1SNdm_13self_sensored8services15batch_processorNtB8_14BatchProcessor16process_parallel0s0_00Bc_
FN:525,_RNCNCNCNvMNtNtCs1yu0zy1SNdm_13self_sensored8services15batch_processorNtB8_14BatchProcessor16process_parallel0s1_00Bc_
FN:547,_RNCNCNCNvMNtNtCs1yu0zy1SNdm_13self_sensored8services15batch_processorNtB8_14BatchProcessor16process_parallel0s2_00Bc_
FN:569,_RNCNCNCNvMNtNtCs1yu0zy1SNdm_13self_sensored8services15batch_processorNtB8_14BatchProcessor16process_parallel0s3_00Bc_
FN:591,_RNCNCNCNvMNtNtCs1yu0zy1SNdm_13self_sensored8services15batch_processorNtB8_14BatchProcessor16process_parallel0s4_00Bc_
FN:613,_RNCNCNCNvMNtNtCs1yu0zy1SNdm_13self_sensored8services15batch_processorNtB8_14BatchProcessor16process_parallel0s5_00Bc_
FN:637,_RNCNCNCNvMNtNtCs1yu0zy1SNdm_13self_sensored8services15batch_processorNtB8_14BatchProcessor16process_parallel0s6_00Bc_
FN:662,_RNCNCNCNvMNtNtCs1yu0zy1SNdm_13self_sensored8services15batch_processorNtB8_14BatchProcessor16process_parallel0s7_00Bc_
FN:686,_RNCNCNCNvMNtNtCs1yu0zy1SNdm_13self_sensored8services15batch_processorNtB8_14BatchProcessor16process_parallel0s8_00Bc_
FN:711,_RNCNCNCNvMNtNtCs1yu0zy1SNdm_13self_sensored8services15batch_processorNtB8_14BatchProcessor16process_parallel0s9_00Bc_
FN:481,_RNCNCNCNvMNtNtCs1yu0zy1SNdm_13self_sensored8services15batch_processorNtB8_14BatchProcessor16process_parallel0s_00Bc_
FN:735,_RNCNCNCNvMNtNtCs1yu0zy1SNdm_13self_sensored8services15batch_processorNtB8_14BatchProcessor16process_parallel0sa_00Bc_
FN:758,_RNCNCNCNvMNtNtCs1yu0zy1SNdm_13self_sensored8services15batch_processorNtB8_14BatchProcessor16process_parallel0sb_00Bc_
FN:2010,_RNCNCNCNvMNtNtCs1yu0zy1SNdm_13self_sensored8services15batch_processorNtB8_14BatchProcessor26insert_heart_rates_chunked000Bc_
FN:2015,_RNCNCNCNvMNtNtCs1yu0zy1SNdm_13self_sensored8services15batch_processorNtB8_14BatchProcessor26insert_heart_rates_chunked00s_0Bc_
FN:3052,_RNCNCNCNvMNtNtCs1yu0zy1SNdm_13self_sensored8services15batch_processorNtB8_14BatchProcessor34insert_temperature_metrics_chunked0s0_00Bc_
FN:3061,_RNCNCNCNvMNtNtCs1yu0zy1SNdm_13self_sensored8services15batch_processorNtB8_14BatchProcessor34insert_temperature_metrics_chunked0s1_00Bc_
FN:3044,_RNCNCNCNvMNtNtCs1yu0zy1SNdm_13self_sensored8services15batch_processorNtB8_14BatchProcessor34insert_temperature_metrics_chunked0s_00Bc_
FN:454,_RNCNCNvMNtNtCs1yu0zy1SNdm_13self_sensored8services15batch_processorNtB6_14BatchProcessor16process_parallel00Ba_
FN:500,_RNCNCNvMNtNtCs1yu0zy1SNdm_13self_sensored8services15batch_processorNtB6_14BatchProcessor16process_parallel0s0_0Ba_
FN:522,_RNCNCNvMNtNtCs1yu0zy1SNdm_13self_sensored8services15batch_processorNtB6_14BatchProcessor16process_parallel0s1_0Ba_
FN:544,_RNCNCNvMNtNtCs1yu0zy1SNdm_13self_sensored8services15batch_processorNtB6_14BatchProcessor16process_parallel0s2_0Ba_
FN:566,_RNCNCNvMNtNtCs1yu0zy1SNdm_13self_sensored8services15batch_processorNtB6_14BatchProcessor16process_parallel0s3_0Ba_
FN:588,_RNCNCNvMNtNtCs1yu0zy1SNdm_13self_sensored8services15batch_processorNtB6_14BatchProcessor16process_parallel0s4_0Ba_
FN:610,_RNCNCNvMNtNtCs1yu0zy1SNdm_13self_sensored8services15batch_processorNtB6_14BatchProcessor16process_parallel0s5_0Ba_
FN:633,_RNCNCNvMNtNtCs1yu0zy1SNdm_13self_sensored8services15batch_processorNtB6_14BatchProcessor16process_parallel0s6_0Ba_
FN:658,_RNCNCNvMNtNtCs1yu0zy1SNdm_13self_sensored8services15batch_processorNtB6_14BatchProcessor16process_parallel0s7_0Ba_
FN:682,_RNCNCNvMNtNtCs1yu0zy1SNdm_13self_sensored8services15batch_processorNtB6_14BatchProcessor16process_parallel0s8_0Ba_
FN:707,_RNCNCNvMNtNtCs1yu0zy1SNdm_13self_sensored8services15batch_processorNtB6_14BatchProcessor16process_parallel0s9_0Ba_
FN:478,_RNCNCNvMNtNtCs1yu0zy1SNdm_13self_sensored8services15batch_processorNtB6_14BatchProcessor16process_parallel0s_0Ba_
FN:731,_RNCNCNvMNtNtCs1yu0zy1SNdm_13self_sensored8services15batch_processorNtB6_14BatchProcessor16process_parallel0sa_0Ba_
FN:754,_RNCNCNvMNtNtCs1yu0zy1SNdm_13self_sensored8services15batch_processorNtB6_14BatchProcessor16process_parallel0sb_0Ba_
FN:823,_RNCNCNvMNtNtCs1yu0zy1SNdm_13self_sensored8services15batch_processorNtB6_14BatchProcessor18process_sequential00Ba_
FN:853,_RNCNCNvMNtNtCs1yu0zy1SNdm_13self_sensored8services15batch_processorNtB6_14BatchProcessor18process_sequential0s0_0Ba_
FN:868,_RNCNCNvMNtNtCs1yu0zy1SNdm_13self_sensored8services15batch_processorNtB6_14BatchProcessor18process_sequential0s1_0Ba_
FN:883,_RNCNCNvMNtNtCs1yu0zy1SNdm_13self_sensored8services15batch_processorNtB6_14BatchProcessor18process_sequential0s2_0Ba_
FN:898,_RNCNCNvMNtNtCs1yu0zy1SNdm_13self_sensored8services15batch_processorNtB6_14BatchProcessor18process_sequential0s3_0Ba_
FN:913,_RNCNCNvMNtNtCs1yu0zy1SNdm_13self_sensored8services15batch_processorNtB6_14BatchProcessor18process_sequential0s4_0Ba_
FN:928,_RNCNCNvMNtNtCs1yu0zy1SNdm_13self_sensored8services15batch_processorNtB6_14BatchProcessor18process_sequential0s5_0Ba_
FN:943,_RNCNCNvMNtNtCs1yu0zy1SNdm_13self_sensored8services15batch_processorNtB6_14BatchProcessor18process_sequential0s6_0Ba_
FN:958,_RNCNCNvMNtNtCs1yu0zy1SNdm_13self_sensored8services15batch_processorNtB6_14BatchProcessor18process_sequential0s7_0Ba_
FN:973,_RNCNCNvMNtNtCs1yu0zy1SNdm_13self_sensored8services15batch_processorNtB6_14BatchProcessor18process_sequential0s8_0Ba_
FN:987,_RNCNCNvMNtNtCs1yu0zy1SNdm_13self_sensored8services15batch_processorNtB6_14BatchProcessor18process_sequential0s9_0Ba_
FN:838,_RNCNCNvMNtNtCs1yu0zy1SNdm_13self_sensored8services15batch_processorNtB6_14BatchProcessor18process_sequential0s_0Ba_
FN:1001,_RNCNCNvMNtNtCs1yu0zy1SNdm_13self_sensored8services15batch_processorNtB6_14BatchProcessor18process_sequential0sa_0Ba_
FN:1016,_RNCNCNvMNtNtCs1yu0zy1SNdm_13self_sensored8services15batch_processorNtB6_14BatchProcessor18process_sequential0sb_0Ba_
FN:1030,_RNCNCNvMNtNtCs1yu0zy1SNdm_13self_sensored8services15batch_processorNtB6_14BatchProcessor18process_sequential0sc_0Ba_
FN:1044,_RNCNCNvMNtNtCs1yu0zy1SNdm_13self_sensored8services15batch_processorNtB6_14BatchProcessor18process_sequential0sd_0Ba_
FN:1058,_RNCNCNvMNtNtCs1yu0zy1SNdm_13self_sensored8services15batch_processorNtB6_14BatchProcessor18process_sequential0se_0Ba_
FN:1073,_RNCNCNvMNtNtCs1yu0zy1SNdm_13self_sensored8services15batch_processorNtB6_14BatchProcessor18process_sequential0sf_0Ba_
FN:1094,_RNCNCNvMNtNtCs1yu0zy1SNdm_13self_sensored8services15batch_processorNtB6_14BatchProcessor18process_sequential0sg_0Ba_
FN:1115,_RNCNCNvMNtNtCs1yu0zy1SNdm_13self_sensored8services15batch_processorNtB6_14BatchProcessor18process_sequential0sh_0Ba_
FN:3532,_RNCNCNvMNtNtCs1yu0zy1SNdm_13self_sensored8services15batch_processorNtB6_14BatchProcessor22process_hygiene_events00Ba_
FN:2554,_RNCNCNvMNtNtCs1yu0zy1SNdm_13self_sensored8services15batch_processorNtB6_14BatchProcessor23insert_workouts_chunked00Ba_
FN:3464,_RNCNCNvMNtNtCs1yu0zy1SNdm_13self_sensored8services15batch_processorNtB6_14BatchProcessor24process_activity_metrics00Ba_
FN:2325,_RNCNCNvMNtNtCs1yu0zy1SNdm_13self_sensored8services15batch_processorNtB6_14BatchProcessor25insert_activities_chunked00Ba_
FN:3388,_RNCNCNvMNtNtCs1yu0zy1SNdm_13self_sensored8services15batch_processorNtB6_14BatchProcessor25process_body_measurements00Ba_
FN:3830,_RNCNCNvMNtNtCs1yu0zy1SNdm_13self_sensored8services15batch_processorNtB6_14BatchProcessor25process_fertility_metrics00Ba_
FN:3822,_RNCNCNvMNtNtCs1yu0zy1SNdm_13self_sensored8services15batch_processorNtB6_14BatchProcessor25process_fertility_metrics0s0_0Ba_
FN:3822,_RNCNCNvMNtNtCs1yu0zy1SNdm_13self_sensored8services15batch_processorNtB6_14BatchProcessor25process_fertility_metrics0s1_0Ba_
FN:3749,_RNCNCNvMNtNtCs1yu0zy1SNdm_13self_sensored8services15batch_processorNtB6_14BatchProcessor25process_menstrual_metrics00Ba_
FN:1996,_RNCNCNvMNtNtCs1yu0zy1SNdm_13self_sensored8services15batch_processorNtB6_14BatchProcessor26insert_heart_rates_chunked00Ba_
FN:3303,_RNCNCNvMNtNtCs1yu0zy1SNdm_13self_sensored8services15batch_processorNtB6_14BatchProcessor27process_temperature_metrics00Ba_
FN:2215,_RNCNCNvMNtNtCs1yu0zy1SNdm_13self_sensored8services15batch_processorNtB6_14BatchProcessor28insert_sleep_metrics_chunked00Ba_
FN:3671,_RNCNCNvMNtNtCs1yu0zy1SNdm_13self_sensored8services15batch_processorNtB6_14BatchProcessor29insert_hygiene_events_chunked00Ba_
FN:2129,_RNCNCNvMNtNtCs1yu0zy1SNdm_13self_sensored8services15batch_processorNtB6_14BatchProcessor30insert_blood_pressures_chunked00Ba_
FN:4634,_RNCNCNvMNtNtCs1yu0zy1SNdm_13self_sensored8services15batch_processorNtB6_14BatchProcessor30insert_hygiene_metrics_chunked00Ba_
FN:4550,_RNCNCNvMNtNtCs1yu0zy1SNdm_13self_sensored8services15batch_processorNtB6_14BatchProcessor30insert_symptom_metrics_chunked00Ba_
FN:2446,_RNCNCNvMNtNtCs1yu0zy1SNdm_13self_sensored8services15batch_processorNtB6_14BatchProcessor32insert_body_measurements_chunked00Ba_
FN:3214,_RNCNCNvMNtNtCs1yu0zy1SNdm_13self_sensored8services15batch_processorNtB6_14BatchProcessor32insert_fertility_metrics_chunked00Ba_
FN:3204,_RNCNCNvMNtNtCs1yu0zy1SNdm_13self_sensored8services15batch_processorNtB6_14BatchProcessor32insert_fertility_metrics_chunked0s0_0Ba_
FN:3204,_RNCNCNvMNtNtCs1yu0zy1SNdm_13self_sensored8services15batch_processorNtB6_14BatchProcessor32insert_fertility_metrics_chunked0s1_0Ba_
FN:3243,_RNCNCNvMNtNtCs1yu0zy1SNdm_13self_sensored8services15batch_processorNtB6_14BatchProcessor32insert_fertility_metrics_chunked0s3_0Ba_
FN:3243,_RNCNCNvMNtNtCs1yu0zy1SNdm_13self_sensored8services15batch_processorNtB6_14BatchProcessor32insert_fertility_metrics_chunked0s4_0Ba_
FN:3140,_RNCNCNvMNtNtCs1yu0zy1SNdm_13self_sensored8services15batch_processorNtB6_14BatchProcessor32insert_menstrual_metrics_chunked00Ba_
FN:2860,_RNCNCNvMNtNtCs1yu0zy1SNdm_13self_sensored8services15batch_processorNtB6_14BatchProcessor32insert_nutrition_metrics_chunked00Ba_
FN:4349,_RNCNCNvMNtNtCs1yu0zy1SNdm_13self_sensored8services15batch_processorNtB6_14BatchProcessor34insert_mindfulness_metrics_chunked00Ba_
FN:2650,_RNCNCNvMNtNtCs1yu0zy1SNdm_13self_sensored8services15batch_processorNtB6_14BatchProcessor34insert_respiratory_metrics_chunked00Ba_
FN:3013,_RNCNCNvMNtNtCs1yu0zy1SNdm_13self_sensored8services15batch_processorNtB6_14BatchProcessor34insert_temperature_metrics_chunked00Ba_
FN:3049,_RNCNCNvMNtNtCs1yu0zy1SNdm_13self_sensored8services15batch_processorNtB6_14BatchProcessor34insert_temperature_metrics_chunked0s0_0Ba_
FN:3058,_RNCNCNvMNtNtCs1yu0zy1SNdm_13self_sensored8services15batch_processorNtB6_14BatchProcessor34insert_temperature_metrics_chunked0s1_0Ba_
FN:3044,_RNCNCNvMNtNtCs1yu0zy1SNdm_13self_sensored8services15batch_processorNtB6_14BatchProcessor34insert_temperature_metrics_chunked0s_0Ba_
FN:4265,_RNCNCNvMNtNtCs1yu0zy1SNdm_13self_sensored8services15batch_processorNtB6_14BatchProcessor35insert_safety_event_metrics_chunked00Ba_
FN:2732,_RNCNCNvMNtNtCs1yu0zy1SNdm_13self_sensored8services15batch_processorNtB6_14BatchProcessor36insert_blood_glucose_metrics_chunked00Ba_
FN:2762,_RNCNCNvMNtNtCs1yu0zy1SNdm_13self_sensored8services15batch_processorNtB6_14BatchProcessor36insert_blood_glucose_metrics_chunked0s_0Ba_
FN:4086,_RNCNCNvMNtNtCs1yu0zy1SNdm_13self_sensored8services15batch_processorNtB6_14BatchProcessor36insert_environmental_metrics_chunked00Ba_
FN:4449,_RNCNCNvMNtNtCs1yu0zy1SNdm_13self_sensored8services15batch_processorNtB6_14BatchProcessor36insert_mental_health_metrics_chunked00Ba_
FN:4174,_RNCNCNvMNtNtCs1yu0zy1SNdm_13self_sensored8services15batch_processorNtB6_14BatchProcessor37insert_audio_exposure_metrics_chunked00Ba_
FN:321,_RNCNvMNtNtCs1yu0zy1SNdm_13self_sensored8services15batch_processorNtB4_14BatchProcessor13process_batch0B8_
FN:1927,_RNCNvMNtNtCs1yu0zy1SNdm_13self_sensored8services15batch_processorNtB4_14BatchProcessor15insert_workouts0B8_
FN:426,_RNCNvMNtNtCs1yu0zy1SNdm_13self_sensored8services15batch_processorNtB4_14BatchProcessor16process_parallel0B8_
FN:287,_RNCNvMNtNtCs1yu0zy1SNdm_13self_sensored8services15batch_processorNtB4_14BatchProcessor17check_pool_health0B8_
FN:1897,_RNCNvMNtNtCs1yu0zy1SNdm_13self_sensored8services15batch_processorNtB4_14BatchProcessor17insert_activities0B8_
FN:1852,_RNCNvMNtNtCs1yu0zy1SNdm_13self_sensored8services15batch_processorNtB4_14BatchProcessor18insert_heart_rates0B8_
FN:798,_RNCNvMNtNtCs1yu0zy1SNdm_13self_sensored8services15batch_processorNtB4_14BatchProcessor18process_sequential0B8_
FN:1882,_RNCNvMNtNtCs1yu0zy1SNdm_13self_sensored8services15batch_processorNtB4_14BatchProcessor20insert_sleep_metrics0B8_
FN:1867,_RNCNvMNtNtCs1yu0zy1SNdm_13self_sensored8services15batch_processorNtB4_14BatchProcessor22insert_blood_pressures0B8_
FN:4036,_RNCNvMNtNtCs1yu0zy1SNdm_13self_sensored8services15batch_processorNtB4_14BatchProcessor22insert_hygiene_metrics0B8_
FN:4011,_RNCNvMNtNtCs1yu0zy1SNdm_13self_sensored8services15batch_processorNtB4_14BatchProcessor22insert_symptom_metrics0B8_
FN:2501,_RNCNvMNtNtCs1yu0zy1SNdm_13self_sensored8services15batch_processorNtB4_14BatchProcessor22insert_workouts_static0B8_
FN:3518,_RNCNvMNtNtCs1yu0zy1SNdm_13self_sensored8services15batch_processorNtB4_14BatchProcessor22process_hygiene_events0B8_
FN:2518,_RNCNvMNtNtCs1yu0zy1SNdm_13self_sensored8services15batch_processorNtB4_14BatchProcessor23insert_workouts_chunked0B8_
FN:2272,_RNCNvMNtNtCs1yu0zy1SNdm_13self_sensored8services15batch_processorNtB4_14BatchProcessor24insert_activities_static0B8_
FN:1912,_RNCNvMNtNtCs1yu0zy1SNdm_13self_sensored8services15batch_processorNtB4_14BatchProcessor24insert_body_measurements0B8_
FN:3891,_RNCNvMNtNtCs1yu0zy1SNdm_13self_sensored8services15batch_processorNtB4_14BatchProcessor24insert_metabolic_metrics0B8_
FN:2805,_RNCNvMNtNtCs1yu0zy1SNdm_13self_sensored8services15batch_processorNtB4_14BatchProcessor24insert_nutrition_metrics0B8_
FN:3450,_RNCNvMNtNtCs1yu0zy1SNdm_13self_sensored8services15batch_processorNtB4_14BatchProcessor24process_activity_metrics0B8_
FN:2289,_RNCNvMNtNtCs1yu0zy1SNdm_13self_sensored8services15batch_processorNtB4_14BatchProcessor25insert_activities_chunked0B8_
FN:1943,_RNCNvMNtNtCs1yu0zy1SNdm_13self_sensored8services15batch_processorNtB4_14BatchProcessor25insert_heart_rates_static0B8_
FN:3364,_RNCNvMNtNtCs1yu0zy1SNdm_13self_sensored8services15batch_processorNtB4_14BatchProcessor25process_body_measurements0B8_
FN:3804,_RNCNvMNtNtCs1yu0zy1SNdm_13self_sensored8services15batch_processorNtB4_14BatchProcessor25process_fertility_metrics0B8_
FN:3724,_RNCNvMNtNtCs1yu0zy1SNdm_13self_sensored8services15batch_processorNtB4_14BatchProcessor25process_menstrual_metrics0B8_
FN:3596,_RNCNvMNtNtCs1yu0zy1SNdm_13self_sensored8services15batch_processorNtB4_14BatchProcessor26deduplicate_hygiene_events0B8_
FN:1960,_RNCNvMNtNtCs1yu0zy1SNdm_13self_sensored8services15batch_processorNtB4_14BatchProcessor26insert_heart_rates_chunked0B8_
FN:3961,_RNCNvMNtNtCs1yu0zy1SNdm_13self_sensored8services15batch_processorNtB4_14BatchProcessor26insert_mindfulness_metrics0B8_
FN:2596,_RNCNvMNtNtCs1yu0zy1SNdm_13self_sensored8services15batch_processorNtB4_14BatchProcessor26insert_respiratory_metrics0B8_
FN:3263,_RNCNvMNtNtCs1yu0zy1SNdm_13self_sensored8services15batch_processorNtB4_14BatchProcessor26insert_temperature_metrics0B8_
FN:3936,_RNCNvMNtNtCs1yu0zy1SNdm_13self_sensored8services15batch_processorNtB4_14BatchProcessor27insert_safety_event_metrics0B8_
FN:2162,_RNCNvMNtNtCs1yu0zy1SNdm_13self_sensored8services15batch_processorNtB4_14BatchProcessor27insert_sleep_metrics_static0B8_
FN:3279,_RNCNvMNtNtCs1yu0zy1SNdm_13self_sensored8services15batch_processorNtB4_14BatchProcessor27process_temperature_metrics0B8_
FN:2611,_RNCNvMNtNtCs1yu0zy1SNdm_13self_sensored8services15batch_processorNtB4_14BatchProcessor28insert_blood_glucose_metrics0B8_
FN:3906,_RNCNvMNtNtCs1yu0zy1SNdm_13self_sensored8services15batch_processorNtB4_14BatchProcessor28insert_environmental_metrics0B8_
FN:3986,_RNCNvMNtNtCs1yu0zy1SNdm_13self_sensored8services15batch_processorNtB4_14BatchProcessor28insert_mental_health_metrics0B8_
FN:2179,_RNCNvMNtNtCs1yu0zy1SNdm_13self_sensored8services15batch_processorNtB4_14BatchProcessor28insert_sleep_metrics_chunked0B8_
FN:1656,_RNCNvMNtNtCs1yu0zy1SNdm_13self_sensored8services15batch_processorNtB4_14BatchProcessor29deduplicate_body_measurements0B8_
FN:3921,_RNCNvMNtNtCs1yu0zy1SNdm_13self_sensored8services15batch_processorNtB4_14BatchProcessor29insert_audio_exposure_metrics0B8_
FN:2072,_RNCNvMNtNtCs1yu0zy1SNdm_13self_sensored8services15batch_processorNtB4_14BatchProcessor29insert_blood_pressures_static0B8_
FN:3625,_RNCNvMNtNtCs1yu0zy1SNdm_13self_sensored8services15batch_processorNtB4_14BatchProcessor29insert_hygiene_events_chunked0B8_
FN:2089,_RNCNvMNtNtCs1yu0zy1SNdm_13self_sensored8services15batch_processorNtB4_14BatchProcessor30insert_blood_pressures_chunked0B8_
FN:4611,_RNCNvMNtNtCs1yu0zy1SNdm_13self_sensored8services15batch_processorNtB4_14BatchProcessor30insert_hygiene_metrics_chunked0B8_
FN:4527,_RNCNvMNtNtCs1yu0zy1SNdm_13self_sensored8services15batch_processorNtB4_14BatchProcessor30insert_symptom_metrics_chunked0B8_
FN:1687,_RNCNvMNtNtCs1yu0zy1SNdm_13self_sensored8services15batch_processorNtB4_14BatchProcessor31deduplicate_temperature_metrics0B8_
FN:2389,_RNCNvMNtNtCs1yu0zy1SNdm_13self_sensored8services15batch_processorNtB4_14BatchProcessor31insert_body_measurements_static0B8_
FN:2406,_RNCNvMNtNtCs1yu0zy1SNdm_13self_sensored8services15batch_processorNtB4_14BatchProcessor32insert_body_measurements_chunked0B8_
FN:3187,_RNCNvMNtNtCs1yu0zy1SNdm_13self_sensored8services15batch_processorNtB4_14BatchProcessor32insert_fertility_metrics_chunked0B8_
FN:3119,_RNCNvMNtNtCs1yu0zy1SNdm_13self_sensored8services15batch_processorNtB4_14BatchProcessor32insert_menstrual_metrics_chunked0B8_
FN:2823,_RNCNvMNtNtCs1yu0zy1SNdm_13self_sensored8services15batch_processorNtB4_14BatchProcessor32insert_nutrition_metrics_chunked0B8_
FN:4326,_RNCNvMNtNtCs1yu0zy1SNdm_13self_sensored8services15batch_processorNtB4_14BatchProcessor34insert_mindfulness_metrics_chunked0B8_
FN:2627,_RNCNvMNtNtCs1yu0zy1SNdm_13self_sensored8services15batch_processorNtB4_14BatchProcessor34insert_respiratory_metrics_chunked0B8_
FN:2990,_RNCNvMNtNtCs1yu0zy1SNdm_13self_sensored8services15batch_processorNtB4_14BatchProcessor34insert_temperature_metrics_chunked0B8_
FN:4242,_RNCNvMNtNtCs1yu0zy1SNdm_13self_sensored8services15batch_processorNtB4_14BatchProcessor35insert_safety_event_metrics_chunked0B8_
FN:2708,_RNCNvMNtNtCs1yu0zy1SNdm_13self_sensored8services15batch_processorNtB4_14BatchProcessor36insert_blood_glucose_metrics_chunked0B8_
FN:4062,_RNCNvMNtNtCs1yu0zy1SNdm_13self_sensored8services15batch_processorNtB4_14BatchProcessor36insert_environmental_metrics_chunked0B8_
FN:4425,_RNCNvMNtNtCs1yu0zy1SNdm_13self_sensored8services15batch_processorNtB4_14BatchProcessor36insert_mental_health_metrics_chunked0B8_
FN:4150,_RNCNvMNtNtCs1yu0zy1SNdm_13self_sensored8services15batch_processorNtB4_14BatchProcessor37insert_audio_exposure_metrics_chunked0B8_
FN:270,_RNvMNtNtCs1yu0zy1SNdm_13self_sensored8services15batch_processorNtB2_14BatchProcessor11with_config
FN:317,_RNvMNtNtCs1yu0zy1SNdm_13self_sensored8services15batch_processorNtB2_14BatchProcessor13process_batch
FN:281,_RNvMNtNtCs1yu0zy1SNdm_13self_sensored8services15batch_processorNtB2_14BatchProcessor14reset_counters
FN:1923,_RNvMNtNtCs1yu0zy1SNdm_13self_sensored8services15batch_processorNtB2_14BatchProcessor15insert_workouts
FN:421,_RNvMNtNtCs1yu0zy1SNdm_13self_sensored8services15batch_processorNtB2_14BatchProcessor16process_parallel
FN:287,_RNvMNtNtCs1yu0zy1SNdm_13self_sensored8services15batch_processorNtB2_14BatchProcessor17check_pool_health
FN:1893,_RNvMNtNtCs1yu0zy1SNdm_13self_sensored8services15batch_processorNtB2_14BatchProcessor17insert_activities
FN:1848,_RNvMNtNtCs1yu0zy1SNdm_13self_sensored8services15batch_processorNtB2_14BatchProcessor18insert_heart_rates
FN:1217,_RNvMNtNtCs1yu0zy1SNdm_13self_sensored8services15batch_processorNtB2_14BatchProcessor18is_retryable_error
FN:793,_RNvMNtNtCs1yu0zy1SNdm_13self_sensored8services15batch_processorNtB2_14BatchProcessor18process_sequential
FN:1701,_RNvMNtNtCs1yu0zy1SNdm_13self_sensored8services15batch_processorNtB2_14BatchProcessor20deduplicate_workouts
FN:1878,_RNvMNtNtCs1yu0zy1SNdm_13self_sensored8services15batch_processorNtB2_14BatchProcessor20insert_sleep_metrics
FN:1246,_RNvMNtNtCs1yu0zy1SNdm_13self_sensored8services15batch_processorNtB2_14BatchProcessor21estimate_memory_usage
FN:1255,_RNvMNtNtCs1yu0zy1SNdm_13self_sensored8services15batch_processorNtB2_14BatchProcessor21group_metrics_by_type
FN:1615,_RNvMNtNtCs1yu0zy1SNdm_13self_sensored8services15batch_processorNtB2_14BatchProcessor22deduplicate_activities
FN:1863,_RNvMNtNtCs1yu0zy1SNdm_13self_sensored8services15batch_processorNtB2_14BatchProcessor22insert_blood_pressures
FN:4032,_RNvMNtNtCs1yu0zy1SNdm_13self_sensored8services15batch_processorNtB2_14BatchProcessor22insert_hygiene_metrics
FN:4007,_RNvMNtNtCs1yu0zy1SNdm_13self_sensored8services15batch_processorNtB2_14BatchProcessor22insert_symptom_metrics
FN:2497,_RNvMNtNtCs1yu0zy1SNdm_13self_sensored8services15batch_processorNtB2_14BatchProcessor22insert_workouts_static
FN:3514,_RNvMNtNtCs1yu0zy1SNdm_13self_sensored8services15batch_processorNtB2_14BatchProcessor22process_hygiene_events
FN:1542,_RNvMNtNtCs1yu0zy1SNdm_13self_sensored8services15batch_processorNtB2_14BatchProcessor23deduplicate_heart_rates
FN:2513,_RNvMNtNtCs1yu0zy1SNdm_13self_sensored8services15batch_processorNtB2_14BatchProcessor23insert_workouts_chunked
FN:2268,_RNvMNtNtCs1yu0zy1SNdm_13self_sensored8services15batch_processorNtB2_14BatchProcessor24insert_activities_static
FN:1908,_RNvMNtNtCs1yu0zy1SNdm_13self_sensored8services15batch_processorNtB2_14BatchProcessor24insert_body_measurements
FN:3887,_RNvMNtNtCs1yu0zy1SNdm_13self_sensored8services15batch_processorNtB2_14BatchProcessor24insert_metabolic_metrics
FN:2801,_RNvMNtNtCs1yu0zy1SNdm_13self_sensored8services15batch_processorNtB2_14BatchProcessor24insert_nutrition_metrics
FN:3446,_RNvMNtNtCs1yu0zy1SNdm_13self_sensored8services15batch_processorNtB2_14BatchProcessor24process_activity_metrics
FN:1726,_RNvMNtNtCs1yu0zy1SNdm_13self_sensored8services15batch_processorNtB2_14BatchProcessor25deduplicate_blood_glucose
FN:1590,_RNvMNtNtCs1yu0zy1SNdm_13self_sensored8services15batch_processorNtB2_14BatchProcessor25deduplicate_sleep_metrics
FN:2284,_RNvMNtNtCs1yu0zy1SNdm_13self_sensored8services15batch_processorNtB2_14BatchProcessor25insert_activities_chunked
FN:1939,_RNvMNtNtCs1yu0zy1SNdm_13self_sensored8services15batch_processorNtB2_14BatchProcessor25insert_heart_rates_static
FN:3361,_RNvMNtNtCs1yu0zy1SNdm_13self_sensored8services15batch_processorNtB2_14BatchProcessor25process_body_measurements
FN:3800,_RNvMNtNtCs1yu0zy1SNdm_13self_sensored8services15batch_processorNtB2_14BatchProcessor25process_fertility_metrics
FN:3720,_RNvMNtNtCs1yu0zy1SNdm_13self_sensored8services15batch_processorNtB2_14BatchProcessor25process_menstrual_metrics
FN:3582,_RNvMNtNtCs1yu0zy1SNdm_13self_sensored8services15batch_processorNtB2_14BatchProcessor26deduplicate_hygiene_events
FN:1955,_RNvMNtNtCs1yu0zy1SNdm_13self_sensored8services15batch_processorNtB2_14BatchProcessor26insert_heart_rates_chunked
FN:3957,_RNvMNtNtCs1yu0zy1SNdm_13self_sensored8services15batch_processorNtB2_14BatchProcessor26insert_mindfulness_metrics
FN:2592,_RNvMNtNtCs1yu0zy1SNdm_13self_sensored8services15batch_processorNtB2_14BatchProcessor26insert_respiratory_metrics
FN:3259,_RNvMNtNtCs1yu0zy1SNdm_13self_sensored8services15batch_processorNtB2_14BatchProcessor26insert_temperature_metrics
FN:1567,_RNvMNtNtCs1yu0zy1SNdm_13self_sensored8services15batch_processorNtB2_14BatchProcessor27deduplicate_blood_pressures
FN:1302,_RNvMNtNtCs1yu0zy1SNdm_13self_sensored8services15batch_processorNtB2_14BatchProcessor27deduplicate_grouped_metrics
FN:4840,_RNvMNtNtCs1yu0zy1SNdm_13self_sensored8services15batch_processorNtB2_14BatchProcessor27deduplicate_hygiene_metrics
FN:4830,_RNvMNtNtCs1yu0zy1SNdm_13self_sensored8services15batch_processorNtB2_14BatchProcessor27deduplicate_symptom_metrics
FN:3932,_RNvMNtNtCs1yu0zy1SNdm_13self_sensored8services15batch_processorNtB2_14BatchProcessor27insert_safety_event_metrics
FN:2158,_RNvMNtNtCs1yu0zy1SNdm_13self_sensored8services15batch_processorNtB2_14BatchProcessor27insert_sleep_metrics_static
FN:3275,_RNvMNtNtCs1yu0zy1SNdm_13self_sensored8services15batch_processorNtB2_14BatchProcessor27process_temperature_metrics
FN:2607,_RNvMNtNtCs1yu0zy1SNdm_13self_sensored8services15batch_processorNtB2_14BatchProcessor28insert_blood_glucose_metrics
FN:3902,_RNvMNtNtCs1yu0zy1SNdm_13self_sensored8services15batch_processorNtB2_14BatchProcessor28insert_environmental_metrics
FN:3982,_RNvMNtNtCs1yu0zy1SNdm_13self_sensored8services15batch_processorNtB2_14BatchProcessor28insert_mental_health_metrics
FN:2174,_RNvMNtNtCs1yu0zy1SNdm_13self_sensored8services15batch_processorNtB2_14BatchProcessor28insert_sleep_metrics_chunked
FN:1641,_RNvMNtNtCs1yu0zy1SNdm_13self_sensored8services15batch_processorNtB2_14BatchProcessor29deduplicate_body_measurements
FN:1813,_RNvMNtNtCs1yu0zy1SNdm_13self_sensored8services15batch_processorNtB2_14BatchProcessor29deduplicate_fertility_metrics
FN:1777,_RNvMNtNtCs1yu0zy1SNdm_13self_sensored8services15batch_processorNtB2_14BatchProcessor29deduplicate_menstrual_metrics
FN:4704,_RNvMNtNtCs1yu0zy1SNdm_13self_sensored8services15batch_processorNtB2_14BatchProcessor29deduplicate_metabolic_metrics
FN:4714,_RNvMNtNtCs1yu0zy1SNdm_13self_sensored8services15batch_processorNtB2_14BatchProcessor29deduplicate_nutrition_metrics
FN:3917,_RNvMNtNtCs1yu0zy1SNdm_13self_sensored8services15batch_processorNtB2_14BatchProcessor29insert_audio_exposure_metrics
FN:2068,_RNvMNtNtCs1yu0zy1SNdm_13self_sensored8services15batch_processorNtB2_14BatchProcessor29insert_blood_pressures_static
FN:3620,_RNvMNtNtCs1yu0zy1SNdm_13self_sensored8services15batch_processorNtB2_14BatchProcessor29insert_hygiene_events_chunked
FN:2084,_RNvMNtNtCs1yu0zy1SNdm_13self_sensored8services15batch_processorNtB2_14BatchProcessor30insert_blood_pressures_chunked
FN:4606,_RNvMNtNtCs1yu0zy1SNdm_13self_sensored8services15batch_processorNtB2_14BatchProcessor30insert_hygiene_metrics_chunked
FN:4522,_RNvMNtNtCs1yu0zy1SNdm_13self_sensored8services15batch_processorNtB2_14BatchProcessor30insert_symptom_metrics_chunked
FN:4810,_RNvMNtNtCs1yu0zy1SNdm_13self_sensored8services15batch_processorNtB2_14BatchProcessor31deduplicate_mindfulness_metrics
FN:1753,_RNvMNtNtCs1yu0zy1SNdm_13self_sensored8services15batch_processorNtB2_14BatchProcessor31deduplicate_respiratory_metrics
FN:1672,_RNvMNtNtCs1yu0zy1SNdm_13self_sensored8services15batch_processorNtB2_14BatchProcessor31deduplicate_temperature_metrics
FN:2385,_RNvMNtNtCs1yu0zy1SNdm_13self_sensored8services15batch_processorNtB2_14BatchProcessor31insert_body_measurements_static
FN:4800,_RNvMNtNtCs1yu0zy1SNdm_13self_sensored8services15batch_processorNtB2_14BatchProcessor32deduplicate_safety_event_metrics
FN:2401,_RNvMNtNtCs1yu0zy1SNdm_13self_sensored8services15batch_processorNtB2_14BatchProcessor32insert_body_measurements_chunked
FN:3182,_RNvMNtNtCs1yu0zy1SNdm_13self_sensored8services15batch_processorNtB2_14BatchProcessor32insert_fertility_metrics_chunked
FN:3114,_RNvMNtNtCs1yu0zy1SNdm_13self_sensored8services15batch_processorNtB2_14BatchProcessor32insert_menstrual_metrics_chunked
FN:2818,_RNvMNtNtCs1yu0zy1SNdm_13self_sensored8services15batch_processorNtB2_14BatchProcessor32insert_nutrition_metrics_chunked
FN:4724,_RNvMNtNtCs1yu0zy1SNdm_13self_sensored8services15batch_processorNtB2_14BatchProcessor33deduplicate_environmental_metrics
FN:4820,_RNvMNtNtCs1yu0zy1SNdm_13self_sensored8services15batch_processorNtB2_14BatchProcessor33deduplicate_mental_health_metrics
FN:4762,_RNvMNtNtCs1yu0zy1SNdm_13self_sensored8services15batch_processorNtB2_14BatchProcessor34deduplicate_audio_exposure_metrics
FN:4321,_RNvMNtNtCs1yu0zy1SNdm_13self_sensored8services15batch_processorNtB2_14BatchProcessor34insert_mindfulness_metrics_chunked
FN:2622,_RNvMNtNtCs1yu0zy1SNdm_13self_sensored8services15batch_processorNtB2_14BatchProcessor34insert_respiratory_metrics_chunked
FN:2985,_RNvMNtNtCs1yu0zy1SNdm_13self_sensored8services15batch_processorNtB2_14BatchProcessor34insert_temperature_metrics_chunked
FN:4237,_RNvMNtNtCs1yu0zy1SNdm_13self_sensored8services15batch_processorNtB2_14BatchProcessor35insert_safety_event_metrics_chunked
FN:2703,_RNvMNtNtCs1yu0zy1SNdm_13self_sensored8services15batch_processorNtB2_14BatchProcessor36insert_blood_glucose_metrics_chunked
FN:4057,_RNvMNtNtCs1yu0zy1SNdm_13self_sensored8services15batch_processorNtB2_14BatchProcessor36insert_environmental_metrics_chunked
FN:4420,_RNvMNtNtCs1yu0zy1SNdm_13self_sensored8services15batch_processorNtB2_14BatchProcessor36insert_mental_health_metrics_chunked
FN:4145,_RNvMNtNtCs1yu0zy1SNdm_13self_sensored8services15batch_processorNtB2_14BatchProcessor37insert_audio_exposure_metrics_chunked
FN:257,_RNvMNtNtCs1yu0zy1SNdm_13self_sensored8services15batch_processorNtB2_14BatchProcessor3new
FNDA:0,_RINvMNtNtCs1yu0zy1SNdm_13self_sensored8services15batch_processorNtB3_14BatchProcessor18process_with_retryppEB7_
FNDA:0,_RNCINvMNtNtCs1yu0zy1SNdm_13self_sensored8services15batch_processorNtB5_14BatchProcessor18process_with_retryppE0B9_
FNDA:0,_RNCNCNCNvMNtNtCs1yu0zy1SNdm_13self_sensored8services15batch_processorNtB8_14BatchProcessor16process_parallel000Bc_
FNDA:0,_RNCNCNCNvMNtNtCs1yu0zy1SNdm_13self_sensored8services15batch_processorNtB8_14BatchProcessor16process_parallel0s0_00Bc_
FNDA:0,_RNCNCNCNvMNtNtCs1yu0zy1SNdm_13self_sensored8services15batch_processorNtB8_14BatchProcessor16process_parallel0s1_00Bc_
FNDA:0,_RNCNCNCNvMNtNtCs1yu0zy1SNdm_13self_sensored8services15batch_processorNtB8_14BatchProcessor16process_parallel0s2_00Bc_
FNDA:0,_RNCNCNCNvMNtNtCs1yu0zy1SNdm_13self_sensored8services15batch_processorNtB8_14BatchProcessor16process_parallel0s3_00Bc_
FNDA:0,_RNCNCNCNvMNtNtCs1yu0zy1SNdm_13self_sensored8services15batch_processorNtB8_14BatchProcessor16process_parallel0s4_00Bc_
FNDA:0,_RNCNCNCNvMNtNtCs1yu0zy1SNdm_13self_sensored8services15batch_processorNtB8_14BatchProcessor16process_parallel0s5_00Bc_
FNDA:0,_RNCNCNCNvMNtNtCs1yu0zy1SNdm_13self_sensored8services15batch_processorNtB8_14BatchProcessor16process_parallel0s6_00Bc_
FNDA:0,_RNCNCNCNvMNtNtCs1yu0zy1SNdm_13self_sensored8services15batch_processorNtB8_14BatchProcessor16process_parallel0s7_00Bc_
FNDA:0,_RNCNCNCNvMNtNtCs1yu0zy1SNdm_13self_sensored8services15batch_processorNtB8_14BatchProcessor16process_parallel0s8_00Bc_
FNDA:0,_RNCNCNCNvMNtNtCs1yu0zy1SNdm_13self_sensored8services15batch_processorNtB8_14BatchProcessor16process_parallel0s9_00Bc_
FNDA:0,_RNCNCNCNvMNtNtCs1yu0zy1SNdm_13self_sensored8services15batch_processorNtB8_14BatchProcessor16process_parallel0s_00Bc_
FNDA:0,_RNCNCNCNvMNtNtCs1yu0zy1SNdm_13self_sensored8services15batch_processorNtB8_14BatchProcessor16process_parallel0sa_00Bc_
FNDA:0,_RNCNCNCNvMNtNtCs1yu0zy1SNdm_13self_sensored8services15batch_processorNtB8_14BatchProcessor16process_parallel0sb_00Bc_
FNDA:0,_RNCNCNCNvMNtNtCs1yu0zy1SNdm_13self_sensored8services15batch_processorNtB8_14BatchProcessor26insert_heart_rates_chunked000Bc_
FNDA:0,_RNCNCNCNvMNtNtCs1yu0zy1SNdm_13self_sensored8services15batch_processorNtB8_14BatchProcessor26insert_heart_rates_chunked00s_0Bc_
FNDA:0,_RNCNCNCNvMNtNtCs1yu0zy1SNdm_13self_sensored8services15batch_processorNtB8_14BatchProcessor34insert_temperature_metrics_chunked0s0_00Bc_
FNDA:0,_RNCNCNCNvMNtNtCs1yu0zy1SNdm_13self_sensored8services15batch_processorNtB8_14BatchProcessor34insert_temperature_metrics_chunked0s1_00Bc_
FNDA:0,_RNCNCNCNvMNtNtCs1yu0zy1SNdm_13self_sensored8services15batch_processorNtB8_14BatchProcessor34insert_temperature_metrics_chunked0s_00Bc_
FNDA:0,_RNCNCNvMNtNtCs1yu0zy1SNdm_13self_sensored8services15batch_processorNtB6_14BatchProcessor16process_parallel00Ba_
FNDA:0,_RNCNCNvMNtNtCs1yu0zy1SNdm_13self_sensored8services15batch_processorNtB6_14BatchProcessor16process_parallel0s0_0Ba_
FNDA:0,_RNCNCNvMNtNtCs1yu0zy1SNdm_13self_sensored8services15batch_processorNtB6_14BatchProcessor16process_parallel0s1_0Ba_
FNDA:0,_RNCNCNvMNtNtCs1yu0zy1SNdm_13self_sensored8services15batch_processorNtB6_14BatchProcessor16process_parallel0s2_0Ba_
FNDA:0,_RNCNCNvMNtNtCs1yu0zy1SNdm_13self_sensored8services15batch_processorNtB6_14BatchProcessor16process_parallel0s3_0Ba_
FNDA:0,_RNCNCNvMNtNtCs1yu0zy1SNdm_13self_sensored8services15batch_processorNtB6_14BatchProcessor16process_parallel0s4_0Ba_
FNDA:0,_RNCNCNvMNtNtCs1yu0zy1SNdm_13self_sensored8services15batch_processorNtB6_14BatchProcessor16process_parallel0s5_0Ba_
FNDA:0,_RNCNCNvMNtNtCs1yu0zy1SNdm_13self_sensored8services15batch_processorNtB6_14BatchProcessor16process_parallel0s6_0Ba_
FNDA:0,_RNCNCNvMNtNtCs1yu0zy1SNdm_13self_sensored8services15batch_processorNtB6_14BatchProcessor16process_parallel0s7_0Ba_
FNDA:0,_RNCNCNvMNtNtCs1yu0zy1SNdm_13self_sensored8services15batch_processorNtB6_14BatchProcessor16process_parallel0s8_0Ba_
FNDA:0,_RNCNCNvMNtNtCs1yu0zy1SNdm_13self_sensored8services15batch_processorNtB6_14BatchProcessor16process_parallel0s9_0Ba_
FNDA:0,_RNCNCNvMNtNtCs1yu0zy1SNdm_13self_sensored8services15batch_processorNtB6_14BatchProcessor16process_parallel0s_0Ba_
FNDA:0,_RNCNCNvMNtNtCs1yu0zy1SNdm_13self_sensored8services15batch_processorNtB6_14BatchProcessor16process_parallel0sa_0Ba_
FNDA:0,_RNCNCNvMNtNtCs1yu0zy1SNdm_13self_sensored8services15batch_processorNtB6_14BatchProcessor16process_parallel0sb_0Ba_
FNDA:0,_RNCNCNvMNtNtCs1yu0zy1SNdm_13self_sensored8services15batch_processorNtB6_14BatchProcessor18process_sequential00Ba_
FNDA:0,_RNCNCNvMNtNtCs1yu0zy1SNdm_13self_sensored8services15batch_processorNtB6_14BatchProcessor18process_sequential0s0_0Ba_
FNDA:0,_RNCNCNvMNtNtCs1yu0zy1SNdm_13self_sensored8services15batch_processorNtB6_14BatchProcessor18process_sequential0s1_0Ba_
FNDA:0,_RNCNCNvMNtNtCs1yu0zy1SNdm_13self_sensored8services15batch_processorNtB6_14BatchProcessor18process_sequential0s2_0Ba_
FNDA:0,_RNCNCNvMNtNtCs1yu0zy1SNdm_13self_sensored8services15batch_processorNtB6_14BatchProcessor18process_sequential0s3_0Ba_
FNDA:0,_RNCNCNvMNtNtCs1yu0zy1SNdm_13self_sensored8services15batch_processorNtB6_14BatchProcessor18process_sequential0s4_0Ba_
FNDA:0,_RNCNCNvMNtNtCs1yu0zy1SNdm_13self_sensored8services15batch_processorNtB6_14BatchProcessor18process_sequential0s5_0Ba_
FNDA:0,_RNCNCNvMNtNtCs1yu0zy1SNdm_13self_sensored8services15batch_processorNtB6_14BatchProcessor18process_sequential0s6_0Ba_
FNDA:0,_RNCNCNvMNtNtCs1yu0zy1SNdm_13self_sensored8services15batch_processorNtB6_14BatchProcessor18process_sequential0s7_0Ba_
FNDA:0,_RNCNCNvMNtNtCs1yu0zy1SNdm_13self_sensored8services15batch_processorNtB6_14BatchProcessor18process_sequential0s8_0Ba_
FNDA:0,_RNCNCNvMNtNtCs1yu0zy1SNdm_13self_sensored8services15batch_processorNtB6_14BatchProcessor18process_sequential0s9_0Ba_
FNDA:0,_RNCNCNvMNtNtCs1yu0zy1SNdm_13self_sensored8services15batch_processorNtB6_14BatchProcessor18process_sequential0s_0Ba_
FNDA:0,_RNCNCNvMNtNtCs1yu0zy1SNdm_13self_sensored8services15batch_processorNtB6_14BatchProcessor18process_sequential0sa_0Ba_
FNDA:0,_RNCNCNvMNtNtCs1yu0zy1SNdm_13self_sensored8services15batch_processorNtB6_14BatchProcessor18process_sequential0sb_0Ba_
FNDA:0,_RNCNCNvMNtNtCs1yu0zy1SNdm_13self_sensored8services15batch_processorNtB6_14BatchProcessor18process_sequential0sc_0Ba_
FNDA:0,_RNCNCNvMNtNtCs1yu0zy1SNdm_13self_sensored8services15batch_processorNtB6_14BatchProcessor18process_sequential0sd_0Ba_
FNDA:0,_RNCNCNvMNtNtCs1yu0zy1SNdm_13self_sensored8services15batch_processorNtB6_14BatchProcessor18process_sequential0se_0Ba_
FNDA:0,_RNCNCNvMNtNtCs1yu0zy1SNdm_13self_sensored8services15batch_processorNtB6_14BatchProcessor18process_sequential0sf_0Ba_
FNDA:0,_RNCNCNvMNtNtCs1yu0zy1SNdm_13self_sensored8services15batch_processorNtB6_14BatchProcessor18process_sequential0sg_0Ba_
FNDA:0,_RNCNCNvMNtNtCs1yu0zy1SNdm_13self_sensored8services15batch_processorNtB6_14BatchProcessor18process_sequential0sh_0Ba_
FNDA:0,_RNCNCNvMNtNtCs1yu0zy1SNdm_13self_sensored8services15batch_processorNtB6_14BatchProcessor22process_hygiene_events00Ba_
FNDA:0,_RNCNCNvMNtNtCs1yu0zy1SNdm_13self_sensored8services15batch_processorNtB6_14BatchProcessor23insert_workouts_chunked00Ba_
FNDA:0,_RNCNCNvMNtNtCs1yu0zy1SNdm_13self_sensored8services15batch_processorNtB6_14BatchProcessor24process_activity_metrics00Ba_
FNDA:0,_RNCNCNvMNtNtCs1yu0zy1SNdm_13self_sensored8services15batch_processorNtB6_14BatchProcessor25insert_activities_chunked00Ba_
FNDA:0,_RNCNCNvMNtNtCs1yu0zy1SNdm_13self_sensored8services15batch_processorNtB6_14BatchProcessor25process_body_measurements00Ba_
FNDA:0,_RNCNCNvMNtNtCs1yu0zy1SNdm_13self_sensored8services15batch_processorNtB6_14BatchProcessor25process_fertility_metrics00Ba_
FNDA:0,_RNCNCNvMNtNtCs1yu0zy1SNdm_13self_sensored8services15batch_processorNtB6_14BatchProcessor25process_fertility_metrics0s0_0Ba_
FNDA:0,_RNCNCNvMNtNtCs1yu0zy1SNdm_13self_sensored8services15batch_processorNtB6_14BatchProcessor25process_fertility_metrics0s1_0Ba_
FNDA:0,_RNCNCNvMNtNtCs1yu0zy1SNdm_13self_sensored8services15batch_processorNtB6_14BatchProcessor25process_menstrual_metrics00Ba_
FNDA:0,_RNCNCNvMNtNtCs1yu0zy1SNdm_13self_sensored8services15batch_processorNtB6_14BatchProcessor26insert_heart_rates_chunked00Ba_
FNDA:0,_RNCNCNvMNtNtCs1yu0zy1SNdm_13self_sensored8services15batch_processorNtB6_14BatchProcessor27process_temperature_metrics00Ba_
FNDA:0,_RNCNCNvMNtNtCs1yu0zy1SNdm_13self_sensored8services15batch_processorNtB6_14BatchProcessor28insert_sleep_metrics_chunked00Ba_
FNDA:0,_RNCNCNvMNtNtCs1yu0zy1SNdm_13self_sensored8services15batch_processorNtB6_14BatchProcessor29insert_hygiene_events_chunked00Ba_
FNDA:0,_RNCNCNvMNtNtCs1yu0zy1SNdm_13self_sensored8services15batch_processorNtB6_14BatchProcessor30insert_blood_pressures_chunked00Ba_
FNDA:0,_RNCNCNvMNtNtCs1yu0zy1SNdm_13self_sensored8services15batch_processorNtB6_14BatchProcessor30insert_hygiene_metrics_chunked00Ba_
FNDA:0,_RNCNCNvMNtNtCs1yu0zy1SNdm_13self_sensored8services15batch_processorNtB6_14BatchProcessor30insert_symptom_metrics_chunked00Ba_
FNDA:0,_RNCNCNvMNtNtCs1yu0zy1SNdm_13self_sensored8services15batch_processorNtB6_14BatchProcessor32insert_body_measurements_chunked00Ba_
FNDA:0,_RNCNCNvMNtNtCs1yu0zy1SNdm_13self_sensored8services15batch_processorNtB6_14BatchProcessor32insert_fertility_metrics_chunked00Ba_
FNDA:0,_RNCNCNvMNtNtCs1yu0zy1SNdm_13self_sensored8services15batch_processorNtB6_14BatchProcessor32insert_fertility_metrics_chunked0s0_0Ba_
FNDA:0,_RNCNCNvMNtNtCs1yu0zy1SNdm_13self_sensored8services15batch_processorNtB6_14BatchProcessor32insert_fertility_metrics_chunked0s1_0Ba_
FNDA:0,_RNCNCNvMNtNtCs1yu0zy1SNdm_13self_sensored8services15batch_processorNtB6_14BatchProcessor32insert_fertility_metrics_chunked0s3_0Ba_
FNDA:0,_RNCNCNvMNtNtCs1yu0zy1SNdm_13self_sensored8services15batch_processorNtB6_14BatchProcessor32insert_fertility_metrics_chunked0s4_0Ba_
FNDA:0,_RNCNCNvMNtNtCs1yu0zy1SNdm_13self_sensored8services15batch_processorNtB6_14BatchProcessor32insert_menstrual_metrics_chunked00Ba_
FNDA:0,_RNCNCNvMNtNtCs1yu0zy1SNdm_13self_sensored8services15batch_processorNtB6_14BatchProcessor32insert_nutrition_metrics_chunked00Ba_
FNDA:0,_RNCNCNvMNtNtCs1yu0zy1SNdm_13self_sensored8services15batch_processorNtB6_14BatchProcessor34insert_mindfulness_metrics_chunked00Ba_
FNDA:0,_RNCNCNvMNtNtCs1yu0zy1SNdm_13self_sensored8services15batch_processorNtB6_14BatchProcessor34insert_respiratory_metrics_chunked00Ba_
FNDA:0,_RNCNCNvMNtNtCs1yu0zy1SNdm_13self_sensored8services15batch_processorNtB6_14BatchProcessor34insert_temperature_metrics_chunked00Ba_
FNDA:0,_RNCNCNvMNtNtCs1yu0zy1SNdm_13self_sensored8services15batch_processorNtB6_14BatchProcessor34insert_temperature_metrics_chunked0s0_0Ba_
FNDA:0,_RNCNCNvMNtNtCs1yu0zy1SNdm_13self_sensored8services15batch_processorNtB6_14BatchProcessor34insert_temperature_metrics_chunked0s1_0Ba_
FNDA:0,_RNCNCNvMNtNtCs1yu0zy1SNdm_13self_sensored8services15batch_processorNtB6_14BatchProcessor34insert_temperature_metrics_chunked0s_0Ba_
FNDA:0,_RNCNCNvMNtNtCs1yu0zy1SNdm_13self_sensored8services15batch_processorNtB6_14BatchProcessor35insert_safety_event_metrics_chunked00Ba_
FNDA:0,_RNCNCNvMNtNtCs1yu0zy1SNdm_13self_sensored8services15batch_processorNtB6_14BatchProcessor36insert_blood_glucose_metrics_chunked00Ba_
FNDA:0,_RNCNCNvMNtNtCs1yu0zy1SNdm_13self_sensored8services15batch_processorNtB6_14BatchProcessor36insert_blood_glucose_metrics_chunked0s_0Ba_
FNDA:0,_RNCNCNvMNtNtCs1yu0zy1SNdm_13self_sensored8services15batch_processorNtB6_14BatchProcessor36insert_environmental_metrics_chunked00Ba_
FNDA:0,_RNCNCNvMNtNtCs1yu0zy1SNdm_13self_sensored8services15batch_processorNtB6_14BatchProcessor36insert_mental_health_metrics_chunked00Ba_
FNDA:0,_RNCNCNvMNtNtCs1yu0zy1SNdm_13self_sensored8services15batch_processorNtB6_14BatchProcessor37insert_audio_exposure_metrics_chunked00Ba_
FNDA:0,_RNCNvMNtNtCs1yu0zy1SNdm_13self_sensored8services15batch_processorNtB4_14BatchProcessor13process_batch0B8_
FNDA:0,_RNCNvMNtNtCs1yu0zy1SNdm_13self_sensored8services15batch_processorNtB4_14BatchProcessor15insert_workouts0B8_
FNDA:0,_RNCNvMNtNtCs1yu0zy1SNdm_13self_sensored8services15batch_processorNtB4_14BatchProcessor16process_parallel0B8_
FNDA:0,_RNCNvMNtNtCs1yu0zy1SNdm_13self_sensored8services15batch_processorNtB4_14BatchProcessor17check_pool_health0B8_
FNDA:0,_RNCNvMNtNtCs1yu0zy1SNdm_13self_sensored8services15batch_processorNtB4_14BatchProcessor17insert_activities0B8_
FNDA:0,_RNCNvMNtNtCs1yu0zy1SNdm_13self_sensored8services15batch_processorNtB4_14BatchProcessor18insert_heart_rates0B8_
FNDA:0,_RNCNvMNtNtCs1yu0zy1SNdm_13self_sensored8services15batch_processorNtB4_14BatchProcessor18process_sequential0B8_
FNDA:0,_RNCNvMNtNtCs1yu0zy1SNdm_13self_sensored8services15batch_processorNtB4_14BatchProcessor20insert_sleep_metrics0B8_
FNDA:0,_RNCNvMNtNtCs1yu0zy1SNdm_13self_sensored8services15batch_processorNtB4_14BatchProcessor22insert_blood_pressures0B8_
FNDA:0,_RNCNvMNtNtCs1yu0zy1SNdm_13self_sensored8services15batch_processorNtB4_14BatchProcessor22insert_hygiene_metrics0B8_
FNDA:0,_RNCNvMNtNtCs1yu0zy1SNdm_13self_sensored8services15batch_processorNtB4_14BatchProcessor22insert_symptom_metrics0B8_
FNDA:0,_RNCNvMNtNtCs1yu0zy1SNdm_13self_sensored8services15batch_processorNtB4_14BatchProcessor22insert_workouts_static0B8_
FNDA:0,_RNCNvMNtNtCs1yu0zy1SNdm_13self_sensored8services15batch_processorNtB4_14BatchProcessor22process_hygiene_events0B8_
FNDA:0,_RNCNvMNtNtCs1yu0zy1SNdm_13self_sensored8services15batch_processorNtB4_14BatchProcessor23insert_workouts_chunked0B8_
FNDA:0,_RNCNvMNtNtCs1yu0zy1SNdm_13self_sensored8services15batch_processorNtB4_14BatchProcessor24insert_activities_static0B8_
FNDA:0,_RNCNvMNtNtCs1yu0zy1SNdm_13self_sensored8services15batch_processorNtB4_14BatchProcessor24insert_body_measurements0B8_
FNDA:0,_RNCNvMNtNtCs1yu0zy1SNdm_13self_sensored8services15batch_processorNtB4_14BatchProcessor24insert_metabolic_metrics0B8_
FNDA:0,_RNCNvMNtNtCs1yu0zy1SNdm_13self_sensored8services15batch_processorNtB4_14BatchProcessor24insert_nutrition_metrics0B8_
FNDA:0,_RNCNvMNtNtCs1yu0zy1SNdm_13self_sensored8services15batch_processorNtB4_14BatchProcessor24process_activity_metrics0B8_
FNDA:0,_RNCNvMNtNtCs1yu0zy1SNdm_13self_sensored8services15batch_processorNtB4_14BatchProcessor25insert_activities_chunked0B8_
FNDA:0,_RNCNvMNtNtCs1yu0zy1SNdm_13self_sensored8services15batch_processorNtB4_14BatchProcessor25insert_heart_rates_static0B8_
FNDA:0,_RNCNvMNtNtCs1yu0zy1SNdm_13self_sensored8services15batch_processorNtB4_14BatchProcessor25process_body_measurements0B8_
FNDA:0,_RNCNvMNtNtCs1yu0zy1SNdm_13self_sensored8services15batch_processorNtB4_14BatchProcessor25process_fertility_metrics0B8_
FNDA:0,_RNCNvMNtNtCs1yu0zy1SNdm_13self_sensored8services15batch_processorNtB4_14BatchProcessor25process_menstrual_metrics0B8_
FNDA:0,_RNCNvMNtNtCs1yu0zy1SNdm_13self_sensored8services15batch_processorNtB4_14BatchProcessor26deduplicate_hygiene_events0B8_
FNDA:0,_RNCNvMNtNtCs1yu0zy1SNdm_13self_sensored8services15batch_processorNtB4_14BatchProcessor26insert_heart_rates_chunked0B8_
FNDA:0,_RNCNvMNtNtCs1yu0zy1SNdm_13self_sensored8services15batch_processorNtB4_14BatchProcessor26insert_mindfulness_metrics0B8_
FNDA:0,_RNCNvMNtNtCs1yu0zy1SNdm_13self_sensored8services15batch_processorNtB4_14BatchProcessor26insert_respiratory_metrics0B8_
FNDA:0,_RNCNvMNtNtCs1yu0zy1SNdm_13self_sensored8services15batch_processorNtB4_14BatchProcessor26insert_temperature_metrics0B8_
FNDA:0,_RNCNvMNtNtCs1yu0zy1SNdm_13self_sensored8services15batch_processorNtB4_14BatchProcessor27insert_safety_event_metrics0B8_
FNDA:0,_RNCNvMNtNtCs1yu0zy1SNdm_13self_sensored8services15batch_processorNtB4_14BatchProcessor27insert_sleep_metrics_static0B8_
FNDA:0,_RNCNvMNtNtCs1yu0zy1SNdm_13self_sensored8services15batch_processorNtB4_14BatchProcessor27process_temperature_metrics0B8_
FNDA:0,_RNCNvMNtNtCs1yu0zy1SNdm_13self_sensored8services15batch_processorNtB4_14BatchProcessor28insert_blood_glucose_metrics0B8_
FNDA:0,_RNCNvMNtNtCs1yu0zy1SNdm_13self_sensored8services15batch_processorNtB4_14BatchProcessor28insert_environmental_metrics0B8_
FNDA:0,_RNCNvMNtNtCs1yu0zy1SNdm_13self_sensored8services15batch_processorNtB4_14BatchProcessor28insert_mental_health_metrics0B8_
FNDA:0,_RNCNvMNtNtCs1yu0zy1SNdm_13self_sensored8services15batch_processorNtB4_14BatchProcessor28insert_sleep_metrics_chunked0B8_
FNDA:0,_RNCNvMNtNtCs1yu0zy1SNdm_13self_sensored8services15batch_processorNtB4_14BatchProcessor29deduplicate_body_measurements0B8_
FNDA:0,_RNCNvMNtNtCs1yu0zy1SNdm_13self_sensored8services15batch_processorNtB4_14BatchProcessor29insert_audio_exposure_metrics0B8_
FNDA:0,_RNCNvMNtNtCs1yu0zy1SNdm_13self_sensored8services15batch_processorNtB4_14BatchProcessor29insert_blood_pressures_static0B8_
FNDA:0,_RNCNvMNtNtCs1yu0zy1SNdm_13self_sensored8services15batch_processorNtB4_14BatchProcessor29insert_hygiene_events_chunked0B8_
FNDA:0,_RNCNvMNtNtCs1yu0zy1SNdm_13self_sensored8services15batch_processorNtB4_14BatchProcessor30insert_blood_pressures_chunked0B8_
FNDA:0,_RNCNvMNtNtCs1yu0zy1SNdm_13self_sensored8services15batch_processorNtB4_14BatchProcessor30insert_hygiene_metrics_chunked0B8_
FNDA:0,_RNCNvMNtNtCs1yu0zy1SNdm_13self_sensored8services15batch_processorNtB4_14BatchProcessor30insert_symptom_metrics_chunked0B8_
FNDA:0,_RNCNvMNtNtCs1yu0zy1SNdm_13self_sensored8services15batch_processorNtB4_14BatchProcessor31deduplicate_temperature_metrics0B8_
FNDA:0,_RNCNvMNtNtCs1yu0zy1SNdm_13self_sensored8services15batch_processorNtB4_14BatchProcessor31insert_body_measurements_static0B8_
FNDA:0,_RNCNvMNtNtCs1yu0zy1SNdm_13self_sensored8services15batch_processorNtB4_14BatchProcessor32insert_body_measurements_chunked0B8_
FNDA:0,_RNCNvMNtNtCs1yu0zy1SNdm_13self_sensored8services15batch_processorNtB4_14BatchProcessor32insert_fertility_metrics_chunked0B8_
FNDA:0,_RNCNvMNtNtCs1yu0zy1SNdm_13self_sensored8services15batch_processorNtB4_14BatchProcessor32insert_menstrual_metrics_chunked0B8_
FNDA:0,_RNCNvMNtNtCs1yu0zy1SNdm_13self_sensored8services15batch_processorNtB4_14BatchProcessor32insert_nutrition_metrics_chunked0B8_
FNDA:0,_RNCNvMNtNtCs1yu0zy1SNdm_13self_sensored8services15batch_processorNtB4_14BatchProcessor34insert_mindfulness_metrics_chunked0B8_
FNDA:0,_RNCNvMNtNtCs1yu0zy1SNdm_13self_sensored8services15batch_processorNtB4_14BatchProcessor34insert_respiratory_metrics_chunked0B8_
FNDA:0,_RNCNvMNtNtCs1yu0zy1SNdm_13self_sensored8services15batch_processorNtB4_14BatchProcessor34insert_temperature_metrics_chunked0B8_
FNDA:0,_RNCNvMNtNtCs1yu0zy1SNdm_13self_sensored8services15batch_processorNtB4_14BatchProcessor35insert_safety_event_metrics_chunked0B8_
FNDA:0,_RNCNvMNtNtCs1yu0zy1SNdm_13self_sensored8services15batch_processorNtB4_14BatchProcessor36insert_blood_glucose_metrics_chunked0B8_
